 game_layer

 Timestamp is 6331a5ea (Mon Sep 26 15:15:22 2022)

 Preferred load address is 0000000180000000

 Start         Length     Name                   Class
 0001:00000000 00000690H .text$di                CODE
 0001:00000690 00066b60H .text$mn                CODE
 0001:000671f0 00000040H .text$mn$00             CODE
 0001:00067230 00001400H .text$x                 CODE
 0001:00068630 000000f5H .text$yd                CODE
 0002:00000000 000002d8H .idata$5                DATA
 0002:000002d8 00000028H .00cfg                  DATA
 0002:00000300 00000008H .CRT$XCA                DATA
 0002:00000308 00000138H .CRT$XCC                DATA
 0002:00000440 00000038H .CRT$XCL                DATA
 0002:00000478 00000008H .CRT$XCU                DATA
 0002:00000480 00000008H .CRT$XCZ                DATA
 0002:00000488 00000008H .CRT$XIA                DATA
 0002:00000490 00000020H .CRT$XIC                DATA
 0002:000004b0 00000008H .CRT$XIZ                DATA
 0002:000004b8 00000008H .CRT$XPA                DATA
 0002:000004c0 00000010H .CRT$XPX                DATA
 0002:000004d0 00000008H .CRT$XPXA               DATA
 0002:000004d8 00000008H .CRT$XPZ                DATA
 0002:000004e0 00000008H .CRT$XTA                DATA
 0002:000004e8 00000008H .CRT$XTZ                DATA
 0002:000004f0 00000000H .gehcont$y              DATA
 0002:000004f0 00000000H .gfids$y                DATA
 0002:000004f0 0001f090H .rdata                  DATA
 0002:0001f580 00000000H .rdata$CastGuardVftablesA DATA
 0002:0001f580 00000000H .rdata$CastGuardVftablesC DATA
 0002:0001f580 00000f5cH .rdata$r                DATA
 0002:000204dc 00000044H .rdata$voltmd           DATA
 0002:00020520 00000398H .rdata$zzzdbg           DATA
 0002:000208b8 00000008H .rtc$IAA                DATA
 0002:000208c0 00000008H .rtc$IZZ                DATA
 0002:000208c8 00000008H .rtc$TAA                DATA
 0002:000208d0 00000010H .rtc$TZZ                DATA
 0002:000208e0 000028a0H .xdata                  DATA
 0002:00023180 000003d0H .xdata$x                DATA
 0002:00023550 00000080H .edata                  DATA
 0002:000235d0 00000028H .idata$2                DATA
 0002:000235f8 00000018H .idata$3                DATA
 0002:00023610 000002d8H .idata$4                DATA
 0002:000238e8 00000684H .idata$6                DATA
 0003:00000000 00000ca0H .data                   DATA
 0003:00000ca0 000001f0H .data$r                 DATA
 0003:00000e90 00000370H .data$rs                DATA
 0003:00001200 00003220H .bss                    DATA
 0004:00000000 0000501cH .pdata                  DATA
 0005:00000000 000000f4H _RDATA                  DATA

  Address         Publics by Value              Rva+Base               Lib:Object

 0000:00000000       __x64_code_ranges_to_entry_points_count 0000000000000000     <absolute>
 0000:00000000       __arm64x_redirection_metadata 0000000000000000     <absolute>
 0000:00000000       __guard_iat_table          0000000000000000     <absolute>
 0000:00000000       __guard_iat_count          0000000000000000     <absolute>
 0000:00000000       __guard_longjmp_count      0000000000000000     <absolute>
 0000:00000000       __guard_longjmp_table      0000000000000000     <absolute>
 0000:00000000       __x64_code_ranges_to_entry_points 0000000000000000     <absolute>
 0000:00000000       __dynamic_value_reloc_table 0000000000000000     <absolute>
 0000:00000000       __hybrid_auxiliary_iat     0000000000000000     <absolute>
 0000:00000000       __hybrid_auxiliary_iat_copy 0000000000000000     <absolute>
 0000:00000000       __guard_fids_count         0000000000000000     <absolute>
 0000:00000000       ___safe_se_handler_table   0000000000000000     <absolute>
 0000:00000000       __arm64x_extra_rfe_table   0000000000000000     <absolute>
 0000:00000000       __hybrid_code_map          0000000000000000     <absolute>
 0000:00000000       __AbsoluteZero             0000000000000000     <absolute>
 0000:00000000       __arm64x_extra_rfe_table_size 0000000000000000     <absolute>
 0000:00000000       ___safe_se_handler_count   0000000000000000     <absolute>
 0000:00000000       __guard_check_icall_a64n_fptr 0000000000000000     <absolute>
 0000:00000000       __guard_fids_table         0000000000000000     <absolute>
 0000:00000000       __guard_eh_cont_count      0000000000000000     <absolute>
 0000:00000000       __arm64x_redirection_metadata_count 0000000000000000     <absolute>
 0000:00000000       __enclave_config           0000000000000000     <absolute>
 0000:00000000       __guard_eh_cont_table      0000000000000000     <absolute>
 0000:00000000       __arm64x_native_entrypoint 0000000000000000     <absolute>
 0000:00000000       __hybrid_code_map_count    0000000000000000     <absolute>
 0000:00000100       __guard_flags              0000000000000100     <absolute>
 0000:00000000       __ImageBase                0000000180000000     <linker-defined>
 0001:00000690       ??$?0$$V@?$_Compressed_pair@V?$allocator@D@std@@V?$_String_val@U?$_Simple_types@D@std@@@2@$00@std@@QEAA@U_Zero_then_variadic_args_t@1@@Z 0000000180001690 f i game_layer.obj
 0001:000006b0       ??$?0D@?$allocator@U_Container_proxy@std@@@std@@QEAA@AEBV?$allocator@D@1@@Z 00000001800016b0 f i game_layer.obj
 0001:000006b0       ??$_Unfancy@D@std@@YAPEADPEAD@Z 00000001800016b0 f i game_layer.obj
 0001:000006b0       ?_Getal@?$basic_string@DU?$char_traits@D@std@@V?$allocator@D@2@@std@@AEAAAEAV?$allocator@D@2@XZ 00000001800016b0 f i game_layer.obj
 0001:000006c0       ??$?0U?$default_delete@V_Facet_base@std@@@std@@$0A@@?$unique_ptr@V_Facet_base@std@@U?$default_delete@V_Facet_base@std@@@2@@std@@QEAA@PEAV_Facet_base@1@@Z 00000001800016c0 f i game_layer.obj
 0001:000006c0       ??0id@locale@std@@QEAA@_K@Z 00000001800016c0 f i game_layer.obj
 0001:000006d0       ??$?6U?$char_traits@D@std@@@std@@YAAEAV?$basic_ostream@DU?$char_traits@D@std@@@0@AEAV10@PEBD@Z 00000001800016d0 f i game_layer.obj
 0001:000009b0       ??$?HDU?$char_traits@D@std@@V?$allocator@D@1@@std@@YA?AV?$basic_string@DU?$char_traits@D@std@@V?$allocator@D@2@@0@$$QEAV10@0@Z 00000001800019b0 f i game_layer.obj
 0001:00000a70       ??$_Alloc_proxy@V?$allocator@U_Container_proxy@std@@@std@@@_Container_base12@std@@QEAAX$$QEAV?$allocator@U_Container_proxy@std@@@1@@Z 0000000180001a70 f i game_layer.obj
 0001:00000aa0       ??$_Allocate@$0BA@U_Default_allocate_traits@std@@$0A@@std@@YAPEAX_K@Z 0000000180001aa0 f i game_layer.obj
 0001:00000b80       ??$_Construct_in_place@PEADAEBQEAD@std@@YAXAEAPEADAEBQEAD@Z 0000000180001b80 f i game_layer.obj
 0001:00000b90       ??$_Deallocate@$0BA@$0A@@std@@YAXPEAX_K@Z 0000000180001b90 f i game_layer.obj
 0001:00000cc0       ??$_Verify_range@D@std@@YAXQEBD0@Z 0000000180001cc0 f i game_layer.obj
 0001:00000d30       ??$endl@DU?$char_traits@D@std@@@std@@YAAEAV?$basic_ostream@DU?$char_traits@D@std@@@0@AEAV10@@Z 0000000180001d30 f i game_layer.obj
 0001:00000df0       ??$generate_canonical@M$0?0V?$mersenne_twister_engine@I$0CA@$0CHA@$0BIN@$0BP@$0JJAILANP@$0L@$0PPPPPPPP@$06$0JNCMFGIA@$0P@$0OPMGAAAA@$0BC@$0GMAHIJGF@@std@@@std@@YAMAEAV?$mersenne_twister_engine@I$0CA@$0CHA@$0BIN@$0BP@$0JJAILANP@$0L@$0PPPPPPPP@$06$0JNCMFGIA@$0P@$0OPMGAAAA@$0BC@$0GMAHIJGF@@0@@Z 0000000180001df0 f i game_layer.obj
 0001:00001010       ??$min@_K@std@@YAAEB_KAEB_K0@Z 0000000180002010 f i game_layer.obj
 0001:00001020       ??$use_facet@V?$ctype@D@std@@@std@@YAAEBV?$ctype@D@0@AEBVlocale@0@@Z 0000000180002020 f i game_layer.obj
 0001:00001140       ??0?$basic_string@DU?$char_traits@D@std@@V?$allocator@D@2@@std@@QEAA@$$QEAV01@@Z 0000000180002140 f i game_layer.obj
 0001:00001230       ??0?$basic_string@DU?$char_traits@D@std@@V?$allocator@D@2@@std@@QEAA@QEBD@Z 0000000180002230 f i game_layer.obj
 0001:000012c0       ??0?$basic_string@DU?$char_traits@D@std@@V?$allocator@D@2@@std@@QEAA@QEBD_K@Z 00000001800022c0 f i game_layer.obj
 0001:00001350       ??0?$basic_string@DU?$char_traits@D@std@@V?$allocator@D@2@@std@@QEAA@U_String_constructor_concat_tag@1@AEAV01@1@Z 0000000180002350 f i game_layer.obj
 0001:000015d0       ??0?$basic_string@DU?$char_traits@D@std@@V?$allocator@D@2@@std@@QEAA@_KD@Z 00000001800025d0 f i game_layer.obj
 0001:00001730       ??0_Locinfo@std@@QEAA@PEBD@Z 0000000180002730 f i game_layer.obj
 0001:000017b0       ??0_System_error@std@@IEAA@Verror_code@1@AEBV?$basic_string@DU?$char_traits@D@std@@V?$allocator@D@2@@1@@Z 00000001800027b0 f i game_layer.obj
 0001:00001a60       ??0_System_error@std@@QEAA@AEBV01@@Z 0000000180002a60 f i game_layer.obj
 0001:00001ac0       ??0bad_alloc@std@@QEAA@AEBV01@@Z 0000000180002ac0 f i game_layer.obj
 0001:00001b10       ??0bad_array_new_length@std@@QEAA@AEBV01@@Z 0000000180002b10 f i game_layer.obj
 0001:00001b60       ??0bad_array_new_length@std@@QEAA@XZ 0000000180002b60 f i game_layer.obj
 0001:00001ba0       ??0bad_cast@std@@QEAA@AEBV01@@Z 0000000180002ba0 f i game_layer.obj
 0001:00001bf0       ??0bad_cast@std@@QEAA@XZ   0000000180002bf0 f i game_layer.obj
 0001:00001c20       ??0exception@std@@QEAA@AEBV01@@Z 0000000180002c20 f i game_layer.obj
 0001:00001c60       ??0exception@std@@QEAA@QEBD@Z 0000000180002c60 f i game_layer.obj
 0001:00001ca0       ??0exception@std@@QEAA@QEBDH@Z 0000000180002ca0 f i game_layer.obj
 0001:00001cc0       ??0facet@locale@std@@IEAA@_K@Z 0000000180002cc0 f i game_layer.obj
 0001:00001ce0       ??0failure@ios_base@std@@QEAA@AEBV012@@Z 0000000180002ce0 f i game_layer.obj
 0001:00001d60       ??0failure@ios_base@std@@QEAA@PEBDAEBVerror_code@2@@Z 0000000180002d60 f i game_layer.obj
 0001:00001da0       ??0runtime_error@std@@QEAA@AEBV01@@Z 0000000180002da0 f i game_layer.obj
 0001:00001df0       ??0sentry@?$basic_ostream@DU?$char_traits@D@std@@@std@@QEAA@AEAV12@@Z 0000000180002df0 f i game_layer.obj
 0001:00001e70       ??0system_error@std@@QEAA@AEBV01@@Z 0000000180002e70 f i game_layer.obj
 0001:00001ee0       ??0system_error@std@@QEAA@Verror_code@1@PEBD@Z 0000000180002ee0 f i game_layer.obj
 0001:00002140       ??1?$_Container_proxy_ptr12@V?$allocator@U_Container_proxy@std@@@std@@@std@@QEAA@XZ 0000000180003140 f i game_layer.obj
 0001:00002160       ?_Tidy@?$_Yarn@D@std@@AEAAXXZ 0000000180003160 f i game_layer.obj
 0001:00002160       ??1?$_Yarn@D@std@@QEAA@XZ  0000000180003160 f i game_layer.obj
 0001:00002160       ??1?$_Yarn@_W@std@@QEAA@XZ 0000000180003160 f i game_layer.obj
 0001:00002190       ??1?$basic_string@DU?$char_traits@D@std@@V?$allocator@D@2@@std@@QEAA@XZ 0000000180003190 f i game_layer.obj
 0001:000021e0       ??1?$unique_ptr@V_Facet_base@std@@U?$default_delete@V_Facet_base@std@@@2@@std@@QEAA@XZ 00000001800031e0 f i game_layer.obj
 0001:00002200       ??1_Facet_base@std@@UEAA@XZ 0000000180003200 f i game_layer.obj
 0001:00002210       ??1_Locinfo@std@@QEAA@XZ   0000000180003210 f i game_layer.obj
 0001:000022d0       ??1_Sentry_base@?$basic_ostream@DU?$char_traits@D@std@@@std@@QEAA@XZ 00000001800032d0 f i game_layer.obj
 0001:00002300       ??1bad_array_new_length@std@@UEAA@XZ 0000000180003300 f i game_layer.obj
 0001:00002300       ??1_System_error@std@@UEAA@XZ 0000000180003300 f i game_layer.obj
 0001:00002330       ??1bad_cast@std@@UEAA@XZ   0000000180003330 f i game_layer.obj
 0001:00002330       ??1bad_alloc@std@@UEAA@XZ  0000000180003330 f i game_layer.obj
 0001:00002330       ??1runtime_error@std@@UEAA@XZ 0000000180003330 f i game_layer.obj
 0001:00002360       ??1ctype_base@std@@UEAA@XZ 0000000180003360 f i game_layer.obj
 0001:00002390       ??1exception@std@@UEAA@XZ  0000000180003390 f i game_layer.obj
 0001:000023b0       ??1facet@locale@std@@MEAA@XZ 00000001800033b0 f i game_layer.obj
 0001:000023d0       ??1failure@ios_base@std@@UEAA@XZ 00000001800033d0 f i game_layer.obj
 0001:00002400       ??1locale@std@@QEAA@XZ     0000000180003400 f i game_layer.obj
 0001:00002430       ??1sentry@?$basic_ostream@DU?$char_traits@D@std@@@std@@QEAA@XZ 0000000180003430 f i game_layer.obj
 0001:00002470       ??1system_error@std@@UEAA@XZ 0000000180003470 f i game_layer.obj
 0001:000024a0       ??2@YAPEAX_KPEAX@Z         00000001800034a0 f i game_layer.obj
 0001:000024b0       ??2_Crt_new_delete@std@@SAPEAX_K@Z 00000001800034b0 f i game_layer.obj
 0001:000024f0       ??3_Crt_new_delete@std@@SAXPEAX@Z 00000001800034f0 f i game_layer.obj
 0001:00002500       ??Bid@locale@std@@QEAA_KXZ 0000000180003500 f i game_layer.obj
 0001:00002550       ??R?$_Rng_from_urng@IV?$mersenne_twister_engine@I$0CA@$0CHA@$0BIN@$0BP@$0JJAILANP@$0L@$0PPPPPPPP@$06$0JNCMFGIA@$0P@$0OPMGAAAA@$0BC@$0GMAHIJGF@@std@@@std@@QEAAII@Z 0000000180003550 f i game_layer.obj
 0001:000027a0       ??_G?$ctype@D@std@@MEAAPEAXI@Z 00000001800037a0 f i game_layer.obj
 0001:000027a0       ??_E?$ctype@D@std@@MEAAPEAXI@Z 00000001800037a0 f i game_layer.obj
 0001:00002840       ??_G_Facet_base@std@@UEAAPEAXI@Z 0000000180003840 f i game_layer.obj
 0001:00002840       ??_E_Facet_base@std@@UEAAPEAXI@Z 0000000180003840 f i game_layer.obj
 0001:00002870       ??_E_Iostream_error_category2@std@@UEAAPEAXI@Z 0000000180003870 f i game_layer.obj
 0001:00002870       ??_G_Iostream_error_category2@std@@UEAAPEAXI@Z 0000000180003870 f i game_layer.obj
 0001:000028a0       ??_E_System_error@std@@UEAAPEAXI@Z 00000001800038a0 f i game_layer.obj
 0001:000028a0       ??_G_System_error@std@@UEAAPEAXI@Z 00000001800038a0 f i game_layer.obj
 0001:000028f0       ??_Gbad_alloc@std@@UEAAPEAXI@Z 00000001800038f0 f i game_layer.obj
 0001:000028f0       ??_Eruntime_error@std@@UEAAPEAXI@Z 00000001800038f0 f i game_layer.obj
 0001:000028f0       ??_Gbad_cast@std@@UEAAPEAXI@Z 00000001800038f0 f i game_layer.obj
 0001:000028f0       ??_Ebad_cast@std@@UEAAPEAXI@Z 00000001800038f0 f i game_layer.obj
 0001:000028f0       ??_Ebad_alloc@std@@UEAAPEAXI@Z 00000001800038f0 f i game_layer.obj
 0001:000028f0       ??_Gruntime_error@std@@UEAAPEAXI@Z 00000001800038f0 f i game_layer.obj
 0001:00002940       ??_Ebad_array_new_length@std@@UEAAPEAXI@Z 0000000180003940 f i game_layer.obj
 0001:00002940       ??_Gbad_array_new_length@std@@UEAAPEAXI@Z 0000000180003940 f i game_layer.obj
 0001:00002990       ??_Gctype_base@std@@UEAAPEAXI@Z 0000000180003990 f i game_layer.obj
 0001:00002990       ??_Ectype_base@std@@UEAAPEAXI@Z 0000000180003990 f i game_layer.obj
 0001:000029f0       ??_Eexception@std@@UEAAPEAXI@Z 00000001800039f0 f i game_layer.obj
 0001:000029f0       ??_Gexception@std@@UEAAPEAXI@Z 00000001800039f0 f i game_layer.obj
 0001:00002a40       ??_Efacet@locale@std@@MEAAPEAXI@Z 0000000180003a40 f i game_layer.obj
 0001:00002a40       ??_Gfacet@locale@std@@MEAAPEAXI@Z 0000000180003a40 f i game_layer.obj
 0001:00002a90       ??_Efailure@ios_base@std@@UEAAPEAXI@Z 0000000180003a90 f i game_layer.obj
 0001:00002a90       ??_Gfailure@ios_base@std@@UEAAPEAXI@Z 0000000180003a90 f i game_layer.obj
 0001:00002ae0       ??_Gsystem_error@std@@UEAAPEAXI@Z 0000000180003ae0 f i game_layer.obj
 0001:00002ae0       ??_Esystem_error@std@@UEAAPEAXI@Z 0000000180003ae0 f i game_layer.obj
 0001:00006a00       ?_Calculate_growth@?$basic_string@DU?$char_traits@D@std@@V?$allocator@D@2@@std@@AEBA_K_K@Z 0000000180007a00 f i game_layer.obj
 0001:00006a40       ?_Check_offset@?$_String_val@U?$_Simple_types@D@std@@@std@@QEBAX_K@Z 0000000180007a40 f i game_layer.obj
 0001:00006a60       ?_Decref@facet@locale@std@@UEAAPEAV_Facet_base@3@XZ 0000000180007a60 f i game_layer.obj
 0001:00006a70       ?_Getcat@?$ctype@D@std@@SA_KPEAPEBVfacet@locale@2@PEBV42@@Z 0000000180007a70 f i game_layer.obj
 0001:00006c70       ?_Getfacet@locale@std@@QEBAPEBVfacet@12@_K@Z 0000000180007c70 f i game_layer.obj
 0001:00006cc0       ?_Incref@facet@locale@std@@UEAAXXZ 0000000180007cc0 f i game_layer.obj
 0001:00006cd0       ?_Myptr@?$_String_val@U?$_Simple_types@D@std@@@std@@QEAAPEADXZ 0000000180007cd0 f i game_layer.obj
 0001:00006ce0       ?_Orphan_all@_Container_base12@std@@QEAAXXZ 0000000180007ce0 f i game_layer.obj
 0001:00006d40       ?_Osfx@?$basic_ostream@DU?$char_traits@D@std@@@std@@QEAAXXZ 0000000180007d40 f i game_layer.obj
 0001:00006df0       ?_Pnavail@?$basic_streambuf@DU?$char_traits@D@std@@@std@@IEBA_JXZ 0000000180007df0 f i game_layer.obj
 0001:00006e10       ?_Pninc@?$basic_streambuf@DU?$char_traits@D@std@@@std@@IEAAPEADXZ 0000000180007e10 f i game_layer.obj
 0001:00006e30       ?_Take_contents@?$basic_string@DU?$char_traits@D@std@@V?$allocator@D@2@@std@@AEAAXAEAV12@@Z 0000000180007e30 f i game_layer.obj
 0001:00006ec0       ?_Throw_bad_array_new_length@std@@YAXXZ 0000000180007ec0 f i game_layer.obj
 0001:00006ee0       ?_Throw_bad_cast@std@@YAXXZ 0000000180007ee0 f i game_layer.obj
 0001:00006f00       ?_Tidy_init@?$basic_string@DU?$char_traits@D@std@@V?$allocator@D@2@@std@@AEAAXXZ 0000000180007f00 f i game_layer.obj
 0001:00006f20       ?_Xlen_string@std@@YAXXZ   0000000180007f20 f i game_layer.obj
 0001:00006f40       ?_Xran@?$_String_val@U?$_Simple_types@D@std@@@std@@SAXXZ 0000000180007f40 f i game_layer.obj
 0001:00006f60       ?__empty_global_delete@@YAXPEAX_K@Z 0000000180007f60 f i game_layer.obj
 0001:00006f60       ?__global_delete@@YAXPEAX_K@Z 0000000180007f60 f i game_layer.obj
 0001:00006f70       ?allocate@?$allocator@D@std@@QEAAPEAD_K@Z 0000000180007f70 f i game_layer.obj
 0001:00006f80       ?append@?$basic_string@DU?$char_traits@D@std@@V?$allocator@D@2@@std@@QEAAAEAV12@QEBD_K@Z 0000000180007f80 f i game_layer.obj
 0001:000070e0       ?assign@?$_Narrow_char_traits@DH@std@@SAPEADQEAD_KD@Z 00000001800080e0 f i game_layer.obj
 0001:00007110       ?assign@?$_Narrow_char_traits@DH@std@@SAXAEADAEBD@Z 0000000180008110 f i game_layer.obj
 0001:00007120       ?assign@?$basic_string@DU?$char_traits@D@std@@V?$allocator@D@2@@std@@QEAAAEAV12@QEBD_K@Z 0000000180008120 f i game_layer.obj
 0001:00007210       ?c_str@locale@std@@QEBAPEBDXZ 0000000180008210 f i game_layer.obj
 0001:00007240       ?clear@ios_base@std@@QEAAXH_N@Z 0000000180008240 f i game_layer.obj
 0001:000072d0       ?copy@?$_Char_traits@DH@std@@SAPEADQEADQEBD_K@Z 00000001800082d0 f i game_layer.obj
 0001:000072d0       ?move@?$_Char_traits@DH@std@@SAPEADQEADQEBD_K@Z 00000001800082d0 f i game_layer.obj
 0001:000072f0       ?deallocate@?$allocator@D@std@@QEAAXQEAD_K@Z 00000001800082f0 f i game_layer.obj
 0001:00007300       ?default_error_condition@error_category@std@@UEBA?AVerror_condition@2@H@Z 0000000180008300 f i game_layer.obj
 0001:00007310       ?do_widen@?$ctype@D@std@@MEBADD@Z 0000000180008310 f i game_layer.obj
 0001:00007310       ?do_narrow@?$ctype@D@std@@MEBADDD@Z 0000000180008310 f i game_layer.obj
 0001:00007320       ?do_narrow@?$ctype@D@std@@MEBAPEBDPEBD0DPEAD@Z 0000000180008320 f i game_layer.obj
 0001:00007360       ?do_tolower@?$ctype@D@std@@MEBADD@Z 0000000180008360 f i game_layer.obj
 0001:00007370       ?do_tolower@?$ctype@D@std@@MEBAPEBDPEADPEBD@Z 0000000180008370 f i game_layer.obj
 0001:000073d0       ?do_toupper@?$ctype@D@std@@MEBADD@Z 00000001800083d0 f i game_layer.obj
 0001:000073e0       ?do_toupper@?$ctype@D@std@@MEBAPEBDPEADPEBD@Z 00000001800083e0 f i game_layer.obj
 0001:00007440       ?do_widen@?$ctype@D@std@@MEBAPEBDPEBD0PEAD@Z 0000000180008440 f i game_layer.obj
 0001:00007490       ?eof@?$_Narrow_char_traits@DH@std@@SAHXZ 0000000180008490 f i game_layer.obj
 0001:000074a0       ?eq_int_type@?$_Narrow_char_traits@DH@std@@SA_NAEBH0@Z 00000001800084a0 f i game_layer.obj
 0001:000074b0       ?equivalent@error_category@std@@UEBA_NAEBVerror_code@2@H@Z 00000001800084b0 f i game_layer.obj
 0001:000074d0       ?equivalent@error_category@std@@UEBA_NHAEBVerror_condition@2@@Z 00000001800084d0 f i game_layer.obj
 0001:00007510       ?flush@?$basic_ostream@DU?$char_traits@D@std@@@std@@QEAAAEAV12@XZ 0000000180008510 f i game_layer.obj
 0001:00007600       ?insert@?$basic_string@DU?$char_traits@D@std@@V?$allocator@D@2@@std@@QEAAAEAV12@_KQEBD0@Z 0000000180008600 f i game_layer.obj
 0001:000077e0       ?make_error_code@std@@YA?AVerror_code@1@W4io_errc@1@@Z 00000001800087e0 f i game_layer.obj
 0001:00007800       ?max_size@?$basic_string@DU?$char_traits@D@std@@V?$allocator@D@2@@std@@QEBA_KXZ 0000000180008800 f i game_layer.obj
 0001:00007810       ?message@_Iostream_error_category2@std@@UEBA?AV?$basic_string@DU?$char_traits@D@std@@V?$allocator@D@2@@2@H@Z 0000000180008810 f i game_layer.obj
 0001:00007870       ?name@_Iostream_error_category2@std@@UEBAPEBDXZ 0000000180008870 f i game_layer.obj
 0001:00007880       ?put@?$basic_ostream@DU?$char_traits@D@std@@@std@@QEAAAEAV12@D@Z 0000000180008880 f i game_layer.obj
 0001:00007a30       ?release@?$unique_ptr@V_Facet_base@std@@U?$default_delete@V_Facet_base@std@@@2@@std@@QEAAPEAV_Facet_base@2@XZ 0000000180008a30 f i game_layer.obj
 0001:00007a40       ?setstate@?$basic_ios@DU?$char_traits@D@std@@@std@@QEAAXH_N@Z 0000000180008a40 f i game_layer.obj
 0001:00007a60       ?size@?$basic_string@DU?$char_traits@D@std@@V?$allocator@D@2@@std@@QEBA_KXZ 0000000180008a60 f i game_layer.obj
 0001:00007a70       ?to_int_type@?$_Narrow_char_traits@DH@std@@SAHAEBD@Z 0000000180008a70 f i game_layer.obj
 0001:00007a80       ?to_string@std@@YA?AV?$basic_string@DU?$char_traits@D@std@@V?$allocator@D@2@@1@I@Z 0000000180008a80 f i game_layer.obj
 0001:00007ba0       ?what@exception@std@@UEBAPEBDXZ 0000000180008ba0 f i game_layer.obj
 0001:00007bc0       ?widen@?$basic_ios@DU?$char_traits@D@std@@@std@@QEBADD@Z 0000000180008bc0 f i game_layer.obj
 0001:00007c50       LoadResources              0000000180008c50 f   game_layer.obj
 0001:00007ff0       SetupWindows               0000000180008ff0 f   game_layer.obj
 0001:00008050       UpdateAndRender            0000000180009050 f   game_layer.obj
 0001:00009df0       __local_stdio_printf_options 000000018000adf0 f i game_layer.obj
 0001:00009e00       _scprintf                  000000018000ae00 f i game_layer.obj
 0001:00009e60       sprintf                    000000018000ae60 f i game_layer.obj
 0001:00009ec0       sprintf_s                  000000018000aec0 f i game_layer.obj
 0001:00009f17       GetMouseWheelMove          000000018000af17 f   raylib:raylib.dll
 0001:00009f1d       rlPushMatrix               000000018000af1d f   raylib:raylib.dll
 0001:00009f23       rlPopMatrix                000000018000af23 f   raylib:raylib.dll
 0001:00009f29       rlTranslatef               000000018000af29 f   raylib:raylib.dll
 0001:00009f2f       rlRotatef                  000000018000af2f f   raylib:raylib.dll
 0001:00009f35       rlScalef                   000000018000af35 f   raylib:raylib.dll
 0001:00009f40       ??0_Init_locks@std@@QEAA@XZ 000000018000af40 f   libcpmtd:xlock.obj
 0001:00009fd0       ??0_Lockit@std@@QEAA@H@Z   000000018000afd0 f   libcpmtd:xlock.obj
 0001:0000a030       ??1_Init_locks@std@@QEAA@XZ 000000018000b030 f   libcpmtd:xlock.obj
 0001:0000a0b0       ??1_Lockit@std@@QEAA@XZ    000000018000b0b0 f   libcpmtd:xlock.obj
 0001:0000a100       ??0bad_alloc@std@@QEAA@XZ  000000018000b100 f i libcpmtd:xthrow.obj
 0001:0000a140       ??0length_error@std@@QEAA@AEBV01@@Z 000000018000b140 f i libcpmtd:xthrow.obj
 0001:0000a180       ??0length_error@std@@QEAA@PEBD@Z 000000018000b180 f i libcpmtd:xthrow.obj
 0001:0000a1c0       ??0logic_error@std@@QEAA@AEBV01@@Z 000000018000b1c0 f i libcpmtd:xthrow.obj
 0001:0000a200       ??0logic_error@std@@QEAA@PEBD@Z 000000018000b200 f i libcpmtd:xthrow.obj
 0001:0000a240       ??0out_of_range@std@@QEAA@AEBV01@@Z 000000018000b240 f i libcpmtd:xthrow.obj
 0001:0000a280       ??0out_of_range@std@@QEAA@PEBD@Z 000000018000b280 f i libcpmtd:xthrow.obj
 0001:0000a2c0       ??0runtime_error@std@@QEAA@PEBD@Z 000000018000b2c0 f i libcpmtd:xthrow.obj
 0001:0000a300       ??1out_of_range@std@@UEAA@XZ 000000018000b300 f i libcpmtd:xthrow.obj
 0001:0000a300       ??1length_error@std@@UEAA@XZ 000000018000b300 f i libcpmtd:xthrow.obj
 0001:0000a320       ??1bad_exception@std@@UEAA@XZ 000000018000b320 f i libvcruntimed:frame.obj
 0001:0000a320       ??1logic_error@std@@UEAA@XZ 000000018000b320 f i libcpmtd:xthrow.obj
 0001:0000a340       ??_Elength_error@std@@UEAAPEAXI@Z 000000018000b340 f i libcpmtd:xthrow.obj
 0001:0000a340       ??_Glength_error@std@@UEAAPEAXI@Z 000000018000b340 f i libcpmtd:xthrow.obj
 0001:0000a340       ??_Eout_of_range@std@@UEAAPEAXI@Z 000000018000b340 f i libcpmtd:xthrow.obj
 0001:0000a340       ??_Gout_of_range@std@@UEAAPEAXI@Z 000000018000b340 f i libcpmtd:xthrow.obj
 0001:0000a380       ??_Gbad_exception@std@@UEAAPEAXI@Z 000000018000b380 f i libvcruntimed:frame.obj
 0001:0000a380       ??_Elogic_error@std@@UEAAPEAXI@Z 000000018000b380 f i libcpmtd:xthrow.obj
 0001:0000a380       ??_Ebad_exception@std@@UEAAPEAXI@Z 000000018000b380 f i libvcruntimed:frame.obj
 0001:0000a380       ??_Glogic_error@std@@UEAAPEAXI@Z 000000018000b380 f i libcpmtd:xthrow.obj
 0001:0000a3c0       ?__scrt_throw_std_bad_alloc@@YAXXZ 000000018000b3c0 f   LIBCMTD:throw_bad_alloc.obj
 0001:0000a3c0       ?_Xbad_alloc@std@@YAXXZ    000000018000b3c0 f   libcpmtd:xthrow.obj
 0001:0000a3f0       ?_Xlength_error@std@@YAXPEBD@Z 000000018000b3f0 f   libcpmtd:xthrow.obj
 0001:0000a420       ?_Xout_of_range@std@@YAXPEBD@Z 000000018000b420 f   libcpmtd:xthrow.obj
 0001:0000a450       ?_Xruntime_error@std@@YAXPEBD@Z 000000018000b450 f   libcpmtd:xthrow.obj
 0001:0000a480       ?uncaught_exception@std@@YA_NXZ 000000018000b480 f   libcpmtd:uncaught_exception.obj
 0001:0000a490       ?_Syserror_map@std@@YAPEBDH@Z 000000018000b490 f   libcpmtd:syserror.obj
 0001:0000a510       ??0?$_Yarn@D@std@@QEAA@PEBD@Z 000000018000b510 f i libcpmtd:locale0.obj
 0001:0000a550       ??0_Fac_node@std@@QEAA@PEAU01@PEAV_Facet_base@1@@Z 000000018000b550 f i libcpmtd:locale0.obj
 0001:0000a550       ??0iterator@UWMap4@FH4@@QEAA@AEAV12@PEAE@Z 000000018000b550 f i libvcruntimed:frame.obj
 0001:0000a550       ??0TryBlockMap@__FrameHandler3@@QEAA@PEBU_s_FuncInfo@@_K@Z 000000018000b550 f i libvcruntimed:frame.obj
 0001:0000a580       ??0_Locimp@locale@std@@AEAA@_N@Z 000000018000b580 f i libcpmtd:locale0.obj
 0001:0000a610       ??0locale@std@@AEAA@PEAV_Locimp@01@@Z 000000018000b610 f i libcpmtd:locale0.obj
 0001:0000a630       ??0locale@std@@QEAA@W4_Uninitialized@1@@Z 000000018000b630 f i libcpmtd:locale0.obj
 0001:0000a640       ??1_Fac_node@std@@QEAA@XZ  000000018000b640 f i libcpmtd:locale0.obj
 0001:0000a6d0       ??1_Fac_tidy_reg_t@std@@QEAA@XZ 000000018000b6d0 f i libcpmtd:locale0.obj
 0001:0000a740       ??1_Locimp@locale@std@@MEAA@XZ 000000018000b740 f i libcpmtd:locale0.obj
 0001:0000a790       ??2_Fac_node@std@@SAPEAX_K@Z 000000018000b790 f i libcpmtd:locale0.obj
 0001:0000a7f0       ??3_Fac_node@std@@SAXPEAX@Z 000000018000b7f0 f i libcpmtd:locale0.obj
 0001:0000a810       ??4?$_Yarn@D@std@@QEAAAEAV01@PEBD@Z 000000018000b810 f i libcpmtd:locale0.obj
 0001:0000a8e0       ??_G_Fac_node@std@@QEAAPEAXI@Z 000000018000b8e0 f i libcpmtd:locale0.obj
 0001:0000a940       ??_G_Locimp@locale@std@@MEAAPEAXI@Z 000000018000b940 f i libcpmtd:locale0.obj
 0001:0000a940       ??_E_Locimp@locale@std@@MEAAPEAXI@Z 000000018000b940 f i libcpmtd:locale0.obj
 0001:0000a9a0       ?_C_str@?$_Yarn@D@std@@QEBAPEBDXZ 000000018000b9a0 f i libcpmtd:locale0.obj
 0001:0000a9e0       ?_Empty@?$_Yarn@D@std@@QEBA_NXZ 000000018000b9e0 f i libcpmtd:locale0.obj
 0001:0000aa10       ?_Facet_Register@std@@YAXPEAV_Facet_base@1@@Z 000000018000ba10 f   libcpmtd:locale0.obj
 0001:0000aa80       ?_Getgloballocale@locale@std@@CAPEAV_Locimp@12@XZ 000000018000ba80 f   libcpmtd:locale0.obj
 0001:0000aa90       ?_Init@locale@std@@CAPEAV_Locimp@12@_N@Z 000000018000ba90 f   libcpmtd:locale0.obj
 0001:0000aba0       ?_Locimp_dtor@_Locimp@locale@std@@CAXPEAV123@@Z 000000018000bba0 f   libcpmtd:locale0.obj
 0001:0000aca0       ?_Locinfo_ctor@_Locinfo@std@@SAXPEAV12@PEBD@Z 000000018000bca0 f   libcpmtd:locale0.obj
 0001:0000ad50       ?_Locinfo_dtor@_Locinfo@std@@SAXPEAV12@@Z 000000018000bd50 f   libcpmtd:locale0.obj
 0001:0000ada0       ?_New_Locimp@_Locimp@locale@std@@CAPEAV123@_N@Z 000000018000bda0 f   libcpmtd:locale0.obj
 0001:0000ae00       ?_Setgloballocale@locale@std@@CAXPEAX@Z 000000018000be00 f   libcpmtd:locale0.obj
 0001:0000ae40       _Deletegloballocale        000000018000be40 f   libcpmtd:locale0.obj
 0001:0000af10       _Getctype                  000000018000bf10 f   libcpmtd:_tolower.obj
 0001:0000aff0       _Tolower                   000000018000bff0 f   libcpmtd:_tolower.obj
 0001:0000b290       _Toupper                   000000018000c290 f   libcpmtd:_toupper.obj
 0001:0000b530       ?_Random_device@std@@YAIXZ 000000018000c530 f   libcpmtd:xrngdev.obj
 0001:0000b560       ??$_Fgetc@D@std@@YA_NAEADPEAU_iobuf@@@Z 000000018000c560 f i libcpmtd:cout.obj
 0001:0000b5a0       ??$_Fputc@D@std@@YA_NDPEAU_iobuf@@@Z 000000018000c5a0 f i libcpmtd:cout.obj
 0001:0000b5e0       ??$_Reallocate_grow_by@V<lambda_1>@?1??push_back@?$basic_string@DU?$char_traits@D@std@@V?$allocator@D@2@@std@@QEAAXD@Z@D@?$basic_string@DU?$char_traits@D@std@@V?$allocator@D@2@@std@@AEAAAEAV01@_KV<lambda_1>@?1??push_back@01@QEAAXD@Z@D@Z 000000018000c5e0 f i libcpmtd:cout.obj
 0001:0000b7d0       ??$_Ungetc@D@std@@YA_NAEBDPEAU_iobuf@@@Z 000000018000c7d0 f i libcpmtd:cout.obj
 0001:0000b820       ?dangerous_get_state_array@?$dual_state_global@P6AXPEB_W00I_K@Z@__crt_state_management@@QEAAPEAP6AXPEB_W00I_K@ZXZ 000000018000c820 f i libucrtd:invalid_parameter.obj
 0001:0000b820       ??$forward@AEAViterator@TryBlockMap4@FH4@@@std@@YAAEAViterator@TryBlockMap4@FH4@@AEAV123@@Z 000000018000c820 f i libvcruntimed:risctrnsctrl.obj
 0001:0000b820       ?dangerous_get_state_array@?$dual_state_global@PEAPEA_W@__crt_state_management@@QEAAPEAPEAPEA_WXZ 000000018000c820 f i libucrtd:timeset.obj
 0001:0000b820       ?get_address_of@?$__crt_unique_handle_t@U__crt_hmodule_traits@@@@QEAAPEAPEAUHINSTANCE__@@XZ 000000018000c820 f i libucrtd:exit.obj
 0001:0000b820       ?dangerous_get_state_array@?$dual_state_global@PEAPEAD@__crt_state_management@@QEAAPEAPEAPEADXZ 000000018000c820 f i libucrtd:timeset.obj
 0001:0000b820       ?dangerous_get_state_array@?$dual_state_global@PEAU__crt_locale_data@@@__crt_state_management@@QEAAPEAPEAU__crt_locale_data@@XZ 000000018000c820 f i libucrtd:per_thread_data.obj
 0001:0000b820       ?dangerous_get_state_array@?$dual_state_global@PEAU__crt_multibyte_data@@@__crt_state_management@@QEAAPEAPEAU__crt_multibyte_data@@XZ 000000018000c820 f i libucrtd:mbctype.obj
 0001:0000b820       ??$addressof@$$CBV?$codecvt@DDU_Mbstatet@@@std@@@std@@YAPEBV?$codecvt@DDU_Mbstatet@@@0@AEBV10@@Z 000000018000c820 f i libcpmtd:cout.obj
 0001:0000b820       ??$forward@AEAViterator@TryBlockMap@__FrameHandler3@@@std@@YAAEAViterator@TryBlockMap@__FrameHandler3@@AEAV123@@Z 000000018000c820 f i libvcruntimed:risctrnsctrl.obj
 0001:0000b820       ?dangerous_get_state_array@?$dual_state_global@PEAE@__crt_state_management@@QEAAPEAPEAEXZ 000000018000c820 f i libucrtd:mbctype.obj
 0001:0000b820       ?debug_info@?$__crt_win32_buffer@DU__crt_win32_buffer_no_resizing@@@@QEBAAEBV__crt_win32_buffer_empty_debug_info@@XZ 000000018000c820 f i libucrtd:strftime.obj
 0001:0000b820       ?get_address_of@?$__crt_unique_heap_ptr@PEADU__crt_internal_free_policy@@@@QEAAPEAPEAPEADXZ 000000018000c820 f i libucrtd:argv_parsing.obj
 0001:0000b820       ?debug_info@?$__crt_win32_buffer@DU__crt_win32_buffer_internal_dynamic_resizing@@@@QEBAAEBV__crt_win32_buffer_empty_debug_info@@XZ 000000018000c820 f i libucrtd:argv_wildcards.obj
 0001:0000b820       ?debug_info@?$__crt_win32_buffer@_WU__crt_win32_buffer_internal_dynamic_resizing@@@@QEBAAEBV__crt_win32_buffer_empty_debug_info@@XZ 000000018000c820 f i libucrtd:strftime.obj
 0001:0000b830       ??$min@_J@std@@YAAEB_JAEB_J0@Z 000000018000c830 f i libcpmtd:cout.obj
 0001:0000b880       ??$use_facet@V?$codecvt@DDU_Mbstatet@@@std@@@std@@YAAEBV?$codecvt@DDU_Mbstatet@@@0@AEBVlocale@0@@Z 000000018000c880 f i libcpmtd:cout.obj
 0001:0000b9a0       ??0?$basic_filebuf@DU?$char_traits@D@std@@@std@@QEAA@QEAU_iobuf@@@Z 000000018000c9a0 f i libcpmtd:cout.obj
 0001:0000b9f0       ??0?$basic_ios@DU?$char_traits@D@std@@@std@@IEAA@XZ 000000018000c9f0 f i libcpmtd:cout.obj
 0001:0000ba20       ??0?$basic_ostream@DU?$char_traits@D@std@@@std@@QEAA@PEAV?$basic_streambuf@DU?$char_traits@D@std@@@1@_N@Z 000000018000ca20 f i libcpmtd:cout.obj
 0001:0000baf0       ??0?$basic_streambuf@DU?$char_traits@D@std@@@std@@IEAA@XZ 000000018000caf0 f i libcpmtd:cout.obj
 0001:0000bb60       ??0?$basic_string@DU?$char_traits@D@std@@V?$allocator@D@2@@std@@QEAA@XZ 000000018000cb60 f i libcpmtd:cout.obj
 0001:0000bbd0       ??0?$codecvt@DDU_Mbstatet@@@std@@QEAA@AEBV_Locinfo@1@_K@Z 000000018000cbd0 f i libcpmtd:cout.obj
 0001:0000bc20       ??0?$fpos@U_Mbstatet@@@std@@QEAA@U_Mbstatet@@_J@Z 000000018000cc20 f i libcpmtd:cout.obj
 0001:0000bc60       ??0?$fpos@U_Mbstatet@@@std@@QEAA@_J@Z 000000018000cc60 f i libcpmtd:cout.obj
 0001:0000bcb0       ??0_Init_cout@std@@QEAA@XZ 000000018000ccb0 f i libcpmtd:cout.obj
 0001:0000bd90       ??0codecvt_base@std@@QEAA@_K@Z 000000018000cd90 f i libcpmtd:cout.obj
 0001:0000bdd0       ??0ios_base@std@@IEAA@XZ   000000018000cdd0 f i libcpmtd:cout.obj
 0001:0000be20       ??0locale@std@@QEAA@XZ     000000018000ce20 f i libcpmtd:cout.obj
 0001:0000be50       ??1?$basic_filebuf@DU?$char_traits@D@std@@@std@@UEAA@XZ 000000018000ce50 f i libcpmtd:cout.obj
 0001:0000beb0       ??1?$basic_ios@DU?$char_traits@D@std@@@std@@UEAA@XZ 000000018000ceb0 f i libcpmtd:cout.obj
 0001:0000bee0       ??1?$basic_ostream@DU?$char_traits@D@std@@@std@@UEAA@XZ 000000018000cee0 f i libcpmtd:cout.obj
 0001:0000bf30       ??1?$basic_streambuf@DU?$char_traits@D@std@@@std@@UEAA@XZ 000000018000cf30 f i libcpmtd:cout.obj
 0001:0000bf90       ??1?$codecvt@DDU_Mbstatet@@@std@@MEAA@XZ 000000018000cf90 f i libcpmtd:cout.obj
 0001:0000bfc0       ??1codecvt_base@std@@UEAA@XZ 000000018000cfc0 f i libcpmtd:cout.obj
 0001:0000bff0       ??1ios_base@std@@UEAA@XZ   000000018000cff0 f i libcpmtd:cout.obj
 0001:0000c020       ??B?$fpos@U_Mbstatet@@@std@@QEBA_JXZ 000000018000d020 f i libcpmtd:cout.obj
 0001:0000c040       ??R<lambda_1>@?1??push_back@?$basic_string@DU?$char_traits@D@std@@V?$allocator@D@2@@std@@QEAAXD@Z@QEBA@QEADQEBD_KD@Z 000000018000d040 f i libcpmtd:cout.obj
 0001:0000c0b0       ??_D?$basic_ostream@DU?$char_traits@D@std@@@std@@QEAAXXZ 000000018000d0b0 f i libcpmtd:cout.obj
 0001:0000c0e0       ??_E?$basic_ostream@DU?$char_traits@D@std@@@std@@$4PPPPPPPM@A@EAAPEAXI@Z 000000018000d0e0 f i libcpmtd:cout.obj
 0001:0000c0f0       ??_G?$basic_filebuf@DU?$char_traits@D@std@@@std@@UEAAPEAXI@Z 000000018000d0f0 f i libcpmtd:cout.obj
 0001:0000c0f0       ??_E?$basic_filebuf@DU?$char_traits@D@std@@@std@@UEAAPEAXI@Z 000000018000d0f0 f i libcpmtd:cout.obj
 0001:0000c130       ??_E?$basic_ios@DU?$char_traits@D@std@@@std@@UEAAPEAXI@Z 000000018000d130 f i libcpmtd:cout.obj
 0001:0000c130       ??_G?$basic_ios@DU?$char_traits@D@std@@@std@@UEAAPEAXI@Z 000000018000d130 f i libcpmtd:cout.obj
 0001:0000c170       ??_G?$basic_ostream@DU?$char_traits@D@std@@@std@@UEAAPEAXI@Z 000000018000d170 f i libcpmtd:cout.obj
 0001:0000c170       ??_E?$basic_ostream@DU?$char_traits@D@std@@@std@@UEAAPEAXI@Z 000000018000d170 f i libcpmtd:cout.obj
 0001:0000c1c0       ??_E?$basic_streambuf@DU?$char_traits@D@std@@@std@@UEAAPEAXI@Z 000000018000d1c0 f i libcpmtd:cout.obj
 0001:0000c1c0       ??_G?$basic_streambuf@DU?$char_traits@D@std@@@std@@UEAAPEAXI@Z 000000018000d1c0 f i libcpmtd:cout.obj
 0001:0000c200       ??_G?$codecvt@DDU_Mbstatet@@@std@@MEAAPEAXI@Z 000000018000d200 f i libcpmtd:cout.obj
 0001:0000c200       ??_E?$codecvt@DDU_Mbstatet@@@std@@MEAAPEAXI@Z 000000018000d200 f i libcpmtd:cout.obj
 0001:0000c260       ??_Ecodecvt_base@std@@UEAAPEAXI@Z 000000018000d260 f i libcpmtd:cout.obj
 0001:0000c260       ??_Gcodecvt_base@std@@UEAAPEAXI@Z 000000018000d260 f i libcpmtd:cout.obj
 0001:0000c2c0       ??_Eios_base@std@@UEAAPEAXI@Z 000000018000d2c0 f i libcpmtd:cout.obj
 0001:0000c2c0       ??_Gios_base@std@@UEAAPEAXI@Z 000000018000d2c0 f i libcpmtd:cout.obj
 0001:0000c300       ??_Glocale@std@@QEAAPEAXI@Z 000000018000d300 f i libcpmtd:cout.obj
 0001:0000c360       ?_Clamp_suffix_size@?$_String_val@U?$_Simple_types@D@std@@@std@@QEBA_K_K0@Z 000000018000d360 f i libcpmtd:cout.obj
 0001:0000c3a0       ?_Endwrite@?$basic_filebuf@DU?$char_traits@D@std@@@std@@IEAA_NXZ 000000018000d3a0 f i libcpmtd:cout.obj
 0001:0000c570       ?_Erase_noexcept@?$basic_string@DU?$char_traits@D@std@@V?$allocator@D@2@@std@@AEAAAEAV12@_K_K@Z 000000018000d570 f i libcpmtd:cout.obj
 0001:0000c640       ?_Getcat@?$codecvt@DDU_Mbstatet@@@std@@SA_KPEAPEBVfacet@locale@2@PEBV42@@Z 000000018000d640 f i libcpmtd:cout.obj
 0001:0000c740       ?_Gnavail@?$basic_streambuf@DU?$char_traits@D@std@@@std@@IEBA_JXZ 000000018000d740 f i libcpmtd:cout.obj
 0001:0000c780       ?_Gndec@?$basic_streambuf@DU?$char_traits@D@std@@@std@@IEAAPEADXZ 000000018000d780 f i libcpmtd:cout.obj
 0001:0000c7d0       ?_Gninc@?$basic_streambuf@DU?$char_traits@D@std@@@std@@IEAAPEADXZ 000000018000d7d0 f i libcpmtd:cout.obj
 0001:0000c830       ?_Init@?$basic_filebuf@DU?$char_traits@D@std@@@std@@IEAAXPEAU_iobuf@@W4_Initfl@12@@Z 000000018000d830 f i libcpmtd:cout.obj
 0001:0000c960       ?_Init@?$basic_streambuf@DU?$char_traits@D@std@@@std@@IEAAXPEAPEAD0PEAH001@Z 000000018000d960 f i libcpmtd:cout.obj
 0001:0000c9d0       ?_Init@?$basic_streambuf@DU?$char_traits@D@std@@@std@@IEAAXXZ 000000018000d9d0 f i libcpmtd:cout.obj
 0001:0000ca70       ?_Init@?$codecvt@DDU_Mbstatet@@@std@@IEAAXAEBV_Locinfo@2@@Z 000000018000da70 f i libcpmtd:cout.obj
 0001:0000ca70       ?imbue@?$basic_streambuf@DU?$char_traits@D@std@@@std@@MEAAXAEBVlocale@2@@Z 000000018000da70 f i libcpmtd:cout.obj
 0001:0000ca70       ?deallocate@__crt_win32_buffer_no_resizing@@SAXQEAXAEBV__crt_win32_buffer_empty_debug_info@@@Z 000000018000da70 f i libucrtd:strftime.obj
 0001:0000ca80       ?_Init@ios_base@std@@IEAAXXZ 000000018000da80 f i libcpmtd:cout.obj
 0001:0000cb40       ?_Initcvt@?$basic_filebuf@DU?$char_traits@D@std@@@std@@IEAAXAEBV?$codecvt@DDU_Mbstatet@@@2@@Z 000000018000db40 f i libcpmtd:cout.obj
 0001:0000cb90       ?_Lock@?$basic_filebuf@DU?$char_traits@D@std@@@std@@UEAAXXZ 000000018000db90 f i libcpmtd:cout.obj
 0001:0000cbc0       ?_Unlock@?$basic_streambuf@DU?$char_traits@D@std@@@std@@UEAAXXZ 000000018000dbc0 f i libcpmtd:cout.obj
 0001:0000cbc0       ??1?$__crt_simd_cleanup_guard@$0A@@@QEAA@XZ 000000018000dbc0 f i libucrtd:strnlen.obj
 0001:0000cbc0       ?_Lock@?$basic_streambuf@DU?$char_traits@D@std@@@std@@UEAAXXZ 000000018000dbc0 f i libcpmtd:cout.obj
 0001:0000cbc0       ??1scoped_global_state_reset@__crt_state_management@@QEAA@XZ 000000018000dbc0 f i libucrtd:onexit.obj
 0001:0000cbc0       _guard_check_icall_nop     000000018000dbc0 f i LIBCMTD:guard_support.obj
 0001:0000cbd0       ?_Reset_back@?$basic_filebuf@DU?$char_traits@D@std@@@std@@AEAAXXZ 000000018000dbd0 f i libcpmtd:cout.obj
 0001:0000cc30       ?_Set_back@?$basic_filebuf@DU?$char_traits@D@std@@@std@@AEAAXXZ 000000018000dc30 f i libcpmtd:cout.obj
 0001:0000ccb0       ?_Unlock@?$basic_filebuf@DU?$char_traits@D@std@@@std@@UEAAXXZ 000000018000dcb0 f i libcpmtd:cout.obj
 0001:0000cce0       ?always_noconv@codecvt_base@std@@QEBA_NXZ 000000018000dce0 f i libcpmtd:cout.obj
 0001:0000cd10       ?clear@ios_base@std@@QEAAXH@Z 000000018000dd10 f i libcpmtd:cout.obj
 0001:0000cd40       ?close@?$basic_filebuf@DU?$char_traits@D@std@@@std@@QEAAPEAV12@XZ 000000018000dd40 f i libcpmtd:cout.obj
 0001:0000cdd0       ?data@?$basic_string@DU?$char_traits@D@std@@V?$allocator@D@2@@std@@QEAAPEADXZ 000000018000ddd0 f i libcpmtd:cout.obj
 0001:0000cdf0       ?should_format@?$standard_base@DV?$string_output_adapter@D@__crt_stdio_output@@@__crt_stdio_output@@IEAA_NXZ 000000018000ddf0 f i libucrtd:output.obj
 0001:0000cdf0       ?validate_stream_is_ansi_if_required@?$__acrt_stdio_char_traits@_W@@SA_NQEAU_iobuf@@@Z 000000018000ddf0 f i libucrtd:output.obj
 0001:0000cdf0       ?validate_state_for_type_case_a@?$standard_base@DV?$string_output_adapter@D@__crt_stdio_output@@@__crt_stdio_output@@IEBA_NXZ 000000018000ddf0 f i libucrtd:output.obj
 0001:0000cdf0       ?validate_and_update_state_at_beginning_of_format_character@?$standard_base@_WV?$string_output_adapter@_W@__crt_stdio_output@@@__crt_stdio_output@@IEAA_NXZ 000000018000ddf0 f i libucrtd:output.obj
 0001:0000cdf0       ?do_always_noconv@?$codecvt@DDU_Mbstatet@@@std@@MEBA_NXZ 000000018000ddf0 f i libcpmtd:cout.obj
 0001:0000cdf0       ?should_format@?$standard_base@_WV?$string_output_adapter@_W@__crt_stdio_output@@@__crt_stdio_output@@IEAA_NXZ 000000018000ddf0 f i libucrtd:output.obj
 0001:0000cdf0       ?validate_and_update_state_at_end_of_format_string@?$standard_base@_WV?$string_output_adapter@_W@__crt_stdio_output@@@__crt_stdio_output@@IEBA_NXZ 000000018000ddf0 f i libucrtd:output.obj
 0001:0000cdf0       ?validate_and_update_state_at_beginning_of_format_character@?$standard_base@_WV?$stream_output_adapter@_W@__crt_stdio_output@@@__crt_stdio_output@@IEAA_NXZ 000000018000ddf0 f i libucrtd:output.obj
 0001:0000cdf0       ?validate_state_for_type_case_a@?$standard_base@_WV?$string_output_adapter@_W@__crt_stdio_output@@@__crt_stdio_output@@IEBA_NXZ 000000018000ddf0 f i libucrtd:output.obj
 0001:0000cdf0       ?validate_and_update_state_at_beginning_of_format_character@?$standard_base@DV?$string_output_adapter@D@__crt_stdio_output@@@__crt_stdio_output@@IEAA_NXZ 000000018000ddf0 f i libucrtd:output.obj
 0001:0000cdf0       ?validate_and_update_state_at_end_of_format_string@?$standard_base@_WV?$stream_output_adapter@_W@__crt_stdio_output@@@__crt_stdio_output@@IEBA_NXZ 000000018000ddf0 f i libucrtd:output.obj
 0001:0000cdf0       ?should_format@?$standard_base@_WV?$stream_output_adapter@_W@__crt_stdio_output@@@__crt_stdio_output@@IEAA_NXZ 000000018000ddf0 f i libucrtd:output.obj
 0001:0000cdf0       ?validate_and_update_state_at_end_of_format_string@?$standard_base@DV?$string_output_adapter@D@__crt_stdio_output@@@__crt_stdio_output@@IEBA_NXZ 000000018000ddf0 f i libucrtd:output.obj
 0001:0000cdf0       ?validate_state_for_type_case_a@?$standard_base@_WV?$stream_output_adapter@_W@__crt_stdio_output@@@__crt_stdio_output@@IEBA_NXZ 000000018000ddf0 f i libucrtd:output.obj
 0001:0000ce00       ?should_skip_normal_state_processing@?$standard_base@_WV?$string_output_adapter@_W@__crt_stdio_output@@@__crt_stdio_output@@IEAA_NXZ 000000018000de00 f i libucrtd:output.obj
 0001:0000ce00       ?should_skip_type_state_output@?$standard_base@_WV?$string_output_adapter@_W@__crt_stdio_output@@@__crt_stdio_output@@IEBA_NXZ 000000018000de00 f i libucrtd:output.obj
 0001:0000ce00       ?should_skip_type_state_output@?$standard_base@_WV?$stream_output_adapter@_W@__crt_stdio_output@@@__crt_stdio_output@@IEBA_NXZ 000000018000de00 f i libucrtd:output.obj
 0001:0000ce00       ?should_skip_type_state_output@?$standard_base@DV?$string_output_adapter@D@__crt_stdio_output@@@__crt_stdio_output@@IEBA_NXZ 000000018000de00 f i libucrtd:output.obj
 0001:0000ce00       ?should_skip_normal_state_processing@?$standard_base@_WV?$stream_output_adapter@_W@__crt_stdio_output@@@__crt_stdio_output@@IEAA_NXZ 000000018000de00 f i libucrtd:output.obj
 0001:0000ce00       ?do_always_noconv@codecvt_base@std@@MEBA_NXZ 000000018000de00 f i libcpmtd:cout.obj
 0001:0000ce00       ?should_skip_normal_state_processing@?$standard_base@DV?$string_output_adapter@D@__crt_stdio_output@@@__crt_stdio_output@@IEAA_NXZ 000000018000de00 f i libucrtd:output.obj
 0001:0000ce10       ?do_max_length@codecvt_base@std@@MEBAHXZ 000000018000de10 f i libcpmtd:cout.obj
 0001:0000ce10       ?do_encoding@codecvt_base@std@@MEBAHXZ 000000018000de10 f i libcpmtd:cout.obj
 0001:0000ce20       ?do_in@?$codecvt@DDU_Mbstatet@@@std@@MEBAHAEAU_Mbstatet@@PEBD1AEAPEBDPEAD3AEAPEAD@Z 000000018000de20 f i libcpmtd:cout.obj
 0001:0000ce20       ?do_out@?$codecvt@DDU_Mbstatet@@@std@@MEBAHAEAU_Mbstatet@@PEBD1AEAPEBDPEAD3AEAPEAD@Z 000000018000de20 f i libcpmtd:cout.obj
 0001:0000ce60       ?do_length@?$codecvt@DDU_Mbstatet@@@std@@MEBAHAEAU_Mbstatet@@PEBD1_K@Z 000000018000de60 f i libcpmtd:cout.obj
 0001:0000ced0       ?do_unshift@?$codecvt@DDU_Mbstatet@@@std@@MEBAHAEAU_Mbstatet@@PEAD1AEAPEAD@Z 000000018000ded0 f i libcpmtd:cout.obj
 0001:0000cf00       ?eback@?$basic_streambuf@DU?$char_traits@D@std@@@std@@IEBAPEADXZ 000000018000df00 f i libcpmtd:cout.obj
 0001:0000cf20       ?egptr@?$basic_streambuf@DU?$char_traits@D@std@@@std@@IEBAPEADXZ 000000018000df20 f i libcpmtd:cout.obj
 0001:0000cf50       ?epptr@?$basic_streambuf@DU?$char_traits@D@std@@@std@@IEBAPEADXZ 000000018000df50 f i libcpmtd:cout.obj
 0001:0000cf80       ?erase@?$basic_string@DU?$char_traits@D@std@@V?$allocator@D@2@@std@@QEAAAEAV12@_K0@Z 000000018000df80 f i libcpmtd:cout.obj
 0001:0000cfd0       ?front@?$basic_string@DU?$char_traits@D@std@@V?$allocator@D@2@@std@@QEAAAEADXZ 000000018000dfd0 f i libcpmtd:cout.obj
 0001:0000d080       ?gbump@?$basic_streambuf@DU?$char_traits@D@std@@@std@@IEAAXH@Z 000000018000e080 f i libcpmtd:cout.obj
 0001:0000d0d0       ?gptr@?$basic_streambuf@DU?$char_traits@D@std@@@std@@IEBAPEADXZ 000000018000e0d0 f i libcpmtd:cout.obj
 0001:0000d0f0       ?imbue@?$basic_filebuf@DU?$char_traits@D@std@@@std@@MEAAXAEBVlocale@2@@Z 000000018000e0f0 f i libcpmtd:cout.obj
 0001:0000d120       ?in@?$codecvt@DDU_Mbstatet@@@std@@QEBAHAEAU_Mbstatet@@PEBD1AEAPEBDPEAD3AEAPEAD@Z 000000018000e120 f i libcpmtd:cout.obj
 0001:0000d1c0       ?init@?$basic_ios@DU?$char_traits@D@std@@@std@@IEAAXPEAV?$basic_streambuf@DU?$char_traits@D@std@@@2@_N@Z 000000018000e1c0 f i libcpmtd:cout.obj
 0001:0000d250       ?is_constant_evaluated@std@@YA_NXZ 000000018000e250 f i libcpmtd:cout.obj
 0001:0000d260       ?not_eof@?$_Narrow_char_traits@DH@std@@SAHAEBH@Z 000000018000e260 f i libcpmtd:cout.obj
 0001:0000d2b0       ?out@?$codecvt@DDU_Mbstatet@@@std@@QEBAHAEAU_Mbstatet@@PEBD1AEAPEBDPEAD3AEAPEAD@Z 000000018000e2b0 f i libcpmtd:cout.obj
 0001:0000d350       ?overflow@?$basic_filebuf@DU?$char_traits@D@std@@@std@@MEAAHH@Z 000000018000e350 f i libcpmtd:cout.obj
 0001:0000d620       ?overflow@?$basic_streambuf@DU?$char_traits@D@std@@@std@@MEAAHH@Z 000000018000e620 f i libcpmtd:cout.obj
 0001:0000d620       ?pbackfail@?$basic_streambuf@DU?$char_traits@D@std@@@std@@MEAAHH@Z 000000018000e620 f i libcpmtd:cout.obj
 0001:0000d640       ?pbackfail@?$basic_filebuf@DU?$char_traits@D@std@@@std@@MEAAHH@Z 000000018000e640 f i libcpmtd:cout.obj
 0001:0000d7d0       ?pbump@?$basic_streambuf@DU?$char_traits@D@std@@@std@@IEAAXH@Z 000000018000e7d0 f i libcpmtd:cout.obj
 0001:0000d820       ?pptr@?$basic_streambuf@DU?$char_traits@D@std@@@std@@IEBAPEADXZ 000000018000e820 f i libcpmtd:cout.obj
 0001:0000d840       ?push_back@?$basic_string@DU?$char_traits@D@std@@V?$allocator@D@2@@std@@QEAAXD@Z 000000018000e840 f i libcpmtd:cout.obj
 0001:0000d8f0       ?seekoff@?$basic_filebuf@DU?$char_traits@D@std@@@std@@MEAA?AV?$fpos@U_Mbstatet@@@2@_JHH@Z 000000018000e8f0 f i libcpmtd:cout.obj
 0001:0000d9f0       ?seekoff@?$basic_streambuf@DU?$char_traits@D@std@@@std@@MEAA?AV?$fpos@U_Mbstatet@@@2@_JHH@Z 000000018000e9f0 f i libcpmtd:cout.obj
 0001:0000d9f0       ?seekpos@?$basic_streambuf@DU?$char_traits@D@std@@@std@@MEAA?AV?$fpos@U_Mbstatet@@@2@V32@H@Z 000000018000e9f0 f i libcpmtd:cout.obj
 0001:0000da30       ?seekpos@?$basic_filebuf@DU?$char_traits@D@std@@@std@@MEAA?AV?$fpos@U_Mbstatet@@@2@V32@H@Z 000000018000ea30 f i libcpmtd:cout.obj
 0001:0000daf0       ?setbuf@?$basic_filebuf@DU?$char_traits@D@std@@@std@@MEAAPEAV?$basic_streambuf@DU?$char_traits@D@std@@@2@PEAD_J@Z 000000018000eaf0 f i libcpmtd:cout.obj
 0001:0000db90       ?setbuf@?$basic_streambuf@DU?$char_traits@D@std@@@std@@MEAAPEAV12@PEAD_J@Z 000000018000eb90 f i libcpmtd:cout.obj
 0001:0000dbb0       ?setg@?$basic_streambuf@DU?$char_traits@D@std@@@std@@IEAAXPEAD00@Z 000000018000ebb0 f i libcpmtd:cout.obj
 0001:0000dc10       ?setp@?$basic_streambuf@DU?$char_traits@D@std@@@std@@IEAAXPEAD0@Z 000000018000ec10 f i libcpmtd:cout.obj
 0001:0000dc60       ?get_current_state_index@__crt_state_management@@YA_KAEBV__crt_scoped_get_last_error_reset@@@Z 000000018000ec60 f i libucrtd:per_thread_data.obj
 0001:0000dc60       ?getESTypes@__FrameHandler4@@SAPEBU_s_ESTypeList@@PEAUFuncInfo4@FH4@@@Z 000000018000ec60 f i libvcruntimed:frame.obj
 0001:0000dc60       ?sync@?$basic_streambuf@DU?$char_traits@D@std@@@std@@MEAAHXZ 000000018000ec60 f i libcpmtd:cout.obj
 0001:0000dc60       ?showmanyc@?$basic_streambuf@DU?$char_traits@D@std@@@std@@MEAA_JXZ 000000018000ec60 f i libcpmtd:cout.obj
 0001:0000dc70       ?state@?$fpos@U_Mbstatet@@@std@@QEBA?AU_Mbstatet@@XZ 000000018000ec70 f i libcpmtd:cout.obj
 0001:0000dca0       ?sync@?$basic_filebuf@DU?$char_traits@D@std@@@std@@MEAAHXZ 000000018000eca0 f i libcpmtd:cout.obj
 0001:0000dd40       ?tie@?$basic_ios@DU?$char_traits@D@std@@@std@@QEAAPEAV?$basic_ostream@DU?$char_traits@D@std@@@2@PEAV32@@Z 000000018000ed40 f i libcpmtd:cout.obj
 0001:0000dd80       ?to_char_type@?$_Narrow_char_traits@DH@std@@SADAEBH@Z 000000018000ed80 f i libcpmtd:cout.obj
 0001:0000dd90       ?uflow@?$basic_filebuf@DU?$char_traits@D@std@@@std@@MEAAHXZ 000000018000ed90 f i libcpmtd:cout.obj
 0001:0000e100       ?uflow@?$basic_streambuf@DU?$char_traits@D@std@@@std@@MEAAHXZ 000000018000f100 f i libcpmtd:cout.obj
 0001:0000e180       ?underflow@?$basic_filebuf@DU?$char_traits@D@std@@@std@@MEAAHXZ 000000018000f180 f i libcpmtd:cout.obj
 0001:0000e260       ?underflow@?$basic_streambuf@DU?$char_traits@D@std@@@std@@MEAAHXZ 000000018000f260 f i libcpmtd:cout.obj
 0001:0000e280       ?unshift@?$codecvt@DDU_Mbstatet@@@std@@QEBAHAEAU_Mbstatet@@PEAD1AEAPEAD@Z 000000018000f280 f i libcpmtd:cout.obj
 0001:0000e2f0       ?xsgetn@?$basic_filebuf@DU?$char_traits@D@std@@@std@@MEAA_JPEAD_J@Z 000000018000f2f0 f i libcpmtd:cout.obj
 0001:0000e4e0       ?xsgetn@?$basic_streambuf@DU?$char_traits@D@std@@@std@@MEAA_JPEAD_J@Z 000000018000f4e0 f i libcpmtd:cout.obj
 0001:0000e620       ?xsputn@?$basic_filebuf@DU?$char_traits@D@std@@@std@@MEAA_JPEBD_J@Z 000000018000f620 f i libcpmtd:cout.obj
 0001:0000e750       ?xsputn@?$basic_streambuf@DU?$char_traits@D@std@@@std@@MEAA_JPEBD_J@Z 000000018000f750 f i libcpmtd:cout.obj
 0001:0000e8a0       _Mtxdst                    000000018000f8a0 f   libcpmtd:xmtx.obj
 0001:0000e8c0       _Mtxinit                   000000018000f8c0 f   libcpmtd:xmtx.obj
 0001:0000e8f0       _Mtxlock                   000000018000f8f0 f   libcpmtd:xmtx.obj
 0001:0000e910       _Mtxunlock                 000000018000f910 f   libcpmtd:xmtx.obj
 0001:0000e930       ??1_Init_atexit@@QEAA@XZ   000000018000f930 f i libcpmtd:iosptrs.obj
 0001:0000e9a0       ?_Atexit@@YAXP6AXXZ@Z      000000018000f9a0 f   libcpmtd:iosptrs.obj
 0001:0000ea00       ??0?$__crt_unique_heap_ptr@P6AXXZU__crt_internal_free_policy@@@@QEAA@QEAP6AXXZ@Z 000000018000fa00 f i libucrtd:onexit.obj
 0001:0000ea00       ??0?$__crt_unique_heap_ptr@Ulconv@@U__crt_internal_free_policy@@@@QEAA@QEAUlconv@@@Z 000000018000fa00 f i libucrtd:initmon.obj
 0001:0000ea00       ??0?$__crt_unique_handle_t@U__crt_hmodule_traits@@@@QEAA@QEAUHINSTANCE__@@@Z 000000018000fa00 f i libucrtd:exit.obj
 0001:0000ea00       ??0?$__crt_unique_heap_ptr@U__crt_lc_time_data@@U__crt_internal_free_policy@@@@QEAA@QEAU__crt_lc_time_data@@@Z 000000018000fa00 f i libucrtd:inittime.obj
 0001:0000ea00       ??0?$__crt_unique_heap_ptr@U__crt_locale_data@@U__crt_internal_free_policy@@@@QEAA@QEAU__crt_locale_data@@@Z 000000018000fa00 f i libucrtd:wsetlocale.obj
 0001:0000ea00       ??0?$__crt_unique_heap_ptr@U__crt_multibyte_data@@U__crt_internal_free_policy@@@@QEAA@QEAU__crt_multibyte_data@@@Z 000000018000fa00 f i libucrtd:wsetlocale.obj
 0001:0000ea00       ??0?$__crt_unique_handle_t@U__crt_findfile_traits@@@@QEAA@QEAX@Z 000000018000fa00 f i libucrtd:argv_wildcards.obj
 0001:0000ea00       ??0?$__crt_unique_heap_ptr@_WU__crt_internal_free_policy@@@@QEAA@QEA_W@Z 000000018000fa00 f i libucrtd:setlocale.obj
 0001:0000ea00       ??0?$__crt_unique_heap_ptr@PEAU__crt_stdio_stream_data@@U__crt_internal_free_policy@@@@QEAA@QEAPEAU__crt_stdio_stream_data@@@Z 000000018000fa00 f i libucrtd:_file.obj
 0001:0000ea00       ??0?$__crt_unique_heap_ptr@EU__crt_internal_free_policy@@@@QEAA@QEAE@Z 000000018000fa00 f i libcpmtd:xwcsxfrm.obj
 0001:0000ea00       ??0?$__crt_unique_heap_ptr@U__acrt_ptd@@U__crt_internal_free_policy@@@@QEAA@QEAU__acrt_ptd@@@Z 000000018000fa00 f i libucrtd:per_thread_data.obj
 0001:0000ea00       ??0__crt_stdio_stream@@QEAA@QEAU_iobuf@@@Z 000000018000fa00 f i libucrtd:output.obj
 0001:0000ea00       ??0?$__crt_unique_heap_ptr@U__crt_lowio_handle_data@@U__crt_internal_free_policy@@@@QEAA@QEAU__crt_lowio_handle_data@@@Z 000000018000fa00 f i libucrtd:osfinfo.obj
 0001:0000ea00       ??0?$string_output_adapter@_W@__crt_stdio_output@@QEAA@QEAU?$string_output_adapter_context@_W@1@@Z 000000018000fa00 f i libucrtd:output.obj
 0001:0000ea00       ??0__crt_stdio_stream@@QEAA@QEAU__crt_stdio_stream_data@@@Z 000000018000fa00 f i libucrtd:fflush.obj
 0001:0000ea00       ??0?$__crt_unique_heap_ptr@DU__crt_internal_free_policy@@@@QEAA@QEAD@Z 000000018000fa00 f i libvcruntimed:std_type_info.obj
 0001:0000ea00       ??0?$__crt_scoped_stack_ptr_tag@_W@@QEAA@QEA_W@Z 000000018000fa00 f i libcpmtd:StlLCMapStringA.obj
 0001:0000ea00       ??0?$__crt_unique_heap_ptr@PEADU__crt_internal_free_policy@@@@QEAA@QEAPEAD@Z 000000018000fa00 f i libucrtd:argv_parsing.obj
 0001:0000ea00       ??0?$__crt_unique_heap_ptr@DU__crt_public_free_policy@@@@QEAA@QEAD@Z 000000018000fa00 f i libvcruntimed:std_exception.obj
 0001:0000ea00       ??0?$__crt_scoped_stack_ptr@_W@@QEAA@U?$__crt_scoped_stack_ptr_tag@_W@@@Z 000000018000fa00 f i libcpmtd:StlLCMapStringA.obj
 0001:0000ea00       ??0?$__crt_unique_heap_ptr@GU__crt_internal_free_policy@@@@QEAA@QEAG@Z 000000018000fa00 f i libucrtd:initctype.obj
 0001:0000ea00       ??0?$string_output_adapter@D@__crt_stdio_output@@QEAA@QEAU?$string_output_adapter_context@D@1@@Z 000000018000fa00 f i libucrtd:output.obj
 0001:0000ea00       ??0?$__crt_unique_heap_ptr@U__vcrt_ptd@@U__crt_internal_free_policy@@@@QEAA@QEAU__vcrt_ptd@@@Z 000000018000fa00 f i libvcruntimed:per_thread_data.obj
 0001:0000ea00       ??0?$__crt_unique_heap_ptr@JU__crt_internal_free_policy@@@@QEAA@QEAJ@Z 000000018000fa00 f i libucrtd:initctype.obj
 0001:0000ea20       ??1?$__crt_scoped_stack_ptr@_W@@QEAA@XZ 000000018000fa20 f i libcpmtd:StlLCMapStringA.obj
 0001:0000ea40       ?is_valid@?$__crt_unique_heap_ptr@U__crt_lc_time_data@@U__crt_internal_free_policy@@@@QEBA_NXZ 000000018000fa40 f i libucrtd:inittime.obj
 0001:0000ea40       ?valid@__crt_stdio_stream@@QEBA_NXZ 000000018000fa40 f i libucrtd:output.obj
 0001:0000ea40       ??B?$__crt_scoped_stack_ptr@_W@@QEBA_NXZ 000000018000fa40 f i libcpmtd:StlLCMapStringA.obj
 0001:0000ea40       ?is_valid@?$__crt_unique_heap_ptr@U__acrt_ptd@@U__crt_internal_free_policy@@@@QEBA_NXZ 000000018000fa40 f i libucrtd:per_thread_data.obj
 0001:0000ea40       ?is_valid@?$__crt_unique_heap_ptr@DU__crt_internal_free_policy@@@@QEBA_NXZ 000000018000fa40 f i libvcruntimed:std_type_info.obj
 0001:0000ea40       ?is_valid@?$__crt_unique_heap_ptr@U__crt_multibyte_data@@U__crt_internal_free_policy@@@@QEBA_NXZ 000000018000fa40 f i libucrtd:wsetlocale.obj
 0001:0000ea40       ?is_valid@?$__crt_unique_heap_ptr@U__crt_lowio_handle_data@@U__crt_internal_free_policy@@@@QEBA_NXZ 000000018000fa40 f i libucrtd:osfinfo.obj
 0001:0000ea40       ?is_valid@?$__crt_unique_heap_ptr@DU__crt_public_free_policy@@@@QEBA_NXZ 000000018000fa40 f i libvcruntimed:std_exception.obj
 0001:0000ea40       ?is_valid@?$__crt_unique_heap_ptr@U__vcrt_ptd@@U__crt_internal_free_policy@@@@QEBA_NXZ 000000018000fa40 f i libvcruntimed:per_thread_data.obj
 0001:0000ea40       ?is_valid@?$__crt_unique_heap_ptr@EU__crt_internal_free_policy@@@@QEBA_NXZ 000000018000fa40 f i libcpmtd:xwcsxfrm.obj
 0001:0000ea70       ?get@?$__crt_unique_heap_ptr@DU__crt_internal_free_policy@@@@QEBAPEADXZ 000000018000fa70 f i libvcruntimed:std_type_info.obj
 0001:0000ea70       ?get@?$__crt_unique_heap_ptr@U__vcrt_ptd@@U__crt_internal_free_policy@@@@QEBAPEAU__vcrt_ptd@@XZ 000000018000fa70 f i libvcruntimed:per_thread_data.obj
 0001:0000ea70       ?get@?$__crt_unique_heap_ptr@_WU__crt_internal_free_policy@@@@QEBAPEA_WXZ 000000018000fa70 f i libucrtd:setlocale.obj
 0001:0000ea70       ?get@?$__crt_unique_heap_ptr@DU__crt_public_free_policy@@@@QEBAPEADXZ 000000018000fa70 f i libvcruntimed:std_exception.obj
 0001:0000ea70       ?get@?$__crt_unique_handle_t@U__crt_findfile_traits@@@@QEBAPEAXXZ 000000018000fa70 f i libucrtd:argv_wildcards.obj
 0001:0000ea70       ?get@?$__crt_unique_heap_ptr@U__crt_multibyte_data@@U__crt_internal_free_policy@@@@QEBAPEAU__crt_multibyte_data@@XZ 000000018000fa70 f i libucrtd:wsetlocale.obj
 0001:0000ea70       ?get@?$__crt_scoped_stack_ptr@_W@@QEBAPEA_WXZ 000000018000fa70 f i libcpmtd:StlLCMapStringA.obj
 0001:0000ea70       ?get@?$__crt_unique_heap_ptr@U__crt_lowio_handle_data@@U__crt_internal_free_policy@@@@QEBAPEAU__crt_lowio_handle_data@@XZ 000000018000fa70 f i libucrtd:osfinfo.obj
 0001:0000ea70       ?save_state@?$c_string_character_source@D@__crt_strtox@@QEBAPEBDXZ 000000018000fa70 f i libucrtd:strtod.obj
 0001:0000ea70       ?get@?$__crt_unique_handle_t@U__crt_hmodule_traits@@@@QEBAPEAUHINSTANCE__@@XZ 000000018000fa70 f i libucrtd:exit.obj
 0001:0000ea70       ?save_state@?$c_string_character_source@_W@__crt_strtox@@QEBAPEB_WXZ 000000018000fa70 f i libucrtd:strtod.obj
 0001:0000ea70       ?get@?$__crt_unique_heap_ptr@U__acrt_ptd@@U__crt_internal_free_policy@@@@QEBAPEAU__acrt_ptd@@XZ 000000018000fa70 f i libucrtd:per_thread_data.obj
 0001:0000ea70       ??C__crt_stdio_stream@@QEBAPEAU__crt_stdio_stream_data@@XZ 000000018000fa70 f i libucrtd:output.obj
 0001:0000ea70       ?get@?$__crt_unique_heap_ptr@EU__crt_internal_free_policy@@@@QEBAPEAEXZ 000000018000fa70 f i libcpmtd:xwcsxfrm.obj
 0001:0000ea70       ?get@?$__crt_unique_heap_ptr@U__crt_lc_time_data@@U__crt_internal_free_policy@@@@QEBAPEAU__crt_lc_time_data@@XZ 000000018000fa70 f i libucrtd:inittime.obj
 0001:0000ea70       ?public_stream@__crt_stdio_stream@@QEBAPEAU_iobuf@@XZ 000000018000fa70 f i libucrtd:output.obj
 0001:0000ea70       ?get@?$__crt_unique_heap_ptr@PEADU__crt_internal_free_policy@@@@QEBAPEAPEADXZ 000000018000fa70 f i libucrtd:argv_parsing.obj
 0001:0000ea80       _MallocaComputeSize        000000018000fa80 f i libcpmtd:StlLCMapStringA.obj
 0001:0000eac0       _MarkAllocaS               000000018000fac0 f i libcpmtd:StlLCMapStringA.obj
 0001:0000eaf0       __crtLCMapStringA          000000018000faf0 f   libcpmtd:StlLCMapStringA.obj
 0001:0000f060       _freea_crt                 0000000180010060 f i libcpmtd:StlLCMapStringA.obj
 0001:0000f100       ?_Addstd@ios_base@std@@SAXPEAV12@@Z 0000000180010100 f   libcpmtd:ios.obj
 0001:0000f1d0       ?_Callfns@ios_base@std@@AEAAXW4event@12@@Z 00000001800101d0 f i libcpmtd:ios.obj
 0001:0000f240       ?_Ios_base_dtor@ios_base@std@@CAXPEAV12@@Z 0000000180010240 f   libcpmtd:ios.obj
 0001:0000f2e0       ?_Tidy@ios_base@std@@AEAAXXZ 00000001800102e0 f i libcpmtd:ios.obj
 0001:0000f3a0       ??$?RPEAU__crt_stdio_stream_data@@@__crt_internal_free_policy@@QEBAXQEBQEAU__crt_stdio_stream_data@@@Z 00000001800103a0 f i libucrtd:_file.obj
 0001:0000f3a0       ??$?RU__crt_lowio_handle_data@@@__crt_internal_free_policy@@QEBAXQEBU__crt_lowio_handle_data@@@Z 00000001800103a0 f i libucrtd:osfinfo.obj
 0001:0000f3a0       ??$?RG@__crt_internal_free_policy@@QEBAXQEBG@Z 00000001800103a0 f i libucrtd:initctype.obj
 0001:0000f3a0       ??$?RUlconv@@@__crt_internal_free_policy@@QEBAXQEBUlconv@@@Z 00000001800103a0 f i libucrtd:initmon.obj
 0001:0000f3a0       ??$?RPEAD@__crt_internal_free_policy@@QEBAXQEBQEAD@Z 00000001800103a0 f i libucrtd:argv_parsing.obj
 0001:0000f3a0       ??$?RJ@__crt_internal_free_policy@@QEBAXQEBJ@Z 00000001800103a0 f i libucrtd:initctype.obj
 0001:0000f3a0       ??$?RU__crt_locale_data@@@__crt_internal_free_policy@@QEBAXQEBU__crt_locale_data@@@Z 00000001800103a0 f i libucrtd:wsetlocale.obj
 0001:0000f3a0       ??$?RU__crt_multibyte_data@@@__crt_internal_free_policy@@QEBAXQEBU__crt_multibyte_data@@@Z 00000001800103a0 f i libucrtd:wsetlocale.obj
 0001:0000f3a0       ??$?R_W@__crt_internal_free_policy@@QEBAXQEB_W@Z 00000001800103a0 f i libucrtd:setlocale.obj
 0001:0000f3a0       ??$?RE@__crt_internal_free_policy@@QEBAXQEBE@Z 00000001800103a0 f i libcpmtd:xwcsxfrm.obj
 0001:0000f3a0       ??$?RD@__crt_internal_free_policy@@QEBAXQEBD@Z 00000001800103a0 f i libvcruntimed:std_type_info.obj
 0001:0000f3a0       ??$?RU__acrt_ptd@@@__crt_internal_free_policy@@QEBAXQEBU__acrt_ptd@@@Z 00000001800103a0 f i libucrtd:per_thread_data.obj
 0001:0000f3a0       ??$?RU__vcrt_ptd@@@__crt_internal_free_policy@@QEBAXQEBU__vcrt_ptd@@@Z 00000001800103a0 f i libvcruntimed:per_thread_data.obj
 0001:0000f3a0       ??$?RU__crt_lc_time_data@@@__crt_internal_free_policy@@QEBAXQEBU__crt_lc_time_data@@@Z 00000001800103a0 f i libucrtd:inittime.obj
 0001:0000f3a0       ??$?RP6AXXZ@__crt_internal_free_policy@@QEBAXQEBQ6AXXZ@Z 00000001800103a0 f i libucrtd:onexit.obj
 0001:0000f3d0       ??1?$__crt_unique_heap_ptr@U__acrt_ptd@@U__crt_internal_free_policy@@@@QEAA@XZ 00000001800103d0 f i libucrtd:per_thread_data.obj
 0001:0000f3d0       ??1?$__crt_unique_heap_ptr@Ulconv@@U__crt_internal_free_policy@@@@QEAA@XZ 00000001800103d0 f i libucrtd:initmon.obj
 0001:0000f3d0       ??1?$__crt_unique_heap_ptr@PEADU__crt_internal_free_policy@@@@QEAA@XZ 00000001800103d0 f i libucrtd:argv_parsing.obj
 0001:0000f3d0       ??1?$__crt_unique_heap_ptr@DU__crt_internal_free_policy@@@@QEAA@XZ 00000001800103d0 f i libvcruntimed:std_type_info.obj
 0001:0000f3d0       ??1?$__crt_unique_heap_ptr@EU__crt_internal_free_policy@@@@QEAA@XZ 00000001800103d0 f i libcpmtd:xwcsxfrm.obj
 0001:0000f3d0       ??1?$__crt_unique_heap_ptr@P6AXXZU__crt_internal_free_policy@@@@QEAA@XZ 00000001800103d0 f i libucrtd:onexit.obj
 0001:0000f3d0       ??1?$__crt_unique_heap_ptr@PEAU__crt_stdio_stream_data@@U__crt_internal_free_policy@@@@QEAA@XZ 00000001800103d0 f i libucrtd:_file.obj
 0001:0000f3d0       ??1?$__crt_unique_heap_ptr@U__crt_lc_time_data@@U__crt_internal_free_policy@@@@QEAA@XZ 00000001800103d0 f i libucrtd:inittime.obj
 0001:0000f3d0       ??1?$__crt_unique_heap_ptr@GU__crt_internal_free_policy@@@@QEAA@XZ 00000001800103d0 f i libucrtd:initctype.obj
 0001:0000f3d0       ??1?$__crt_unique_heap_ptr@_WU__crt_internal_free_policy@@@@QEAA@XZ 00000001800103d0 f i libucrtd:setlocale.obj
 0001:0000f3d0       ??1?$__crt_unique_heap_ptr@JU__crt_internal_free_policy@@@@QEAA@XZ 00000001800103d0 f i libucrtd:initctype.obj
 0001:0000f3d0       ??1?$__crt_unique_heap_ptr@U__crt_locale_data@@U__crt_internal_free_policy@@@@QEAA@XZ 00000001800103d0 f i libucrtd:wsetlocale.obj
 0001:0000f3d0       ??1?$__crt_unique_heap_ptr@U__crt_lowio_handle_data@@U__crt_internal_free_policy@@@@QEAA@XZ 00000001800103d0 f i libucrtd:osfinfo.obj
 0001:0000f3d0       ??1?$__crt_unique_heap_ptr@U__crt_multibyte_data@@U__crt_internal_free_policy@@@@QEAA@XZ 00000001800103d0 f i libucrtd:wsetlocale.obj
 0001:0000f3d0       ??1?$__crt_unique_heap_ptr@U__vcrt_ptd@@U__crt_internal_free_policy@@@@QEAA@XZ 00000001800103d0 f i libvcruntimed:per_thread_data.obj
 0001:0000f3f0       ??B?$__crt_unique_heap_ptr@U__crt_multibyte_data@@U__crt_internal_free_policy@@@@QEBA_NXZ 00000001800103f0 f i libucrtd:wsetlocale.obj
 0001:0000f3f0       ??B?$__crt_unique_heap_ptr@U__crt_lowio_handle_data@@U__crt_internal_free_policy@@@@QEBA_NXZ 00000001800103f0 f i libucrtd:osfinfo.obj
 0001:0000f3f0       ??B?$__crt_unique_heap_ptr@DU__crt_public_free_policy@@@@QEBA_NXZ 00000001800103f0 f i libvcruntimed:std_exception.obj
 0001:0000f3f0       ??B?$__crt_unique_heap_ptr@EU__crt_internal_free_policy@@@@QEBA_NXZ 00000001800103f0 f i libcpmtd:xwcsxfrm.obj
 0001:0000f3f0       ??B?$__crt_unique_heap_ptr@DU__crt_internal_free_policy@@@@QEBA_NXZ 00000001800103f0 f i libvcruntimed:std_type_info.obj
 0001:0000f3f0       ??B?$__crt_unique_heap_ptr@U__crt_lc_time_data@@U__crt_internal_free_policy@@@@QEBA_NXZ 00000001800103f0 f i libucrtd:inittime.obj
 0001:0000f3f0       ??B?$__crt_unique_heap_ptr@U__vcrt_ptd@@U__crt_internal_free_policy@@@@QEBA_NXZ 00000001800103f0 f i libvcruntimed:per_thread_data.obj
 0001:0000f3f0       ??B?$__crt_unique_heap_ptr@U__acrt_ptd@@U__crt_internal_free_policy@@@@QEBA_NXZ 00000001800103f0 f i libucrtd:per_thread_data.obj
 0001:0000f410       ?release@?$__crt_unique_heap_ptr@DU__crt_internal_free_policy@@@@QEAAXXZ 0000000180010410 f i libvcruntimed:std_type_info.obj
 0001:0000f410       ?release@?$__crt_unique_heap_ptr@JU__crt_internal_free_policy@@@@QEAAXXZ 0000000180010410 f i libucrtd:initctype.obj
 0001:0000f410       ?release@?$__crt_unique_heap_ptr@U__crt_locale_data@@U__crt_internal_free_policy@@@@QEAAXXZ 0000000180010410 f i libucrtd:wsetlocale.obj
 0001:0000f410       ?release@?$__crt_unique_heap_ptr@GU__crt_internal_free_policy@@@@QEAAXXZ 0000000180010410 f i libucrtd:initctype.obj
 0001:0000f410       ?release@?$__crt_unique_heap_ptr@P6AXXZU__crt_internal_free_policy@@@@QEAAXXZ 0000000180010410 f i libucrtd:onexit.obj
 0001:0000f410       ?release@?$__crt_unique_heap_ptr@U__crt_lc_time_data@@U__crt_internal_free_policy@@@@QEAAXXZ 0000000180010410 f i libucrtd:inittime.obj
 0001:0000f410       ?release@?$__crt_unique_heap_ptr@EU__crt_internal_free_policy@@@@QEAAXXZ 0000000180010410 f i libcpmtd:xwcsxfrm.obj
 0001:0000f410       ?release@?$__crt_unique_heap_ptr@U__vcrt_ptd@@U__crt_internal_free_policy@@@@QEAAXXZ 0000000180010410 f i libvcruntimed:per_thread_data.obj
 0001:0000f410       ?release@?$__crt_unique_heap_ptr@U__acrt_ptd@@U__crt_internal_free_policy@@@@QEAAXXZ 0000000180010410 f i libucrtd:per_thread_data.obj
 0001:0000f410       ?release@?$__crt_unique_heap_ptr@U__crt_lowio_handle_data@@U__crt_internal_free_policy@@@@QEAAXXZ 0000000180010410 f i libucrtd:osfinfo.obj
 0001:0000f410       ?release@?$__crt_unique_heap_ptr@_WU__crt_internal_free_policy@@@@QEAAXXZ 0000000180010410 f i libucrtd:setlocale.obj
 0001:0000f410       ?release@?$__crt_unique_heap_ptr@PEAU__crt_stdio_stream_data@@U__crt_internal_free_policy@@@@QEAAXXZ 0000000180010410 f i libucrtd:_file.obj
 0001:0000f410       ?release@?$__crt_unique_heap_ptr@PEADU__crt_internal_free_policy@@@@QEAAXXZ 0000000180010410 f i libucrtd:argv_parsing.obj
 0001:0000f410       ?release@?$__crt_unique_heap_ptr@Ulconv@@U__crt_internal_free_policy@@@@QEAAXXZ 0000000180010410 f i libucrtd:initmon.obj
 0001:0000f410       ?release@?$__crt_unique_heap_ptr@U__crt_multibyte_data@@U__crt_internal_free_policy@@@@QEAAXXZ 0000000180010410 f i libucrtd:wsetlocale.obj
 0001:0000f440       ??2@YAPEAX_K@Z             0000000180010440 f   LIBCMTD:new_scalar.obj
 0001:0000f490       ??3@YAXPEAX_K@Z            0000000180010490 f   LIBCMTD:delete_scalar_size.obj
 0001:0000f4b0       ??_V@YAXPEAX@Z             00000001800104b0 f   LIBCMTD:delete_array.obj
 0001:0000f4d0       __GSHandlerCheck           00000001800104d0 f   LIBCMTD:gshandler.obj
 0001:0000f510       __GSHandlerCheckCommon     0000000180010510 f   LIBCMTD:gshandler.obj
 0001:0000f610       __GSHandlerCheck_EH4       0000000180010610 f   LIBCMTD:gshandlereh4.obj
 0001:0000f6d0       __security_check_cookie    00000001800106d0 f   LIBCMTD:amdsecgs.obj
 0001:0000f6f0       ??1type_info@@UEAA@XZ      00000001800106f0 f   LIBCMTD:std_type_info_static.obj
 0001:0000f710       ??_Etype_info@@UEAAPEAXI@Z 0000000180010710 f i LIBCMTD:std_type_info_static.obj
 0001:0000f710       ??_Gtype_info@@UEAAPEAXI@Z 0000000180010710 f i LIBCMTD:std_type_info_static.obj
 0001:0000fb60       _DllMainCRTStartup         0000000180010b60 f   LIBCMTD:dll_dllmain.obj
 0001:0000fba0       ?configure_argv@__scrt_narrow_argv_policy@@SAHXZ 0000000180010ba0 f i LIBCMTD:utility.obj
 0001:0000fc90       ?initialize_environment@__scrt_narrow_environment_policy@@SAHXZ 0000000180010c90 f i LIBCMTD:utility.obj
 0001:0000fd30       NtCurrentTeb               0000000180010d30 f i LIBCMTD:utility.obj
 0001:0000fd40       __scrt_acquire_startup_lock 0000000180010d40 f   LIBCMTD:utility.obj
 0001:0000fdb0       __scrt_dllmain_after_initialize_c 0000000180010db0 f   LIBCMTD:utility.obj
 0001:0000fde0       __scrt_dllmain_before_initialize_c 0000000180010de0 f   LIBCMTD:utility.obj
 0001:0000fe00       __scrt_dllmain_crt_thread_attach 0000000180010e00 f   LIBCMTD:utility.obj
 0001:0000fe30       __scrt_dllmain_crt_thread_detach 0000000180010e30 f   LIBCMTD:utility.obj
 0001:0000fe50       __scrt_dllmain_exception_filter 0000000180010e50 f   LIBCMTD:utility.obj
 0001:0000fec0       __scrt_dllmain_uninitialize_c 0000000180010ec0 f   LIBCMTD:utility.obj
 0001:0000fef0       __scrt_dllmain_uninitialize_critical 0000000180010ef0 f   LIBCMTD:utility.obj
 0001:0000ff10       __scrt_initialize_crt      0000000180010f10 f   LIBCMTD:utility.obj
 0001:0000ff60       __scrt_initialize_onexit_tables 0000000180010f60 f   LIBCMTD:utility.obj
 0001:00010070       __scrt_is_nonwritable_in_current_image 0000000180011070 f   LIBCMTD:utility.obj
 0001:00010100       __scrt_release_startup_lock 0000000180011100 f   LIBCMTD:utility.obj
 0001:00010130       __scrt_uninitialize_crt    0000000180011130 f   LIBCMTD:utility.obj
 0001:00010170       _onexit                    0000000180011170 f   LIBCMTD:utility.obj
 0001:000101f0       atexit                     00000001800111f0 f   LIBCMTD:utility.obj
 0001:00010230       ReadNoFence64              0000000180011230 f i LIBCMTD:guard_support.obj
 0001:00010250       ReadPointerNoFence         0000000180011250 f i LIBCMTD:guard_support.obj
 0001:00010270       _guard_icall_checks_enforced 0000000180011270 f i LIBCMTD:guard_support.obj
 0001:000102b0       __raise_securityfailure    00000001800112b0 f   LIBCMTD:gs_report.obj
 0001:000102f0       __report_gsfailure         00000001800112f0 f   LIBCMTD:gs_report.obj
 0001:000103d0       __report_rangecheckfailure 00000001800113d0 f   LIBCMTD:gs_report.obj
 0001:000103f0       __report_securityfailure   00000001800113f0 f   LIBCMTD:gs_report.obj
 0001:000105f0       ??3@YAXPEAX@Z              00000001800115f0 f   LIBCMTD:delete_scalar.obj
 0001:00010610       ?__scrt_throw_std_bad_array_new_length@@YAXXZ 0000000180011610 f   LIBCMTD:throw_bad_alloc.obj
 0001:00010700       __security_init_cookie     0000000180011700 f   LIBCMTD:gs_support.obj
 0001:00010780       DllMain                    0000000180011780 f   LIBCMTD:dll_dllmain_stub.obj
 0001:000107a0       ?__scrt_initialize_type_info@@YAXXZ 00000001800117a0 f   LIBCMTD:tncleanup.obj
 0001:000107c0       ?__scrt_uninitialize_type_info@@YAXXZ 00000001800117c0 f   LIBCMTD:tncleanup.obj
 0001:000107e0       __local_stdio_scanf_options 00000001800117e0 f i LIBCMTD:default_local_stdio_options.obj
 0001:000107f0       __scrt_initialize_default_local_stdio_options 00000001800117f0 f   LIBCMTD:default_local_stdio_options.obj
 0001:00010840       __scrt_get_dyn_tls_init_callback 0000000180011840 f   LIBCMTD:dyn_tls_init.obj
 0001:00010850       __crt_debugger_hook        0000000180011850 f   LIBCMTD:utility_desktop.obj
 0001:00010860       __scrt_fastfail            0000000180011860 f   LIBCMTD:utility_desktop.obj
 0001:00010a00       _RTC_Initialize            0000000180011a00 f   LIBCMTD:initsect.obj
 0001:00010a50       _RTC_Terminate             0000000180011a50 f   LIBCMTD:initsect.obj
 0001:00010aa0       __isa_available_init       0000000180011aa0 f   LIBCMTD:cpu_disp.obj
 0001:00010e40       _get_startup_argv_mode     0000000180011e40 f   LIBCMTD:argv_mode.obj
 0001:00010e50       __scrt_is_ucrt_dll_in_use  0000000180011e50 f   LIBCMTD:ucrt_detection.obj
 0001:00010e80       ??$__crt_interlocked_read_pointer@X@@YAPEAXPEDSEAX@Z 0000000180011e80 f i libvcruntimed:winapi_downlevel.obj
 0001:00010e80       ??$__crt_interlocked_read_pointer@UHINSTANCE__@@@@YAPEAUHINSTANCE__@@PEDSEAU0@@Z 0000000180011e80 f i libvcruntimed:winapi_downlevel.obj
 0001:00010e80       ??$__crt_interlocked_read_pointer@$$A6AXXZ@@YAP6AXXZPEDS6AXXZ@Z 0000000180011e80 f i libvcruntimed:purevirt.obj
 0001:00010ea0       ?__crt_interlocked_read_64@@YA_JPED_J@Z 0000000180011ea0 f i libvcruntimed:purevirt.obj
 0001:00010ec0       _get_purecall_handler      0000000180011ec0 f   libvcruntimed:purevirt.obj
 0001:00010ee0       _purecall                  0000000180011ee0 f   libvcruntimed:purevirt.obj
 0001:00010f20       ??$?RD@__crt_public_free_policy@@QEBAXQEBD@Z 0000000180011f20 f i libvcruntimed:std_exception.obj
 0001:00010f40       ??1?$__crt_unique_heap_ptr@DU__crt_public_free_policy@@@@QEAA@XZ 0000000180011f40 f i libvcruntimed:std_exception.obj
 0001:00010f60       ?detach@?$__crt_unique_heap_ptr@U__vcrt_ptd@@U__crt_internal_free_policy@@@@QEAAPEAU__vcrt_ptd@@XZ 0000000180011f60 f i libvcruntimed:per_thread_data.obj
 0001:00010f60       ?detach@?$__crt_unique_heap_ptr@_WU__crt_internal_free_policy@@@@QEAAPEA_WXZ 0000000180011f60 f i libucrtd:wcsftime.obj
 0001:00010f60       ?detach@?$__crt_unique_heap_ptr@U__crt_lc_time_data@@U__crt_internal_free_policy@@@@QEAAPEAU__crt_lc_time_data@@XZ 0000000180011f60 f i libucrtd:inittime.obj
 0001:00010f60       ?detach@?$__crt_unique_heap_ptr@U__acrt_ptd@@U__crt_internal_free_policy@@@@QEAAPEAU__acrt_ptd@@XZ 0000000180011f60 f i libucrtd:per_thread_data.obj
 0001:00010f60       ?detach@?$__crt_unique_heap_ptr@GU__crt_internal_free_policy@@@@QEAAPEAGXZ 0000000180011f60 f i libucrtd:initctype.obj
 0001:00010f60       ?detach@?$__crt_unique_heap_ptr@U__crt_multibyte_data@@U__crt_internal_free_policy@@@@QEAAPEAU__crt_multibyte_data@@XZ 0000000180011f60 f i libucrtd:wsetlocale.obj
 0001:00010f60       ?detach@?$__crt_unique_heap_ptr@Ulconv@@U__crt_internal_free_policy@@@@QEAAPEAUlconv@@XZ 0000000180011f60 f i libucrtd:initmon.obj
 0001:00010f60       ?detach@?$__crt_unique_heap_ptr@U__crt_locale_data@@U__crt_internal_free_policy@@@@QEAAPEAU__crt_locale_data@@XZ 0000000180011f60 f i libucrtd:wsetlocale.obj
 0001:00010f60       ?detach@?$__crt_unique_heap_ptr@U__crt_lowio_handle_data@@U__crt_internal_free_policy@@@@QEAAPEAU__crt_lowio_handle_data@@XZ 0000000180011f60 f i libucrtd:osfinfo.obj
 0001:00010f60       ?detach@?$__crt_unique_heap_ptr@PEADU__crt_internal_free_policy@@@@QEAAPEAPEADXZ 0000000180011f60 f i libucrtd:argv_parsing.obj
 0001:00010f60       ?detach@?$__crt_unique_heap_ptr@DU__crt_public_free_policy@@@@QEAAPEADXZ 0000000180011f60 f i libvcruntimed:std_exception.obj
 0001:00010f60       ?detach@?$__crt_unique_heap_ptr@EU__crt_internal_free_policy@@@@QEAAPEAEXZ 0000000180011f60 f i libucrtd:initctype.obj
 0001:00010f60       ?detach@?$__crt_unique_heap_ptr@DU__crt_internal_free_policy@@@@QEAAPEADXZ 0000000180011f60 f i libucrtd:setvbuf.obj
 0001:00010f60       ?detach@?$__crt_unique_heap_ptr@PEAU__crt_stdio_stream_data@@U__crt_internal_free_policy@@@@QEAAPEAPEAU__crt_stdio_stream_data@@XZ 0000000180011f60 f i libucrtd:_file.obj
 0001:00010f60       ?detach@?$__crt_unique_heap_ptr@P6AXXZU__crt_internal_free_policy@@@@QEAAPEAP6AXXZXZ 0000000180011f60 f i libucrtd:onexit.obj
 0001:00010f60       ?detach@?$__crt_unique_heap_ptr@JU__crt_internal_free_policy@@@@QEAAPEAJXZ 0000000180011f60 f i libucrtd:initctype.obj
 0001:00010f90       ?release@?$__crt_unique_heap_ptr@DU__crt_public_free_policy@@@@QEAAXXZ 0000000180011f90 f i libvcruntimed:std_exception.obj
 0001:00010fc0       __std_exception_copy       0000000180011fc0 f   libvcruntimed:std_exception.obj
 0001:00011100       __std_exception_destroy    0000000180012100 f   libvcruntimed:std_exception.obj
 0001:00011140       _CxxThrowException         0000000180012140 f   libvcruntimed:throw.obj
 0001:00011270       ??$?0AEAViterator@TryBlockMap@__FrameHandler3@@AEAV012@$0A@@?$pair@Viterator@TryBlockMap@__FrameHandler3@@V123@@std@@QEAA@AEAViterator@TryBlockMap@__FrameHandler3@@0@Z 0000000180012270 f i libvcruntimed:risctrnsctrl.obj
 0001:00011270       ??$?0AEAViterator@TryBlockMap4@FH4@@AEAV012@$0A@@?$pair@Viterator@TryBlockMap4@FH4@@V123@@std@@QEAA@AEAViterator@TryBlockMap4@FH4@@0@Z 0000000180012270 f i libvcruntimed:risctrnsctrl.obj
 0001:00011440       ??$_CallSETranslator@V__FrameHandler3@@@@YAHPEAUEHExceptionRecord@@PEA_KPEAU_CONTEXT@@PEAU_xDISPATCHER_CONTEXT@@PEBU_s_FuncInfo@@K1H@Z 0000000180012440 f i libvcruntimed:risctrnsctrl.obj
 0001:000114d0       ??$_CallSETranslator@V__FrameHandler4@@@@YAHPEAUEHExceptionRecord@@PEA_KPEAU_CONTEXT@@PEAU_xDISPATCHER_CONTEXT@@PEAUFuncInfo4@FH4@@K1H@Z 00000001800124d0 f i libvcruntimed:risctrnsctrl.obj
 0001:00011560       ??0FuncInfo4@FH4@@QEAA@XZ  0000000180012560 f i libvcruntimed:risctrnsctrl.obj
 0001:000115d0       ??0FuncInfoHeader@FH4@@QEAA@XZ 00000001800125d0 f i libvcruntimed:risctrnsctrl.obj
 0001:000115f0       ??0iterator@HandlerMap@__FrameHandler3@@QEAA@AEAV12@I@Z 00000001800125f0 f i libvcruntimed:frame.obj
 0001:000115f0       ??0iterator@TryBlockMap4@FH4@@QEAA@AEAV12@I@Z 00000001800125f0 f i libvcruntimed:risctrnsctrl.obj
 0001:000115f0       ??0iterator@TryBlockMap@__FrameHandler3@@QEAA@AEAV12@I@Z 00000001800125f0 f i libvcruntimed:risctrnsctrl.obj
 0001:000115f0       ??0iterator@HandlerMap4@FH4@@QEAA@AEAV12@I@Z 00000001800125f0 f i libvcruntimed:frame.obj
 0001:00011620       ??4iterator@TryBlockMap4@FH4@@QEAAAEAV012@AEBV012@@Z 0000000180012620 f i libvcruntimed:risctrnsctrl.obj
 0001:00011640       ??9iterator@TryBlockMap4@FH4@@QEBA_NAEBV012@@Z 0000000180012640 f i libvcruntimed:risctrnsctrl.obj
 0001:00011680       ??Diterator@TryBlockMap4@FH4@@QEAA?AUTryBlockMapEntry4@2@XZ 0000000180012680 f i libvcruntimed:risctrnsctrl.obj
 0001:000116b0       ??Eiterator@TryBlockMap4@FH4@@QEAAAEAV012@XZ 00000001800126b0 f i libvcruntimed:risctrnsctrl.obj
 0001:000116f0       ?CatchTryBlock@__FrameHandler3@@SAPEBU_s_TryBlockMapEntry@@PEBU_s_FuncInfo@@H@Z 00000001800126f0 f   libvcruntimed:risctrnsctrl.obj
 0001:00011780       ?DecompFuncInfo@FH4@@YA_JPEAEAEAUFuncInfo4@1@_KH@Z 0000000180012780 f i libvcruntimed:risctrnsctrl.obj
 0001:000117c0       ?DecompFuncInfo@FH4@@YA_JPEAEAEAUFuncInfo4@1@_KH_N@Z 00000001800127c0 f i libvcruntimed:risctrnsctrl.obj
 0001:00011990       ?DecompTryBlock@TryBlockMap4@FH4@@AEAAXXZ 0000000180012990 f i libvcruntimed:risctrnsctrl.obj
 0001:00011a10       ?ExecutionInCatch@__FrameHandler3@@SA_NPEAU_xDISPATCHER_CONTEXT@@PEBU_s_FuncInfo@@@Z 0000000180012a10 f   libvcruntimed:risctrnsctrl.obj
 0001:00011a60       ?ExecutionInCatch@__FrameHandler4@@SA_NPEAU_xDISPATCHER_CONTEXT@@PEAUFuncInfo4@FH4@@@Z 0000000180012a60 f   libvcruntimed:risctrnsctrl.obj
 0001:00011a80       ?FrameUnwindToEmptyState@__FrameHandler3@@SAXPEA_KPEAU_xDISPATCHER_CONTEXT@@PEBU_s_FuncInfo@@@Z 0000000180012a80 f   libvcruntimed:risctrnsctrl.obj
 0001:00011b20       ?FrameUnwindToEmptyState@__FrameHandler4@@SAXPEA_KPEAU_xDISPATCHER_CONTEXT@@PEAUFuncInfo4@FH4@@@Z 0000000180012b20 f   libvcruntimed:risctrnsctrl.obj
 0001:00011b70       ?GetEstablisherFrame@__FrameHandler3@@SAPEA_KPEA_KPEAU_xDISPATCHER_CONTEXT@@PEBU_s_FuncInfo@@0@Z 0000000180012b70 f   libvcruntimed:risctrnsctrl.obj
 0001:00011ce0       ?GetEstablisherFrame@__FrameHandler4@@SAPEA_KPEA_KPEAU_xDISPATCHER_CONTEXT@@PEAUFuncInfo4@FH4@@0@Z 0000000180012ce0 f   libvcruntimed:risctrnsctrl.obj
 0001:00011d50       ?GetRangeOfTrysToCheck@__FrameHandler3@@SA?AU?$pair@Viterator@TryBlockMap@__FrameHandler3@@V123@@std@@AEAVTryBlockMap@1@HPEAU_xDISPATCHER_CONTEXT@@PEBU_s_FuncInfo@@H@Z 0000000180012d50 f   libvcruntimed:risctrnsctrl.obj
 0001:00011f90       ?GetRangeOfTrysToCheck@__FrameHandler4@@SA?AU?$pair@Viterator@TryBlockMap4@FH4@@V123@@std@@AEAVTryBlockMap4@FH4@@HPEAU_xDISPATCHER_CONTEXT@@PEAUFuncInfo4@5@H@Z 0000000180012f90 f   libvcruntimed:risctrnsctrl.obj
 0001:00012140       ?ReadInt@FH4@@YAHPEAPEAE@Z 0000000180013140 f i libvcruntimed:risctrnsctrl.obj
 0001:00012180       ?ReadUnsigned@FH4@@YAIPEAPEAE@Z 0000000180013180 f i libvcruntimed:risctrnsctrl.obj
 0001:00012210       ?UnwindNestedFrames@__FrameHandler3@@SAXPEA_KPEAUEHExceptionRecord@@PEAU_CONTEXT@@0PEAXPEBU_s_FuncInfo@@HHPEBU_s_HandlerType@@PEAU_xDISPATCHER_CONTEXT@@E@Z 0000000180013210 f   libvcruntimed:risctrnsctrl.obj
 0001:00012380       ?UnwindNestedFrames@__FrameHandler4@@SAXPEA_KPEAUEHExceptionRecord@@PEAU_CONTEXT@@0PEAXPEAUFuncInfo4@FH4@@HHPEAUHandlerType4@5@PEAU_xDISPATCHER_CONTEXT@@E@Z 0000000180013380 f   libvcruntimed:risctrnsctrl.obj
 0001:00012550       ?begin@TryBlockMap4@FH4@@QEAA?AViterator@12@XZ 0000000180013550 f i libvcruntimed:risctrnsctrl.obj
 0001:00012550       ?begin@HandlerMap4@FH4@@QEAA?AViterator@12@XZ 0000000180013550 f i libvcruntimed:frame.obj
 0001:00012550       ?begin@HandlerMap@__FrameHandler3@@QEAA?AViterator@12@XZ 0000000180013550 f i libvcruntimed:frame.obj
 0001:00012580       ?end@HandlerMap@__FrameHandler3@@QEAA?AViterator@12@XZ 0000000180013580 f i libvcruntimed:frame.obj
 0001:00012580       ?end@HandlerMap4@FH4@@QEAA?AViterator@12@XZ 0000000180013580 f i libvcruntimed:frame.obj
 0001:00012580       ?end@TryBlockMap4@FH4@@QEAA?AViterator@12@XZ 0000000180013580 f i libvcruntimed:risctrnsctrl.obj
 0001:000125b0       ?imageRelToByteBuffer@FH4@@YAPEAE_KH@Z 00000001800135b0 f i libvcruntimed:risctrnsctrl.obj
 0001:000125d0       ?incrementToSentinel@iterator@TryBlockMap4@FH4@@QEAAXXZ 00000001800135d0 f i libvcruntimed:risctrnsctrl.obj
 0001:000125f0       ?setBuffer@TryBlockMap4@FH4@@QEAAXViterator@12@@Z 00000001800135f0 f i libvcruntimed:risctrnsctrl.obj
 0001:00012660       _CreateFrameInfo           0000000180013660 f   libvcruntimed:risctrnsctrl.obj
 0001:000126d0       _FindAndUnlinkFrame        00000001800136d0 f   libvcruntimed:risctrnsctrl.obj
 0001:00012750       _GetImageBase              0000000180013750 f   libvcruntimed:risctrnsctrl.obj
 0001:00012770       _GetThrowImageBase         0000000180013770 f   libvcruntimed:risctrnsctrl.obj
 0001:00012790       _SetImageBase              0000000180013790 f   libvcruntimed:risctrnsctrl.obj
 0001:000127b0       _SetThrowImageBase         00000001800137b0 f   libvcruntimed:risctrnsctrl.obj
 0001:000127d0       __CxxFrameHandler3         00000001800137d0 f   libvcruntimed:risctrnsctrl.obj
 0001:000128b0       __CxxFrameHandler4         00000001800138b0 f   libvcruntimed:risctrnsctrl.obj
 0001:000129d0       memcpy_repmovs             00000001800139d0 f   libvcruntimed:memcpy.obj
 0001:000129f0       memmove                    00000001800139f0 f   libvcruntimed:memcpy.obj
 0001:000129f0       memcpy                     00000001800139f0 f   libvcruntimed:memcpy.obj
 0001:00013080       memset_repmovs             0000000180014080 f   libvcruntimed:memset.obj
 0001:000130a0       memset                     00000001800140a0 f   libvcruntimed:memset.obj
 0001:00013230       __uncaught_exception       0000000180014230 f   libvcruntimed:uncaught_exception.obj
 0001:00013290       memchr                     0000000180014290 f   libvcruntimed:memchr.obj
 0001:00013310       memcmp                     0000000180014310 f   libvcruntimed:memcmp.obj
 0001:000133e0       __C_specific_handler       00000001800143e0 f   libvcruntimed:riscchandler.obj
 0001:00013850       __vcrt_initialize          0000000180014850 f   libvcruntimed:initialization.obj
 0001:00013890       __vcrt_thread_attach       0000000180014890 f   libvcruntimed:initialization.obj
 0001:000138b0       __vcrt_thread_detach       00000001800148b0 f   libvcruntimed:initialization.obj
 0001:000138d0       __vcrt_uninitialize        00000001800148d0 f   libvcruntimed:initialization.obj
 0001:000138f0       __vcrt_uninitialize_critical 00000001800148f0 f   libvcruntimed:initialization.obj
 0001:00013900       __std_type_info_compare    0000000180014900 f   libvcruntimed:std_type_info.obj
 0001:00013940       __std_type_info_destroy_list 0000000180014940 f   libvcruntimed:std_type_info.obj
 0001:000139a0       __DestructExceptionObject  00000001800149a0 f   libvcruntimed:ehhelpers.obj
 0001:00013aa0       ?_CallMemberFunction0@@YAXQEAX0@Z 0000000180014aa0 f i libvcruntimed:ehhelpers.obj
 0001:00013b70       _IsExceptionObjectToBeDestroyed 0000000180014b70 f   libvcruntimed:ehhelpers.obj
 0001:00013bc0       __AdjustPointer            0000000180014bc0 f   libvcruntimed:ehhelpers.obj
 0001:00013c40       __FrameUnwindFilter        0000000180014c40 f   libvcruntimed:ehhelpers.obj
 0001:00013d70       __vcrt_freefls             0000000180014d70 f   libvcruntimed:per_thread_data.obj
 0001:00013db0       __vcrt_freeptd             0000000180014db0 f   libvcruntimed:per_thread_data.obj
 0001:00013e10       __vcrt_getptd              0000000180014e10 f   libvcruntimed:per_thread_data.obj
 0001:00013e40       __vcrt_getptd_noexit       0000000180014e40 f   libvcruntimed:per_thread_data.obj
 0001:00013fe0       __vcrt_getptd_noinit       0000000180014fe0 f   libvcruntimed:per_thread_data.obj
 0001:00014040       __vcrt_initialize_ptd      0000000180015040 f   libvcruntimed:per_thread_data.obj
 0001:00014090       __vcrt_uninitialize_ptd    0000000180015090 f   libvcruntimed:per_thread_data.obj
 0001:000140c0       ?GetCurrentState@__FrameHandler3@@SAHPEA_KPEAU_xDISPATCHER_CONTEXT@@PEBU_s_FuncInfo@@@Z 00000001800150c0 f   libvcruntimed:ehstate.obj
 0001:00014120       ?GetUnwindTryBlock@__FrameHandler3@@SAHPEA_KPEAU_xDISPATCHER_CONTEXT@@PEBU_s_FuncInfo@@@Z 0000000180015120 f   libvcruntimed:ehstate.obj
 0001:00014170       ?SetState@__FrameHandler3@@SAXPEA_KPEBU_s_FuncInfo@@H@Z 0000000180015170 f   libvcruntimed:ehstate.obj
 0001:000141a0       ?SetUnwindTryBlock@__FrameHandler3@@SAXPEA_KPEAU_xDISPATCHER_CONTEXT@@PEBU_s_FuncInfo@@H@Z 00000001800151a0 f   libvcruntimed:ehstate.obj
 0001:00014210       ?StateFromControlPc@__FrameHandler3@@SAHPEBU_s_FuncInfo@@PEAU_xDISPATCHER_CONTEXT@@@Z 0000000180015210 f   libvcruntimed:ehstate.obj
 0001:00014250       ?StateFromControlPc@__FrameHandler4@@SAHPEAUFuncInfo4@FH4@@PEAU_xDISPATCHER_CONTEXT@@@Z 0000000180015250 f   libvcruntimed:ehstate.obj
 0001:00014290       ?StateFromIp@__FrameHandler3@@SAHPEBU_s_FuncInfo@@PEAU_xDISPATCHER_CONTEXT@@_K@Z 0000000180015290 f   libvcruntimed:ehstate.obj
 0001:00014380       ?StateFromIp@__FrameHandler4@@SAHPEAUFuncInfo4@FH4@@PEAU_xDISPATCHER_CONTEXT@@_K@Z 0000000180015380 f   libvcruntimed:ehstate.obj
 0001:00014470       ?__FuncRelToRealOffset@@YA_KPEAU_xDISPATCHER_CONTEXT@@I@Z 0000000180015470 f i libvcruntimed:ehstate.obj
 0001:000144a0       ?__RVAtoRealOffset@@YA_KPEAU_xDISPATCHER_CONTEXT@@H@Z 00000001800154a0 f i libvcruntimed:ehstate.obj
 0001:00016700       ??$TypeMatchHelper@V__FrameHandler3@@@@YAHPEBU_s_HandlerType@@PEBU_s_CatchableType@@PEBU_s_ThrowInfo@@@Z 0000000180017700 f i libvcruntimed:frame.obj
 0001:00016900       ??$TypeMatchHelper@V__FrameHandler4@@@@YAHPEAUHandlerType4@FH4@@PEBU_s_CatchableType@@PEBU_s_ThrowInfo@@@Z 0000000180017900 f i libvcruntimed:frame.obj
 0001:00016b10       ??$__InternalCxxFrameHandler@V__FrameHandler3@@@@YA?AW4_EXCEPTION_DISPOSITION@@PEAUEHExceptionRecord@@PEA_KPEAU_CONTEXT@@PEAU_xDISPATCHER_CONTEXT@@PEBU_s_FuncInfo@@H1E@Z 0000000180017b10 f i libvcruntimed:frame.obj
 0001:00016f80       ??$__InternalCxxFrameHandler@V__FrameHandler4@@@@YA?AW4_EXCEPTION_DISPOSITION@@PEAUEHExceptionRecord@@PEA_KPEAU_CONTEXT@@PEAU_xDISPATCHER_CONTEXT@@PEAUFuncInfo4@FH4@@H1E@Z 0000000180017f80 f i libvcruntimed:frame.obj
 0001:00017410       ??0HandlerMap4@FH4@@QEAA@PEBUTryBlockMapEntry4@1@_KH@Z 0000000180018410 f i libvcruntimed:frame.obj
 0001:000174d0       ??0HandlerMap@__FrameHandler3@@QEAA@PEBU_s_TryBlockMapEntry@@_KI@Z 00000001800184d0 f i libvcruntimed:frame.obj
 0001:00017520       ??0HandlerType4@FH4@@QEAA@XZ 0000000180018520 f i libvcruntimed:frame.obj
 0001:00017540       ??0TryBlockMap4@FH4@@QEAA@PEBUFuncInfo4@1@_K@Z 0000000180018540 f i libvcruntimed:frame.obj
 0001:000175d0       ??0UWMap4@FH4@@QEAA@PEBUFuncInfo4@1@_K@Z 00000001800185d0 f i libvcruntimed:frame.obj
 0001:00017640       ??0bad_exception@std@@QEAA@AEBV01@@Z 0000000180018640 f i libvcruntimed:frame.obj
 0001:00017680       ??0bad_exception@std@@QEAA@XZ 0000000180018680 f i libvcruntimed:frame.obj
 0001:000176c0       ??4iterator@UWMap4@FH4@@QEAAAEAV012@AEBV012@@Z 00000001800186c0 f i libvcruntimed:frame.obj
 0001:00017710       ??8iterator@HandlerMap@__FrameHandler3@@QEBA_NAEBV012@@Z 0000000180018710 f i libvcruntimed:frame.obj
 0001:00017710       ??8iterator@HandlerMap4@FH4@@QEBA_NAEBV012@@Z 0000000180018710 f i libvcruntimed:frame.obj
 0001:00017750       ??8type_info@@QEBA_NAEBV0@@Z 0000000180018750 f i libvcruntimed:frame.obj
 0001:000177a0       ??9iterator@HandlerMap@__FrameHandler3@@QEBA_NAEBV012@@Z 00000001800187a0 f i libvcruntimed:frame.obj
 0001:000177a0       ??9iterator@HandlerMap4@FH4@@QEBA_NAEBV012@@Z 00000001800187a0 f i libvcruntimed:frame.obj
 0001:000177e0       ??Diterator@HandlerMap4@FH4@@QEAA?AUHandlerType4@2@XZ 00000001800187e0 f i libvcruntimed:frame.obj
 0001:00017810       ??Diterator@HandlerMap@__FrameHandler3@@QEAA?BU_s_HandlerType@@XZ 0000000180018810 f i libvcruntimed:frame.obj
 0001:00017850       ??Diterator@TryBlockMap@__FrameHandler3@@QEAA?BU_s_TryBlockMapEntry@@XZ 0000000180018850 f i libvcruntimed:frame.obj
 0001:000178a0       ??Diterator@UWMap4@FH4@@QEAA?AUUnwindMapEntry4@2@XZ 00000001800188a0 f i libvcruntimed:frame.obj
 0001:00017920       ??Eiterator@HandlerMap4@FH4@@QEAAAEAV012@XZ 0000000180018920 f i libvcruntimed:frame.obj
 0001:00017960       ??Eiterator@HandlerMap@__FrameHandler3@@QEAAAEAV012@XZ 0000000180018960 f i libvcruntimed:frame.obj
 0001:00017960       ??Eiterator@TryBlockMap@__FrameHandler3@@QEAAAEAV012@XZ 0000000180018960 f i libvcruntimed:frame.obj
 0001:00017980       ??Eiterator@UWMap4@FH4@@QEAAAEAV012@XZ 0000000180018980 f i libvcruntimed:frame.obj
 0001:000179c0       ??Giterator@UWMap4@FH4@@QEBA_JAEBV012@@Z 00000001800189c0 f i libvcruntimed:frame.obj
 0001:000179e0       ??Miterator@TryBlockMap4@FH4@@QEBA_NAEBV012@@Z 00000001800189e0 f i libvcruntimed:frame.obj
 0001:000179e0       ??Miterator@TryBlockMap@__FrameHandler3@@QEBA_NAEBV012@@Z 00000001800189e0 f i libvcruntimed:frame.obj
 0001:00017a20       ??Oiterator@UWMap4@FH4@@QEBA_NAEBV012@@Z 0000000180018a20 f i libvcruntimed:frame.obj
 0001:00017a60       ??Piterator@UWMap4@FH4@@QEBA_NAEBV012@@Z 0000000180018a60 f i libvcruntimed:frame.obj
 0001:00017aa0       ?BuildCatchObject@__FrameHandler3@@SAXPEAUEHExceptionRecord@@PEAXPEBU_s_HandlerType@@PEBU_s_CatchableType@@@Z 0000000180018aa0 f   libvcruntimed:frame.obj
 0001:00017ae0       ?BuildCatchObject@__FrameHandler4@@SAXPEAUEHExceptionRecord@@PEAXPEAUHandlerType4@FH4@@PEBU_s_CatchableType@@@Z 0000000180018ae0 f   libvcruntimed:frame.obj
 0001:00017b20       ?CxxCallCatchBlock@__FrameHandler3@@SAPEAXPEAU_EXCEPTION_RECORD@@@Z 0000000180018b20 f   libvcruntimed:frame.obj
 0001:00017d80       ?CxxCallCatchBlock@__FrameHandler4@@SAPEAXPEAU_EXCEPTION_RECORD@@@Z 0000000180018d80 f   libvcruntimed:frame.obj
 0001:000180b0       ?DecompHandler@HandlerMap4@FH4@@AEAAXXZ 00000001800190b0 f i libvcruntimed:frame.obj
 0001:00018480       ?FrameUnwindToState@__FrameHandler3@@SAXPEA_KPEAU_xDISPATCHER_CONTEXT@@PEBU_s_FuncInfo@@H@Z 0000000180019480 f   libvcruntimed:frame.obj
 0001:000186d0       ?FrameUnwindToState@__FrameHandler4@@SAXPEA_KPEAU_xDISPATCHER_CONTEXT@@PEAUFuncInfo4@FH4@@H@Z 00000001800196d0 f   libvcruntimed:frame.obj
 0001:000189e0       ?GetHandlerSearchState@__FrameHandler3@@SAHPEA_KPEAU_xDISPATCHER_CONTEXT@@PEBU_s_FuncInfo@@@Z 00000001800199e0 f i libvcruntimed:frame.obj
 0001:00018a90       ?GetHandlerSearchState@__FrameHandler4@@SAHPEA_KPEAU_xDISPATCHER_CONTEXT@@PEAUFuncInfo4@FH4@@@Z 0000000180019a90 f i libvcruntimed:frame.obj
 0001:00018b10       ?GetMaxState@__FrameHandler3@@SAHPEAU_xDISPATCHER_CONTEXT@@PEBU_s_FuncInfo@@@Z 0000000180019b10 f i libvcruntimed:frame.obj
 0001:00018b30       ?GetMaxState@__FrameHandler4@@SAHPEAU_xDISPATCHER_CONTEXT@@PEAUFuncInfo4@FH4@@@Z 0000000180019b30 f i libvcruntimed:frame.obj
 0001:00018d60       ?ReadEntry@UWMap4@FH4@@AEAAXPEAPEAE@Z 0000000180019d60 f i libvcruntimed:frame.obj
 0001:00018e10       ?TypeMatch@__FrameHandler3@@SAHPEBU_s_HandlerType@@PEBU_s_CatchableType@@PEBU_s_ThrowInfo@@@Z 0000000180019e10 f   libvcruntimed:frame.obj
 0001:00018e10       __TypeMatch                0000000180019e10 f   libvcruntimed:frame.obj
 0001:00018e40       ?TypeMatch@__FrameHandler4@@SAHPEAUHandlerType4@FH4@@PEBU_s_CatchableType@@PEBU_s_ThrowInfo@@@Z 0000000180019e40 f   libvcruntimed:frame.obj
 0001:00018e70       ?WalkBack@UWMap4@FH4@@AEAAXPEAPEAE@Z 0000000180019e70 f i libvcruntimed:frame.obj
 0001:00018ec0       ?WalkBack@iterator@UWMap4@FH4@@QEAAXXZ 0000000180019ec0 f i libvcruntimed:frame.obj
 0001:00018f00       ?WalkForward@UWMap4@FH4@@AEAAXPEAPEAE@Z 0000000180019f00 f i libvcruntimed:frame.obj
 0001:00018f30       ?_CallMemberFunction1@@YAXQEAX00@Z 0000000180019f30 f i libvcruntimed:frame.obj
 0001:00018f70       ?_CallMemberFunction2@@YAXQEAX00H@Z 0000000180019f70 f i libvcruntimed:frame.obj
 0001:00019000       ?begin@UWMap4@FH4@@QEAA?AViterator@12@XZ 000000018001a000 f i libvcruntimed:frame.obj
 0001:00019030       ?getESTypes@__FrameHandler3@@SAPEBU_s_ESTypeList@@PEBU_s_FuncInfo@@@Z 000000018001a030 f i libvcruntimed:frame.obj
 0001:00019070       ?getLastEntry@HandlerMap4@FH4@@QEAAPEAUHandlerType4@2@XZ 000000018001a070 f i libvcruntimed:frame.obj
 0001:000190b0       ?getLastEntry@HandlerMap@__FrameHandler3@@QEAAPEBU_s_HandlerType@@XZ 000000018001a0b0 f i libvcruntimed:frame.obj
 0001:000190d0       ?getMagicNum@__FrameHandler3@@SAIPEBU_s_FuncInfo@@@Z 000000018001a0d0 f i libvcruntimed:frame.obj
 0001:000190f0       ?getMagicNum@__FrameHandler4@@SAIPEAUFuncInfo4@FH4@@@Z 000000018001a0f0 f i libvcruntimed:frame.obj
 0001:00019100       ?getNumTryBlocks@TryBlockMap4@FH4@@QEAAIXZ 000000018001a100 f i libvcruntimed:frame.obj
 0001:00019110       ?getNumTryBlocks@TryBlockMap@__FrameHandler3@@QEAAIXZ 000000018001a110 f i libvcruntimed:frame.obj
 0001:00019130       ?getStartStop@UWMap4@FH4@@QEAAXHHAEAViterator@12@0@Z 000000018001a130 f i libvcruntimed:frame.obj
 0001:00019250       ?getStateFromIterators@UWMap4@FH4@@SAHAEBViterator@12@H0H0@Z 000000018001a250 f i libvcruntimed:frame.obj
 0001:00019390       ?isEHs@__FrameHandler3@@SA_NPEBU_s_FuncInfo@@@Z 000000018001a390 f i libvcruntimed:frame.obj
 0001:000193d0       ?isEHs@__FrameHandler4@@SA_NPEAUFuncInfo4@FH4@@@Z 000000018001a3d0 f i libvcruntimed:frame.obj
 0001:000193f0       ?isNoExcept@__FrameHandler3@@SA_NPEBU_s_FuncInfo@@@Z 000000018001a3f0 f i libvcruntimed:frame.obj
 0001:00019430       ?isNoExcept@__FrameHandler4@@SA_NPEAUFuncInfo4@FH4@@@Z 000000018001a430 f i libvcruntimed:frame.obj
 0001:00019450       ?reset@HandlerType4@FH4@@QEAAXXZ 000000018001a450 f i libvcruntimed:frame.obj
 0001:000194b0       ?resetBuffer@HandlerMap4@FH4@@QEAAXXZ 000000018001a4b0 f i libvcruntimed:frame.obj
 0001:000194d0       ?setBuffer@HandlerMap4@FH4@@QEAAXI@Z 000000018001a4d0 f i libvcruntimed:frame.obj
 0001:00019530       __vcrt_EncodePointer       000000018001a530 f i libvcruntimed:frame.obj
 0001:00019560       _NLG_Notify                000000018001a560 f   libvcruntimed:notify.obj
 0001:00019580       __NLG_Dispatch2            000000018001a580 f   libvcruntimed:notify.obj
 0001:00019590       __NLG_Return2              000000018001a590 f   libvcruntimed:notify.obj
 0001:000195a0       __except_validate_context_record 000000018001a5a0 f   libvcruntimed:jbcxrval.obj
 0001:00019600       __vcrt_initialize_locks    000000018001a600 f   libvcruntimed:locks.obj
 0001:00019670       __vcrt_uninitialize_locks  000000018001a670 f   libvcruntimed:locks.obj
 0001:000196d0       ??$__crt_interlocked_exchange_pointer@UHINSTANCE__@@PEAU1@@@YAPEAUHINSTANCE__@@PEDSEAU0@QEAU0@@Z 000000018001a6d0 f i libvcruntimed:winapi_downlevel.obj
 0001:000196d0       ??$__crt_interlocked_exchange_pointer@UHINSTANCE__@@PEAX@@YAPEAUHINSTANCE__@@PEDSEAU0@QEAX@Z 000000018001a6d0 f i libvcruntimed:winapi_downlevel.obj
 0001:000196d0       ??$__crt_interlocked_exchange_pointer@XPEAX@@YAPEAXPEDSEAXQEAX@Z 000000018001a6d0 f i libvcruntimed:winapi_downlevel.obj
 0001:000196f0       ?get_invalid_value@__crt_findfile_traits@@SAPEAXXZ 000000018001a6f0 f   libucrtd:argv_wildcards.obj
 0001:00019be0       __vcrt_FlsAlloc            000000018001abe0 f   libvcruntimed:winapi_downlevel.obj
 0001:00019c30       __vcrt_FlsFree             000000018001ac30 f   libvcruntimed:winapi_downlevel.obj
 0001:00019c80       __vcrt_FlsGetValue         000000018001ac80 f   libvcruntimed:winapi_downlevel.obj
 0001:00019cd0       __vcrt_FlsSetValue         000000018001acd0 f   libvcruntimed:winapi_downlevel.obj
 0001:00019d30       __vcrt_InitializeCriticalSectionEx 000000018001ad30 f   libvcruntimed:winapi_downlevel.obj
 0001:00019db0       _CallSettingFrame          000000018001adb0 f   libvcruntimed:handlers.obj
 0001:00019e00       _CallSettingFrame_LookupContinuationIndex 000000018001ae00 f   libvcruntimed:handlers.obj
 0001:00019e30       _CallSettingFrame_NotifyContinuationAddr 000000018001ae30 f   libvcruntimed:handlers.obj
 0001:00019e60       _CallSettingFrameEncoded   000000018001ae60 f   libvcruntimed:handlers.obj
 0001:00019eb0       ??$__crt_fast_decode_pointer@P6AXXZ@@YAP6AXXZQ6AXXZ@Z 000000018001aeb0 f i libucrtd:onexit.obj
 0001:00019eb0       ??$__crt_fast_decode_pointer@P6AXPEB_W00I_K@Z@@YAP6AXPEB_W00I_K@ZQ6AX000I1@Z@Z 000000018001aeb0 f i libucrtd:invalid_parameter.obj
 0001:00019eb0       ??$__crt_fast_decode_pointer@P6AHPEA_WK_J@Z@@YAP6AHPEA_WK_J@ZQ6AH0K1@Z@Z 000000018001aeb0 f i libucrtd:winapi_thunks.obj
 0001:00019eb0       ??$__crt_fast_decode_pointer@P6AXH@Z@@YAP6AXH@ZQ6AXH@Z@Z 000000018001aeb0 f i libucrtd:signal.obj
 0001:00019eb0       ??$__crt_fast_decode_pointer@P6AXPEAXK0@Z@@YAP6AXPEAXK0@ZQ6AX0K0@Z@Z 000000018001aeb0 f i libucrtd:exit.obj
 0001:00019eb0       ??$__crt_fast_decode_pointer@P6AHPEAU_exception@@@Z@@YAP6AHPEAU_exception@@@ZQ6AH0@Z@Z 000000018001aeb0 f i libucrtd:matherr.obj
 0001:00019eb0       ??$__crt_fast_decode_pointer@PEAX@@YAPEAXQEAX@Z 000000018001aeb0 f i libucrtd:winapi_thunks.obj
 0001:00019eb0       ??$__crt_fast_decode_pointer@PEAP6AXXZ@@YAPEAP6AXXZQEAP6AXXZ@Z 000000018001aeb0 f i libucrtd:onexit.obj
 0001:00019eb0       ??$__crt_fast_decode_pointer@P6AH_K@Z@@YAP6AH_K@ZQ6AH0@Z@Z 000000018001aeb0 f i libucrtd:new_handler.obj
 0001:00019ef0       ??$initialize_from_array@$$BY00Q6AXPEB_W00I_K@Z@?$dual_state_global@P6AXPEB_W00I_K@Z@__crt_state_management@@QEAAXAEAY00Q6AXPEB_W00I_K@Z@Z 000000018001aef0 f i libucrtd:invalid_parameter.obj
 0001:00019f50       ?__crt_rotate_pointer_value@@YA_K_KH@Z 000000018001af50 f i libucrtd:invalid_parameter.obj
 0001:00019f70       ?get_current_state_index@__crt_state_management@@YA_KXZ 000000018001af70 f i libucrtd:invalid_parameter.obj
 0001:00019f70       ?get_invalid_value@__crt_hmodule_traits@@SAPEAUHINSTANCE__@@XZ 000000018001af70 f i libucrtd:exit.obj
 0001:00019f80       ?value@?$dual_state_global@P6AXH@Z@__crt_state_management@@QEAAAEAP6AXH@ZXZ 000000018001af80 f i libucrtd:signal.obj
 0001:00019f80       ?value@?$dual_state_global@P6AHPEAU_exception@@@Z@__crt_state_management@@QEAAAEAP6AHPEAU_exception@@@ZXZ 000000018001af80 f i libucrtd:matherr.obj
 0001:00019f80       ?value@?$dual_state_global@P6AH_K@Z@__crt_state_management@@QEAAAEAP6AH_K@ZXZ 000000018001af80 f i libucrtd:new_handler.obj
 0001:00019f80       ?value@?$dual_state_global@P6AXPEB_W00I_K@Z@__crt_state_management@@QEAAAEAP6AXPEB_W00I_K@ZXZ 000000018001af80 f i libucrtd:invalid_parameter.obj
 0001:00019f80       ?value@?$dual_state_global@PEAE@__crt_state_management@@QEAAAEAPEAEXZ 000000018001af80 f i libucrtd:mbctype.obj
 0001:00019f80       ?value@?$dual_state_global@PEAU__crt_multibyte_data@@@__crt_state_management@@QEAAAEAPEAU__crt_multibyte_data@@XZ 000000018001af80 f i libucrtd:locale_update.obj
 0001:00019f80       ?value@?$dual_state_global@PEAU__crt_locale_data@@@__crt_state_management@@QEAAAEAPEAU__crt_locale_data@@XZ 000000018001af80 f i libucrtd:per_thread_data.obj
 0001:00019fa0       __acrt_call_reportfault    000000018001afa0 f   libucrtd:invalid_parameter.obj
 0001:0001a0d0       __acrt_initialize_invalid_parameter_handler 000000018001b0d0 f   libucrtd:invalid_parameter.obj
 0001:0001a100       _invalid_parameter         000000018001b100 f   libucrtd:invalid_parameter.obj
 0001:0001a200       _invalid_parameter_noinfo  000000018001b200 f   libucrtd:invalid_parameter.obj
 0001:0001a230       _invoke_watson             000000018001b230 f   libucrtd:invalid_parameter.obj
 0001:0001a290       ??0_LocaleUpdate@@QEAA@QEAU__crt_locale_pointers@@@Z 000000018001b290 f i libucrtd:debug_heap.obj
 0001:0001a3b0       ??1_LocaleUpdate@@QEAA@XZ  000000018001b3b0 f i libucrtd:debug_heap.obj
 0001:0001a3e0       ?GetLocaleT@_LocaleUpdate@@QEAAPEAU__crt_locale_pointers@@XZ 000000018001b3e0 f i libucrtd:debug_heap.obj
 0001:0001c3c0       _CrtCheckMemory            000000018001d3c0 f   libucrtd:debug_heap.obj
 0001:0001c550       _CrtDumpMemoryLeaks        000000018001d550 f   libucrtd:debug_heap.obj
 0001:0001c610       _CrtIsValidHeapPointer     000000018001d610 f   libucrtd:debug_heap.obj
 0001:0001c650       _CrtIsValidPointer         000000018001d650 f   libucrtd:debug_heap.obj
 0001:0001c690       _CrtMemCheckpoint          000000018001d690 f   libucrtd:debug_heap.obj
 0001:0001c910       _CrtMemDumpAllObjectsSince 000000018001d910 f   libucrtd:debug_heap.obj
 0001:0001c970       _CrtSetDbgFlag             000000018001d970 f   libucrtd:debug_heap.obj
 0001:0001cad0       _CrtSetDumpClient          000000018001dad0 f   libucrtd:debug_heap.obj
 0001:0001cb00       __acrt_disable_global_locale_sync 000000018001db00 f i libucrtd:debug_heap.obj
 0001:0001cb30       __acrt_enable_global_locale_sync 000000018001db30 f i libucrtd:debug_heap.obj
 0001:0001cb60       __acrt_get_locale_data_prefix 000000018001db60 f i libucrtd:debug_heap.obj
 0001:0001cb80       __acrt_locale_changed      000000018001db80 f i libucrtd:debug_heap.obj
 0001:0001cbb0       _calloc_dbg                000000018001dbb0 f   libucrtd:debug_heap.obj
 0001:0001cc50       _chvalidchk_l              000000018001dc50 f i libucrtd:debug_heap.obj
 0001:0001cc80       _free_dbg                  000000018001dc80 f   libucrtd:debug_heap.obj
 0001:0001ccf0       _invoke_watson_if_oneof    000000018001dcf0 f i libucrtd:debug_heap.obj
 0001:0001cd50       _ischartype_l              000000018001dd50 f i libucrtd:debug_heap.obj
 0001:0001cde0       _malloc_dbg                000000018001dde0 f   libucrtd:debug_heap.obj
 0001:0001ce20       _msize_dbg                 000000018001de20 f   libucrtd:debug_heap.obj
 0001:0001cfc0       _realloc_dbg               000000018001dfc0 f   libucrtd:debug_heap.obj
 0001:0001d030       _recalloc_dbg              000000018001e030 f   libucrtd:debug_heap.obj
 0001:0001dee0       ??$get_module_file_name@AEAPEAUHINSTANCE__@@AEAY0BAF@DK@?$__crt_char_traits@D@@SAKAEAPEAUHINSTANCE__@@AEAY0BAF@D$$QEAK@Z 000000018001eee0 f i libucrtd:dbgrpt.obj
 0001:0001dee0       ??$get_module_file_name@$$TAEAY0BAF@DH@?$__crt_char_traits@D@@SAK$$QEA$$TAEAY0BAF@D$$QEAH@Z 000000018001eee0 f i libucrtd:argv_parsing.obj
 0001:0001df20       ??$get_module_file_name@AEAPEAUHINSTANCE__@@AEAY0BAF@_WK@?$__crt_char_traits@_W@@SAKAEAPEAUHINSTANCE__@@AEAY0BAF@_W$$QEAK@Z 000000018001ef20 f i libucrtd:dbgrpt.obj
 0001:0001df60       ??$tcscpy_s@AEAY0BAF@D_KPEBD@?$__crt_char_traits@D@@SAHAEAY0BAF@D$$QEA_K$$QEAPEBD@Z 000000018001ef60 f i libucrtd:dbgrpt.obj
 0001:0001dfa0       ??$tcscpy_s@AEAY0BAF@_W_KPEB_W@?$__crt_char_traits@_W@@SAHAEAY0BAF@_W$$QEA_K$$QEAPEB_W@Z 000000018001efa0 f i libucrtd:dbgrpt.obj
 0001:0001dfe0       ??$tcslen@AEAY0BAF@D@?$__crt_char_traits@D@@SA_KAEAY0BAF@D@Z 000000018001efe0 f i libucrtd:dbgrpt.obj
 0001:0001e000       ??$tcslen@AEAY0BAF@_W@?$__crt_char_traits@_W@@SA_KAEAY0BAF@_W@Z 000000018001f000 f i libucrtd:dbgrpt.obj
 0001:0001e020       ??$tcslen@AEBQEBD@?$__crt_char_traits@D@@SA_KAEBQEBD@Z 000000018001f020 f i libucrtd:dbgrpt.obj
 0001:0001e040       ??$tcslen@AEBQEB_W@?$__crt_char_traits@_W@@SA_KAEBQEB_W@Z 000000018001f040 f i libucrtd:dbgrpt.obj
 0001:0001e040       ??$tcslen@AEBQEA_W@?$__crt_char_traits@_W@@SA_KAEBQEA_W@Z 000000018001f040 f i libucrtd:assert.obj
 0001:0001e0a0       _CrtDbgReport              000000018001f0a0 f   libucrtd:dbgrpt.obj
 0001:0001e120       _CrtDbgReportW             000000018001f120 f   libucrtd:dbgrpt.obj
 0001:0001e1a0       __acrt_MessageWindowA      000000018001f1a0 f   libucrtd:dbgrpt.obj
 0001:0001e1f0       __acrt_MessageWindowW      000000018001f1f0 f   libucrtd:dbgrpt.obj
 0001:0001e240       _invoke_watson_if_error    000000018001f240 f i libucrtd:dbgrpt.obj
 0001:0001e290       _snwprintf_s               000000018001f290 f i libucrtd:dbgrpt.obj
 0001:0001e300       _vsnwprintf_s_l            000000018001f300 f i libucrtd:dbgrpt.obj
 0001:0001e380       _fdlog                     000000018001f380 f   libucrtd:log2f.obj
 0001:0001e630       log2f                      000000018001f630 f   libucrtd:log2f.obj
 0001:0001e650       free                       000000018001f650 f   libucrtd:free.obj
 0001:0001e680       ??$?0AEBV?$stream_output_adapter@_W@__crt_stdio_output@@AEB_KAEBQEB_WAEBQEAU__crt_locale_pointers@@AEBQEAD@?$standard_base@_WV?$stream_output_adapter@_W@__crt_stdio_output@@@__crt_stdio_output@@IEAA@AEBV?$stream_output_adapter@_W@1@AEB_KAEBQEB_WAEBQEAU__crt_locale_pointers@@AEBQEAD@Z 000000018001f680 f i libucrtd:output.obj
 0001:0001e680       ??$?0AEBV?$string_output_adapter@_W@__crt_stdio_output@@AEB_KAEBQEB_WAEBQEAU__crt_locale_pointers@@AEBQEAD@?$standard_base@_WV?$string_output_adapter@_W@__crt_stdio_output@@@__crt_stdio_output@@IEAA@AEBV?$string_output_adapter@_W@1@AEB_KAEBQEB_WAEBQEAU__crt_locale_pointers@@AEBQEAD@Z 000000018001f680 f i libucrtd:output.obj
 0001:0001e6f0       ??$?0AEBV?$string_output_adapter@D@__crt_stdio_output@@AEB_KAEBQEBDAEBQEAU__crt_locale_pointers@@AEBQEAD@?$format_validation_base@DV?$string_output_adapter@D@__crt_stdio_output@@@__crt_stdio_output@@IEAA@AEBV?$string_output_adapter@D@1@AEB_KAEBQEBDAEBQEAU__crt_locale_pointers@@AEBQEAD@Z 000000018001f6f0 f i libucrtd:output.obj
 0001:0001e740       ??$?0AEBV?$string_output_adapter@D@__crt_stdio_output@@AEB_KAEBQEBDAEBQEAU__crt_locale_pointers@@AEBQEAD@?$standard_base@DV?$string_output_adapter@D@__crt_stdio_output@@@__crt_stdio_output@@IEAA@AEBV?$string_output_adapter@D@1@AEB_KAEBQEBDAEBQEAU__crt_locale_pointers@@AEBQEAD@Z 000000018001f740 f i libucrtd:output.obj
 0001:0001e7b0       ??$?0AEBV?$string_output_adapter@_W@__crt_stdio_output@@AEB_KAEBQEB_WAEBQEAU__crt_locale_pointers@@AEBQEAD@?$format_validation_base@_WV?$string_output_adapter@_W@__crt_stdio_output@@@__crt_stdio_output@@IEAA@AEBV?$string_output_adapter@_W@1@AEB_KAEBQEB_WAEBQEAU__crt_locale_pointers@@AEBQEAD@Z 000000018001f7b0 f i libucrtd:output.obj
 0001:0001e8a0       ??$__crt_interlocked_read@J@@YAJPEDJ@Z 000000018001f8a0 f i libucrtd:output.obj
 0001:00020d40       ??$count@D@formatting_buffer@__crt_stdio_output@@QEBA_KXZ 0000000180021d40 f i libucrtd:output.obj
 0001:00020d90       ??$count@_W@formatting_buffer@__crt_stdio_output@@QEBA_KXZ 0000000180021d90 f i libucrtd:output.obj
 0001:00020de0       ??$data@D@formatting_buffer@__crt_stdio_output@@QEAAPEADXZ 0000000180021de0 f i libucrtd:output.obj
 0001:00020de0       ??$data@_W@formatting_buffer@__crt_stdio_output@@QEAAPEA_WXZ 0000000180021de0 f i libucrtd:output.obj
 0001:00020e30       ??$ensure_buffer_is_big_enough@D@formatting_buffer@__crt_stdio_output@@QEAA_N_K@Z 0000000180021e30 f i libucrtd:output.obj
 0001:00020f60       ??$ensure_buffer_is_big_enough@_W@formatting_buffer@__crt_stdio_output@@QEAA_N_K@Z 0000000180021f60 f i libucrtd:output.obj
 0001:00021090       ??$extract_argument_from_va_list@C_J@?$standard_base@_WV?$stream_output_adapter@_W@__crt_stdio_output@@@__crt_stdio_output@@IEAA_NAEA_J@Z 0000000180022090 f i libucrtd:output.obj
 0001:00021090       ??$extract_argument_from_va_list@C_J@?$standard_base@_WV?$string_output_adapter@_W@__crt_stdio_output@@@__crt_stdio_output@@IEAA_NAEA_J@Z 0000000180022090 f i libucrtd:output.obj
 0001:00021090       ??$extract_argument_from_va_list@C_J@?$standard_base@DV?$string_output_adapter@D@__crt_stdio_output@@@__crt_stdio_output@@IEAA_NAEA_J@Z 0000000180022090 f i libucrtd:output.obj
 0001:000210d0       ??$extract_argument_from_va_list@E_J@?$standard_base@DV?$string_output_adapter@D@__crt_stdio_output@@@__crt_stdio_output@@IEAA_NAEA_J@Z 00000001800220d0 f i libucrtd:output.obj
 0001:000210d0       ??$extract_argument_from_va_list@E_J@?$standard_base@_WV?$stream_output_adapter@_W@__crt_stdio_output@@@__crt_stdio_output@@IEAA_NAEA_J@Z 00000001800220d0 f i libucrtd:output.obj
 0001:000210d0       ??$extract_argument_from_va_list@E_J@?$standard_base@_WV?$string_output_adapter@_W@__crt_stdio_output@@@__crt_stdio_output@@IEAA_NAEA_J@Z 00000001800220d0 f i libucrtd:output.obj
 0001:00021110       ??$extract_argument_from_va_list@F_J@?$standard_base@DV?$string_output_adapter@D@__crt_stdio_output@@@__crt_stdio_output@@IEAA_NAEA_J@Z 0000000180022110 f i libucrtd:output.obj
 0001:00021110       ??$extract_argument_from_va_list@F_J@?$standard_base@_WV?$stream_output_adapter@_W@__crt_stdio_output@@@__crt_stdio_output@@IEAA_NAEA_J@Z 0000000180022110 f i libucrtd:output.obj
 0001:00021110       ??$extract_argument_from_va_list@F_J@?$standard_base@_WV?$string_output_adapter@_W@__crt_stdio_output@@@__crt_stdio_output@@IEAA_NAEA_J@Z 0000000180022110 f i libucrtd:output.obj
 0001:00021150       ??$extract_argument_from_va_list@GD@?$standard_base@DV?$string_output_adapter@D@__crt_stdio_output@@@__crt_stdio_output@@IEAA_NAEAD@Z 0000000180022150 f i libucrtd:output.obj
 0001:00021180       ??$extract_argument_from_va_list@G_J@?$standard_base@DV?$string_output_adapter@D@__crt_stdio_output@@@__crt_stdio_output@@IEAA_NAEA_J@Z 0000000180022180 f i libucrtd:output.obj
 0001:00021180       ??$extract_argument_from_va_list@G_J@?$standard_base@_WV?$string_output_adapter@_W@__crt_stdio_output@@@__crt_stdio_output@@IEAA_NAEA_J@Z 0000000180022180 f i libucrtd:output.obj
 0001:00021180       ??$extract_argument_from_va_list@G_J@?$standard_base@_WV?$stream_output_adapter@_W@__crt_stdio_output@@@__crt_stdio_output@@IEAA_NAEA_J@Z 0000000180022180 f i libucrtd:output.obj
 0001:000211c0       ??$extract_argument_from_va_list@H_J@?$standard_base@_WV?$string_output_adapter@_W@__crt_stdio_output@@@__crt_stdio_output@@IEAA_NAEA_J@Z 00000001800221c0 f i libucrtd:output.obj
 0001:000211c0       ??$extract_argument_from_va_list@H_J@?$standard_base@_WV?$stream_output_adapter@_W@__crt_stdio_output@@@__crt_stdio_output@@IEAA_NAEA_J@Z 00000001800221c0 f i libucrtd:output.obj
 0001:000211c0       ??$extract_argument_from_va_list@H_J@?$standard_base@DV?$string_output_adapter@D@__crt_stdio_output@@@__crt_stdio_output@@IEAA_NAEA_J@Z 00000001800221c0 f i libucrtd:output.obj
 0001:000211f0       ??$extract_argument_from_va_list@I_J@?$standard_base@_WV?$string_output_adapter@_W@__crt_stdio_output@@@__crt_stdio_output@@IEAA_NAEA_J@Z 00000001800221f0 f i libucrtd:output.obj
 0001:000211f0       ??$extract_argument_from_va_list@I_J@?$standard_base@DV?$string_output_adapter@D@__crt_stdio_output@@@__crt_stdio_output@@IEAA_NAEA_J@Z 00000001800221f0 f i libucrtd:output.obj
 0001:000211f0       ??$extract_argument_from_va_list@I_J@?$standard_base@_WV?$stream_output_adapter@_W@__crt_stdio_output@@@__crt_stdio_output@@IEAA_NAEA_J@Z 00000001800221f0 f i libucrtd:output.obj
 0001:00021220       ??$extract_argument_from_va_list@PEAUansi_string@?1??type_case_Z@?$output_processor@DV?$string_output_adapter@D@__crt_stdio_output@@V?$standard_base@DV?$string_output_adapter@D@__crt_stdio_output@@@2@@__crt_stdio_output@@AEAA_NXZ@PEAU1?1??234@AEAA_NXZ@@?$standard_base@DV?$string_output_adapter@D@__crt_stdio_output@@@__crt_stdio_output@@IEAA_NAEAPEAUansi_string@?1??type_case_Z@?$output_processor@DV?$string_output_adapter@D@__crt_stdio_output@@V?$standard_base@DV?$string_output_adapter@D@__crt_stdio_output@@@2@@1@AEAA_NXZ@@Z 0000000180022220 f i libucrtd:output.obj
 0001:00021220       ??$extract_argument_from_va_list@_J_J@?$standard_base@_WV?$string_output_adapter@_W@__crt_stdio_output@@@__crt_stdio_output@@IEAA_NAEA_J@Z 0000000180022220 f i libucrtd:output.obj
 0001:00021220       ??$extract_argument_from_va_list@PEAUansi_string@?1??type_case_Z@?$output_processor@_WV?$string_output_adapter@_W@__crt_stdio_output@@V?$standard_base@_WV?$string_output_adapter@_W@__crt_stdio_output@@@2@@__crt_stdio_output@@AEAA_NXZ@PEAU1?1??234@AEAA_NXZ@@?$standard_base@_WV?$string_output_adapter@_W@__crt_stdio_output@@@__crt_stdio_output@@IEAA_NAEAPEAUansi_string@?1??type_case_Z@?$output_processor@_WV?$string_output_adapter@_W@__crt_stdio_output@@V?$standard_base@_WV?$string_output_adapter@_W@__crt_stdio_output@@@2@@1@AEAA_NXZ@@Z 0000000180022220 f i libucrtd:output.obj
 0001:00021220       ??$extract_argument_from_va_list@_K_J@?$standard_base@_WV?$stream_output_adapter@_W@__crt_stdio_output@@@__crt_stdio_output@@IEAA_NAEA_J@Z 0000000180022220 f i libucrtd:output.obj
 0001:00021220       ??$extract_argument_from_va_list@_J_J@?$standard_base@_WV?$stream_output_adapter@_W@__crt_stdio_output@@@__crt_stdio_output@@IEAA_NAEA_J@Z 0000000180022220 f i libucrtd:output.obj
 0001:00021220       ??$extract_argument_from_va_list@PEAUansi_string@?1??type_case_Z@?$output_processor@_WV?$stream_output_adapter@_W@__crt_stdio_output@@V?$standard_base@_WV?$stream_output_adapter@_W@__crt_stdio_output@@@2@@__crt_stdio_output@@AEAA_NXZ@PEAU1?1??234@AEAA_NXZ@@?$standard_base@_WV?$stream_output_adapter@_W@__crt_stdio_output@@@__crt_stdio_output@@IEAA_NAEAPEAUansi_string@?1??type_case_Z@?$output_processor@_WV?$stream_output_adapter@_W@__crt_stdio_output@@V?$standard_base@_WV?$stream_output_adapter@_W@__crt_stdio_output@@@2@@1@AEAA_NXZ@@Z 0000000180022220 f i libucrtd:output.obj
 0001:00021220       ??$extract_argument_from_va_list@PEAXPEAX@?$standard_base@_WV?$stream_output_adapter@_W@__crt_stdio_output@@@__crt_stdio_output@@IEAA_NAEAPEAX@Z 0000000180022220 f i libucrtd:output.obj
 0001:00021220       ??$extract_argument_from_va_list@PEADPEAD@?$standard_base@_WV?$string_output_adapter@_W@__crt_stdio_output@@@__crt_stdio_output@@IEAA_NAEAPEAD@Z 0000000180022220 f i libucrtd:output.obj
 0001:00021220       ??$extract_argument_from_va_list@PEAUansi_string@?1??type_case_Z@?$output_processor@_WV?$string_output_adapter@_W@__crt_stdio_output@@V?$format_validation_base@_WV?$string_output_adapter@_W@__crt_stdio_output@@@2@@__crt_stdio_output@@AEAA_NXZ@PEAU1?1??234@AEAA_NXZ@@?$standard_base@_WV?$string_output_adapter@_W@__crt_stdio_output@@@__crt_stdio_output@@IEAA_NAEAPEAUansi_string@?1??type_case_Z@?$output_processor@_WV?$string_output_adapter@_W@__crt_stdio_output@@V?$format_validation_base@_WV?$string_output_adapter@_W@__crt_stdio_output@@@2@@1@AEAA_NXZ@@Z 0000000180022220 f i libucrtd:output.obj
 0001:00021220       ??$extract_argument_from_va_list@PEAXPEAX@?$standard_base@DV?$string_output_adapter@D@__crt_stdio_output@@@__crt_stdio_output@@IEAA_NAEAPEAX@Z 0000000180022220 f i libucrtd:output.obj
 0001:00021220       ??$extract_argument_from_va_list@_J_J@?$standard_base@DV?$string_output_adapter@D@__crt_stdio_output@@@__crt_stdio_output@@IEAA_NAEA_J@Z 0000000180022220 f i libucrtd:output.obj
 0001:00021220       ??$extract_argument_from_va_list@PEAUansi_string@?1??type_case_Z@?$output_processor@DV?$string_output_adapter@D@__crt_stdio_output@@V?$format_validation_base@DV?$string_output_adapter@D@__crt_stdio_output@@@2@@__crt_stdio_output@@AEAA_NXZ@PEAU1?1??234@AEAA_NXZ@@?$standard_base@DV?$string_output_adapter@D@__crt_stdio_output@@@__crt_stdio_output@@IEAA_NAEAPEAUansi_string@?1??type_case_Z@?$output_processor@DV?$string_output_adapter@D@__crt_stdio_output@@V?$format_validation_base@DV?$string_output_adapter@D@__crt_stdio_output@@@2@@1@AEAA_NXZ@@Z 0000000180022220 f i libucrtd:output.obj
 0001:00021220       ??$extract_argument_from_va_list@PEAXPEAX@?$standard_base@_WV?$string_output_adapter@_W@__crt_stdio_output@@@__crt_stdio_output@@IEAA_NAEAPEAX@Z 0000000180022220 f i libucrtd:output.obj
 0001:00021220       ??$extract_argument_from_va_list@PEADPEAD@?$standard_base@DV?$string_output_adapter@D@__crt_stdio_output@@@__crt_stdio_output@@IEAA_NAEAPEAD@Z 0000000180022220 f i libucrtd:output.obj
 0001:00021220       ??$extract_argument_from_va_list@PEADPEAD@?$standard_base@_WV?$stream_output_adapter@_W@__crt_stdio_output@@@__crt_stdio_output@@IEAA_NAEAPEAD@Z 0000000180022220 f i libucrtd:output.obj
 0001:00021220       ??$extract_argument_from_va_list@_K_J@?$standard_base@_WV?$string_output_adapter@_W@__crt_stdio_output@@@__crt_stdio_output@@IEAA_NAEA_J@Z 0000000180022220 f i libucrtd:output.obj
 0001:00021220       ??$extract_argument_from_va_list@_K_J@?$standard_base@DV?$string_output_adapter@D@__crt_stdio_output@@@__crt_stdio_output@@IEAA_NAEA_J@Z 0000000180022220 f i libucrtd:output.obj
 0001:00021250       ??$extract_argument_from_va_list@U_CRT_DOUBLE@@U1@@?$standard_base@_WV?$string_output_adapter@_W@__crt_stdio_output@@@__crt_stdio_output@@IEAA_NAEAU_CRT_DOUBLE@@@Z 0000000180022250 f i libucrtd:output.obj
 0001:00021250       ??$extract_argument_from_va_list@U_CRT_DOUBLE@@U1@@?$standard_base@_WV?$stream_output_adapter@_W@__crt_stdio_output@@@__crt_stdio_output@@IEAA_NAEAU_CRT_DOUBLE@@@Z 0000000180022250 f i libucrtd:output.obj
 0001:00021250       ??$extract_argument_from_va_list@U_CRT_DOUBLE@@U1@@?$standard_base@DV?$string_output_adapter@D@__crt_stdio_output@@@__crt_stdio_output@@IEAA_NAEAU_CRT_DOUBLE@@@Z 0000000180022250 f i libucrtd:output.obj
 0001:000212a0       ??$extract_argument_from_va_list@_W_W@?$standard_base@_WV?$stream_output_adapter@_W@__crt_stdio_output@@@__crt_stdio_output@@IEAA_NAEA_W@Z 00000001800222a0 f i libucrtd:output.obj
 0001:000212a0       ??$extract_argument_from_va_list@_W_W@?$standard_base@_WV?$string_output_adapter@_W@__crt_stdio_output@@@__crt_stdio_output@@IEAA_NAEA_W@Z 00000001800222a0 f i libucrtd:output.obj
 0001:000212a0       ??$extract_argument_from_va_list@_W_W@?$standard_base@DV?$string_output_adapter@D@__crt_stdio_output@@@__crt_stdio_output@@IEAA_NAEA_W@Z 00000001800222a0 f i libucrtd:output.obj
 0001:000212d0       ??$is_wide_character_specifier@D@__crt_stdio_output@@YA_N_KDW4length_modifier@0@@Z 00000001800222d0 f i libucrtd:output.obj
 0001:00021370       ??$is_wide_character_specifier@_W@__crt_stdio_output@@YA_N_K_WW4length_modifier@0@@Z 0000000180022370 f i libucrtd:output.obj
 0001:00021440       ??$puttc_nolock@AEB_WPEAU_iobuf@@@?$__crt_char_traits@_W@@SAGAEB_W$$QEAPEAU_iobuf@@@Z 0000000180022440 f i libucrtd:output.obj
 0001:00021470       ??$read_va_arg@E@__crt_stdio_output@@YAEAEAPEAD@Z 0000000180022470 f i libucrtd:output.obj
 0001:00021470       ??$read_va_arg@C@__crt_stdio_output@@YACAEAPEAD@Z 0000000180022470 f i libucrtd:output.obj
 0001:000214e0       ??$read_va_arg@_W@__crt_stdio_output@@YA_WAEAPEAD@Z 00000001800224e0 f i libucrtd:output.obj
 0001:000214e0       ??$read_va_arg@F@__crt_stdio_output@@YAFAEAPEAD@Z 00000001800224e0 f i libucrtd:output.obj
 0001:000214e0       ??$read_va_arg@G@__crt_stdio_output@@YAGAEAPEAD@Z 00000001800224e0 f i libucrtd:output.obj
 0001:00021550       ??$read_va_arg@I@__crt_stdio_output@@YAIAEAPEAD@Z 0000000180022550 f i libucrtd:output.obj
 0001:00021550       ??$read_va_arg@H@__crt_stdio_output@@YAHAEAPEAD@Z 0000000180022550 f i libucrtd:output.obj
 0001:000215b0       ??$read_va_arg@_J@__crt_stdio_output@@YA_JAEAPEAD@Z 00000001800225b0 f i libucrtd:output.obj
 0001:000215b0       ??$read_va_arg@_K@__crt_stdio_output@@YA_KAEAPEAD@Z 00000001800225b0 f i libucrtd:output.obj
 0001:000215b0       ??$read_va_arg@U_CRT_DOUBLE@@@__crt_stdio_output@@YA?AU_CRT_DOUBLE@@AEAPEAD@Z 00000001800225b0 f i libucrtd:output.obj
 0001:000215b0       ??$read_va_arg@PEAUansi_string@?1??type_case_Z@?$output_processor@DV?$string_output_adapter@D@__crt_stdio_output@@V?$standard_base@DV?$string_output_adapter@D@__crt_stdio_output@@@2@@__crt_stdio_output@@AEAA_NXZ@@__crt_stdio_output@@YAPEAUansi_string@?1??type_case_Z@?$output_processor@DV?$string_output_adapter@D@__crt_stdio_output@@V?$standard_base@DV?$string_output_adapter@D@__crt_stdio_output@@@2@@0@AEAA_NXZ@AEAPEAD@Z 00000001800225b0 f i libucrtd:output.obj
 0001:000215b0       ??$read_va_arg@PEAX@__crt_stdio_output@@YAPEAXAEAPEAD@Z 00000001800225b0 f i libucrtd:output.obj
 0001:000215b0       ??$read_va_arg@PEAUansi_string@?1??type_case_Z@?$output_processor@_WV?$string_output_adapter@_W@__crt_stdio_output@@V?$format_validation_base@_WV?$string_output_adapter@_W@__crt_stdio_output@@@2@@__crt_stdio_output@@AEAA_NXZ@@__crt_stdio_output@@YAPEAUansi_string@?1??type_case_Z@?$output_processor@_WV?$string_output_adapter@_W@__crt_stdio_output@@V?$format_validation_base@_WV?$string_output_adapter@_W@__crt_stdio_output@@@2@@0@AEAA_NXZ@AEAPEAD@Z 00000001800225b0 f i libucrtd:output.obj
 0001:000215b0       ??$read_va_arg@PEAD@__crt_stdio_output@@YAPEADAEAPEAD@Z 00000001800225b0 f i libucrtd:output.obj
 0001:000215b0       ??$read_va_arg@PEAUansi_string@?1??type_case_Z@?$output_processor@_WV?$string_output_adapter@_W@__crt_stdio_output@@V?$standard_base@_WV?$string_output_adapter@_W@__crt_stdio_output@@@2@@__crt_stdio_output@@AEAA_NXZ@@__crt_stdio_output@@YAPEAUansi_string@?1??type_case_Z@?$output_processor@_WV?$string_output_adapter@_W@__crt_stdio_output@@V?$standard_base@_WV?$string_output_adapter@_W@__crt_stdio_output@@@2@@0@AEAA_NXZ@AEAPEAD@Z 00000001800225b0 f i libucrtd:output.obj
 0001:000215b0       ??$read_va_arg@PEAUansi_string@?1??type_case_Z@?$output_processor@DV?$string_output_adapter@D@__crt_stdio_output@@V?$format_validation_base@DV?$string_output_adapter@D@__crt_stdio_output@@@2@@__crt_stdio_output@@AEAA_NXZ@@__crt_stdio_output@@YAPEAUansi_string@?1??type_case_Z@?$output_processor@DV?$string_output_adapter@D@__crt_stdio_output@@V?$format_validation_base@DV?$string_output_adapter@D@__crt_stdio_output@@@2@@0@AEAA_NXZ@AEAPEAD@Z 00000001800225b0 f i libucrtd:output.obj
 0001:000215b0       ??$read_va_arg@PEAUansi_string@?1??type_case_Z@?$output_processor@_WV?$stream_output_adapter@_W@__crt_stdio_output@@V?$standard_base@_WV?$stream_output_adapter@_W@__crt_stdio_output@@@2@@__crt_stdio_output@@AEAA_NXZ@@__crt_stdio_output@@YAPEAUansi_string@?1??type_case_Z@?$output_processor@_WV?$stream_output_adapter@_W@__crt_stdio_output@@V?$standard_base@_WV?$stream_output_adapter@_W@__crt_stdio_output@@@2@@0@AEAA_NXZ@AEAPEAD@Z 00000001800225b0 f i libucrtd:output.obj
 0001:00021620       ??$scratch_count@D@formatting_buffer@__crt_stdio_output@@QEBA_KXZ 0000000180022620 f i libucrtd:output.obj
 0001:00021640       ??$scratch_data@D@formatting_buffer@__crt_stdio_output@@QEAAPEADXZ 0000000180022640 f i libucrtd:output.obj
 0001:000216b0       ??$tcstol@PEBDPEAPEADH@?$__crt_char_traits@D@@SAJ$$QEAPEBD$$QEAPEAPEAD$$QEAH@Z 00000001800226b0 f i libucrtd:output.obj
 0001:000216f0       ??$tcstol@PEB_WPEAPEA_WH@?$__crt_char_traits@_W@@SAJ$$QEAPEB_W$$QEAPEAPEA_W$$QEAH@Z 00000001800226f0 f i libucrtd:output.obj
 0001:00021730       ??$type_case_integer_parse_into_buffer@I@?$output_processor@DV?$string_output_adapter@D@__crt_stdio_output@@V?$format_validation_base@DV?$string_output_adapter@D@__crt_stdio_output@@@2@@__crt_stdio_output@@AEAAXII_N@Z 0000000180022730 f i libucrtd:output.obj
 0001:00021730       ??$type_case_integer_parse_into_buffer@I@?$output_processor@DV?$string_output_adapter@D@__crt_stdio_output@@V?$standard_base@DV?$string_output_adapter@D@__crt_stdio_output@@@2@@__crt_stdio_output@@AEAAXII_N@Z 0000000180022730 f i libucrtd:output.obj
 0001:00021860       ??$type_case_integer_parse_into_buffer@I@?$output_processor@_WV?$stream_output_adapter@_W@__crt_stdio_output@@V?$standard_base@_WV?$stream_output_adapter@_W@__crt_stdio_output@@@2@@__crt_stdio_output@@AEAAXII_N@Z 0000000180022860 f i libucrtd:output.obj
 0001:00021860       ??$type_case_integer_parse_into_buffer@I@?$output_processor@_WV?$string_output_adapter@_W@__crt_stdio_output@@V?$format_validation_base@_WV?$string_output_adapter@_W@__crt_stdio_output@@@2@@__crt_stdio_output@@AEAAXII_N@Z 0000000180022860 f i libucrtd:output.obj
 0001:00021860       ??$type_case_integer_parse_into_buffer@I@?$output_processor@_WV?$string_output_adapter@_W@__crt_stdio_output@@V?$standard_base@_WV?$string_output_adapter@_W@__crt_stdio_output@@@2@@__crt_stdio_output@@AEAAXII_N@Z 0000000180022860 f i libucrtd:output.obj
 0001:000219a0       ??$type_case_integer_parse_into_buffer@_K@?$output_processor@DV?$string_output_adapter@D@__crt_stdio_output@@V?$standard_base@DV?$string_output_adapter@D@__crt_stdio_output@@@2@@__crt_stdio_output@@AEAAX_KI_N@Z 00000001800229a0 f i libucrtd:output.obj
 0001:000219a0       ??$type_case_integer_parse_into_buffer@_K@?$output_processor@DV?$string_output_adapter@D@__crt_stdio_output@@V?$format_validation_base@DV?$string_output_adapter@D@__crt_stdio_output@@@2@@__crt_stdio_output@@AEAAX_KI_N@Z 00000001800229a0 f i libucrtd:output.obj
 0001:00021af0       ??$type_case_integer_parse_into_buffer@_K@?$output_processor@_WV?$stream_output_adapter@_W@__crt_stdio_output@@V?$standard_base@_WV?$stream_output_adapter@_W@__crt_stdio_output@@@2@@__crt_stdio_output@@AEAAX_KI_N@Z 0000000180022af0 f i libucrtd:output.obj
 0001:00021af0       ??$type_case_integer_parse_into_buffer@_K@?$output_processor@_WV?$string_output_adapter@_W@__crt_stdio_output@@V?$format_validation_base@_WV?$string_output_adapter@_W@__crt_stdio_output@@@2@@__crt_stdio_output@@AEAAX_KI_N@Z 0000000180022af0 f i libucrtd:output.obj
 0001:00021af0       ??$type_case_integer_parse_into_buffer@_K@?$output_processor@_WV?$string_output_adapter@_W@__crt_stdio_output@@V?$standard_base@_WV?$string_output_adapter@_W@__crt_stdio_output@@@2@@__crt_stdio_output@@AEAAX_KI_N@Z 0000000180022af0 f i libucrtd:output.obj
 0001:00021c50       ??$write_multiple_characters@V?$stream_output_adapter@_W@__crt_stdio_output@@D@__crt_stdio_output@@YAXAEBV?$stream_output_adapter@_W@0@DHQEAH@Z 0000000180022c50 f i libucrtd:output.obj
 0001:00021cb0       ??$write_multiple_characters@V?$string_output_adapter@D@__crt_stdio_output@@D@__crt_stdio_output@@YAXAEBV?$string_output_adapter@D@0@DHQEAH@Z 0000000180022cb0 f i libucrtd:output.obj
 0001:00021d10       ??$write_multiple_characters@V?$string_output_adapter@_W@__crt_stdio_output@@D@__crt_stdio_output@@YAXAEBV?$string_output_adapter@_W@0@DHQEAH@Z 0000000180022d10 f i libucrtd:output.obj
 0001:00021df0       ??0?$common_data@D@__crt_stdio_output@@IEAA@XZ 0000000180022df0 f i libucrtd:output.obj
 0001:00021ec0       ??0?$common_data@_W@__crt_stdio_output@@IEAA@XZ 0000000180022ec0 f i libucrtd:output.obj
 0001:00021f90       ??0?$output_adapter_data@DV?$string_output_adapter@D@__crt_stdio_output@@@__crt_stdio_output@@IEAA@AEBV?$string_output_adapter@D@1@_KQEBDQEAU__crt_locale_pointers@@QEAD@Z 0000000180022f90 f i libucrtd:output.obj
 0001:00022010       ??0?$output_adapter_data@_WV?$string_output_adapter@_W@__crt_stdio_output@@@__crt_stdio_output@@IEAA@AEBV?$string_output_adapter@_W@1@_KQEB_WQEAU__crt_locale_pointers@@QEAD@Z 0000000180023010 f i libucrtd:output.obj
 0001:00022010       ??0?$output_adapter_data@_WV?$stream_output_adapter@_W@__crt_stdio_output@@@__crt_stdio_output@@IEAA@AEBV?$stream_output_adapter@_W@1@_KQEB_WQEAU__crt_locale_pointers@@QEAD@Z 0000000180023010 f i libucrtd:output.obj
 0001:00022090       ??0?$output_processor@DV?$string_output_adapter@D@__crt_stdio_output@@V?$format_validation_base@DV?$string_output_adapter@D@__crt_stdio_output@@@2@@__crt_stdio_output@@QEAA@AEBV?$string_output_adapter@D@1@_KQEBDQEAU__crt_locale_pointers@@QEAD@Z 0000000180023090 f i libucrtd:output.obj
 0001:000220e0       ??0?$output_processor@DV?$string_output_adapter@D@__crt_stdio_output@@V?$standard_base@DV?$string_output_adapter@D@__crt_stdio_output@@@2@@__crt_stdio_output@@QEAA@AEBV?$string_output_adapter@D@1@_KQEBDQEAU__crt_locale_pointers@@QEAD@Z 00000001800230e0 f i libucrtd:output.obj
 0001:00022130       ??0?$output_processor@_WV?$string_output_adapter@_W@__crt_stdio_output@@V?$standard_base@_WV?$string_output_adapter@_W@__crt_stdio_output@@@2@@__crt_stdio_output@@QEAA@AEBV?$string_output_adapter@_W@1@_KQEB_WQEAU__crt_locale_pointers@@QEAD@Z 0000000180023130 f i libucrtd:output.obj
 0001:00022130       ??0?$output_processor@_WV?$stream_output_adapter@_W@__crt_stdio_output@@V?$standard_base@_WV?$stream_output_adapter@_W@__crt_stdio_output@@@2@@__crt_stdio_output@@QEAA@AEBV?$stream_output_adapter@_W@1@_KQEB_WQEAU__crt_locale_pointers@@QEAD@Z 0000000180023130 f i libucrtd:output.obj
 0001:00022180       ??0?$output_processor@_WV?$string_output_adapter@_W@__crt_stdio_output@@V?$format_validation_base@_WV?$string_output_adapter@_W@__crt_stdio_output@@@2@@__crt_stdio_output@@QEAA@AEBV?$string_output_adapter@_W@1@_KQEB_WQEAU__crt_locale_pointers@@QEAD@Z 0000000180023180 f i libucrtd:output.obj
 0001:000221d0       ??0?$stream_output_adapter@_W@__crt_stdio_output@@QEAA@QEAU_iobuf@@@Z 00000001800231d0 f i libucrtd:output.obj
 0001:00022200       ??0__acrt_stdio_temporary_buffering_guard@@QEAA@QEAU_iobuf@@@Z 0000000180023200 f i libucrtd:output.obj
 0001:00022240       ??0__crt_deferred_errno_cache@@QEAA@XZ 0000000180023240 f i libucrtd:output.obj
 0001:00022260       ??0__crt_errno_guard@@QEAA@QEAH@Z 0000000180023260 f i libucrtd:output.obj
 0001:000222a0       ??0formatting_buffer@__crt_stdio_output@@QEAA@XZ 00000001800232a0 f i libucrtd:output.obj
 0001:000222e0       ??1?$common_data@D@__crt_stdio_output@@QEAA@XZ 00000001800232e0 f i libucrtd:output.obj
 0001:000222e0       ??1?$common_data@_W@__crt_stdio_output@@QEAA@XZ 00000001800232e0 f i libucrtd:output.obj
 0001:00022300       ??1?$output_processor@DV?$string_output_adapter@D@__crt_stdio_output@@V?$standard_base@DV?$string_output_adapter@D@__crt_stdio_output@@@2@@__crt_stdio_output@@QEAA@XZ 0000000180023300 f i libucrtd:output.obj
 0001:00022300       ??1?$format_validation_base@_WV?$string_output_adapter@_W@__crt_stdio_output@@@__crt_stdio_output@@QEAA@XZ 0000000180023300 f i libucrtd:output.obj
 0001:00022300       ??1?$output_processor@_WV?$string_output_adapter@_W@__crt_stdio_output@@V?$standard_base@_WV?$string_output_adapter@_W@__crt_stdio_output@@@2@@__crt_stdio_output@@QEAA@XZ 0000000180023300 f i libucrtd:output.obj
 0001:00022300       ??1?$output_processor@_WV?$stream_output_adapter@_W@__crt_stdio_output@@V?$standard_base@_WV?$stream_output_adapter@_W@__crt_stdio_output@@@2@@__crt_stdio_output@@QEAA@XZ 0000000180023300 f i libucrtd:output.obj
 0001:00022300       ??1?$format_validation_base@DV?$string_output_adapter@D@__crt_stdio_output@@@__crt_stdio_output@@QEAA@XZ 0000000180023300 f i libucrtd:output.obj
 0001:00022320       ??1?$output_adapter_data@DV?$string_output_adapter@D@__crt_stdio_output@@@__crt_stdio_output@@QEAA@XZ 0000000180023320 f i libucrtd:output.obj
 0001:00022320       ??1?$output_adapter_data@_WV?$stream_output_adapter@_W@__crt_stdio_output@@@__crt_stdio_output@@QEAA@XZ 0000000180023320 f i libucrtd:output.obj
 0001:00022320       ??1?$output_adapter_data@_WV?$string_output_adapter@_W@__crt_stdio_output@@@__crt_stdio_output@@QEAA@XZ 0000000180023320 f i libucrtd:output.obj
 0001:00022340       ??1?$output_processor@_WV?$string_output_adapter@_W@__crt_stdio_output@@V?$format_validation_base@_WV?$string_output_adapter@_W@__crt_stdio_output@@@2@@__crt_stdio_output@@QEAA@XZ 0000000180023340 f i libucrtd:output.obj
 0001:00022340       ??1?$output_processor@DV?$string_output_adapter@D@__crt_stdio_output@@V?$format_validation_base@DV?$string_output_adapter@D@__crt_stdio_output@@@2@@__crt_stdio_output@@QEAA@XZ 0000000180023340 f i libucrtd:output.obj
 0001:00022360       ??1?$standard_base@_WV?$string_output_adapter@_W@__crt_stdio_output@@@__crt_stdio_output@@QEAA@XZ 0000000180023360 f i libucrtd:output.obj
 0001:00022360       ??1?$standard_base@_WV?$stream_output_adapter@_W@__crt_stdio_output@@@__crt_stdio_output@@QEAA@XZ 0000000180023360 f i libucrtd:output.obj
 0001:00022360       ??1?$standard_base@DV?$string_output_adapter@D@__crt_stdio_output@@@__crt_stdio_output@@QEAA@XZ 0000000180023360 f i libucrtd:output.obj
 0001:00022380       ??1__acrt_stdio_temporary_buffering_guard@@QEAA@XZ 0000000180023380 f i libucrtd:output.obj
 0001:000223b0       ??1__crt_errno_guard@@QEAA@XZ 00000001800233b0 f i libucrtd:output.obj
 0001:000223e0       ??1formatting_buffer@__crt_stdio_output@@QEAA@XZ 00000001800233e0 f i libucrtd:output.obj
 0001:00022410       ??4?$__crt_unique_heap_ptr@DU__crt_internal_free_policy@@@@QEAAAEAV0@$$QEAV0@@Z 0000000180023410 f i libucrtd:output.obj
 0001:00022450       ??A?$spectre_mitigated_lookup_table@Ustate_transition_pair@__crt_stdio_output@@$0IA@@__crt_stdio_output@@QEBAAEBUstate_transition_pair@1@_K@Z 0000000180023450 f i libucrtd:output.obj
 0001:000225e0       ?__crt_interlocked_read_32@@YAHPEDH@Z 00000001800235e0 f i libucrtd:output.obj
 0001:00022600       ?adjust_hexit@?$output_processor@_WV?$string_output_adapter@_W@__crt_stdio_output@@V?$standard_base@_WV?$string_output_adapter@_W@__crt_stdio_output@@@2@@__crt_stdio_output@@CADH_N@Z 0000000180023600 f i libucrtd:output.obj
 0001:00022600       ?adjust_hexit@?$output_processor@DV?$string_output_adapter@D@__crt_stdio_output@@V?$format_validation_base@DV?$string_output_adapter@D@__crt_stdio_output@@@2@@__crt_stdio_output@@CADH_N@Z 0000000180023600 f i libucrtd:output.obj
 0001:00022600       ?adjust_hexit@?$output_processor@_WV?$stream_output_adapter@_W@__crt_stdio_output@@V?$standard_base@_WV?$stream_output_adapter@_W@__crt_stdio_output@@@2@@__crt_stdio_output@@CADH_N@Z 0000000180023600 f i libucrtd:output.obj
 0001:00022600       ?adjust_hexit@?$output_processor@DV?$string_output_adapter@D@__crt_stdio_output@@V?$standard_base@DV?$string_output_adapter@D@__crt_stdio_output@@@2@@__crt_stdio_output@@CADH_N@Z 0000000180023600 f i libucrtd:output.obj
 0001:00022600       ?adjust_hexit@?$output_processor@_WV?$string_output_adapter@_W@__crt_stdio_output@@V?$format_validation_base@_WV?$string_output_adapter@_W@__crt_stdio_output@@@2@@__crt_stdio_output@@CADH_N@Z 0000000180023600 f i libucrtd:output.obj
 0001:00022650       ?advance_to_next_pass@?$standard_base@_WV?$stream_output_adapter@_W@__crt_stdio_output@@@__crt_stdio_output@@IEAA_NXZ 0000000180023650 f i libucrtd:output.obj
 0001:00022650       ?advance_to_next_pass@?$standard_base@DV?$string_output_adapter@D@__crt_stdio_output@@@__crt_stdio_output@@IEAA_NXZ 0000000180023650 f i libucrtd:output.obj
 0001:00022650       ?advance_to_next_pass@?$standard_base@_WV?$string_output_adapter@_W@__crt_stdio_output@@@__crt_stdio_output@@IEAA_NXZ 0000000180023650 f i libucrtd:output.obj
 0001:000226a0       ?crop_zeroes@__crt_stdio_output@@YAXPEADQEAU__crt_locale_pointers@@@Z 00000001800236a0 f i libucrtd:output.obj
 0001:000227e0       ?find_next_state@?$output_processor@DV?$string_output_adapter@D@__crt_stdio_output@@V?$format_validation_base@DV?$string_output_adapter@D@__crt_stdio_output@@@2@@__crt_stdio_output@@AEBA?AW4state@2@DW432@@Z 00000001800237e0 f i libucrtd:output.obj
 0001:00022870       ?find_next_state@?$output_processor@DV?$string_output_adapter@D@__crt_stdio_output@@V?$standard_base@DV?$string_output_adapter@D@__crt_stdio_output@@@2@@__crt_stdio_output@@AEBA?AW4state@2@DW432@@Z 0000000180023870 f i libucrtd:output.obj
 0001:00022900       ?find_next_state@?$output_processor@_WV?$string_output_adapter@_W@__crt_stdio_output@@V?$standard_base@_WV?$string_output_adapter@_W@__crt_stdio_output@@@2@@__crt_stdio_output@@AEBA?AW4state@2@_WW432@@Z 0000000180023900 f i libucrtd:output.obj
 0001:00022900       ?find_next_state@?$output_processor@_WV?$stream_output_adapter@_W@__crt_stdio_output@@V?$standard_base@_WV?$stream_output_adapter@_W@__crt_stdio_output@@@2@@__crt_stdio_output@@AEBA?AW4state@2@_WW432@@Z 0000000180023900 f i libucrtd:output.obj
 0001:00022990       ?find_next_state@?$output_processor@_WV?$string_output_adapter@_W@__crt_stdio_output@@V?$format_validation_base@_WV?$string_output_adapter@_W@__crt_stdio_output@@@2@@__crt_stdio_output@@AEBA?AW4state@2@_WW432@@Z 0000000180023990 f i libucrtd:output.obj
 0001:00022a20       ?force_decimal_point@__crt_stdio_output@@YAXPEADQEAU__crt_locale_pointers@@@Z 0000000180023a20 f i libucrtd:output.obj
 0001:00022b20       ?get@__crt_deferred_errno_cache@@QEAAAEAHXZ 0000000180023b20 f i libucrtd:output.obj
 0001:00022b50       ?get_flags@__crt_stdio_stream@@QEBAJXZ 0000000180023b50 f i libucrtd:output.obj
 0001:00022b80       ?has_flag@?$output_processor@DV?$string_output_adapter@D@__crt_stdio_output@@V?$standard_base@DV?$string_output_adapter@D@__crt_stdio_output@@@2@@__crt_stdio_output@@AEBA_NI@Z 0000000180023b80 f i libucrtd:output.obj
 0001:00022b80       ?has_flag@?$output_processor@_WV?$string_output_adapter@_W@__crt_stdio_output@@V?$standard_base@_WV?$string_output_adapter@_W@__crt_stdio_output@@@2@@__crt_stdio_output@@AEBA_NI@Z 0000000180023b80 f i libucrtd:output.obj
 0001:00022b80       ?has_flag@?$output_processor@_WV?$stream_output_adapter@_W@__crt_stdio_output@@V?$standard_base@_WV?$stream_output_adapter@_W@__crt_stdio_output@@@2@@__crt_stdio_output@@AEBA_NI@Z 0000000180023b80 f i libucrtd:output.obj
 0001:00022b80       ?has_flag@?$output_processor@_WV?$string_output_adapter@_W@__crt_stdio_output@@V?$format_validation_base@_WV?$string_output_adapter@_W@__crt_stdio_output@@@2@@__crt_stdio_output@@AEBA_NI@Z 0000000180023b80 f i libucrtd:output.obj
 0001:00022b80       ?has_flag@?$output_processor@DV?$string_output_adapter@D@__crt_stdio_output@@V?$format_validation_base@DV?$string_output_adapter@D@__crt_stdio_output@@@2@@__crt_stdio_output@@AEBA_NI@Z 0000000180023b80 f i libucrtd:output.obj
 0001:00022bc0       ?is_string_backed@__crt_stdio_stream@@QEBA_NXZ 0000000180023bc0 f i libucrtd:output.obj
 0001:00022c00       ?narrow_null_string@?$output_processor@_WV?$stream_output_adapter@_W@__crt_stdio_output@@V?$standard_base@_WV?$stream_output_adapter@_W@__crt_stdio_output@@@2@@__crt_stdio_output@@CAPEADXZ 0000000180023c00 f i libucrtd:output.obj
 0001:00022c00       ?narrow_null_string@?$output_processor@DV?$string_output_adapter@D@__crt_stdio_output@@V?$format_validation_base@DV?$string_output_adapter@D@__crt_stdio_output@@@2@@__crt_stdio_output@@CAPEADXZ 0000000180023c00 f i libucrtd:output.obj
 0001:00022c00       ?narrow_null_string@?$output_processor@_WV?$string_output_adapter@_W@__crt_stdio_output@@V?$standard_base@_WV?$string_output_adapter@_W@__crt_stdio_output@@@2@@__crt_stdio_output@@CAPEADXZ 0000000180023c00 f i libucrtd:output.obj
 0001:00022c00       ?narrow_null_string@?$output_processor@_WV?$string_output_adapter@_W@__crt_stdio_output@@V?$format_validation_base@_WV?$string_output_adapter@_W@__crt_stdio_output@@@2@@__crt_stdio_output@@CAPEADXZ 0000000180023c00 f i libucrtd:output.obj
 0001:00022c00       ?narrow_null_string@?$output_processor@DV?$string_output_adapter@D@__crt_stdio_output@@V?$standard_base@DV?$string_output_adapter@D@__crt_stdio_output@@@2@@__crt_stdio_output@@CAPEADXZ 0000000180023c00 f i libucrtd:output.obj
 0001:00022c10       ?parse_int_from_format_string@?$output_processor@DV?$string_output_adapter@D@__crt_stdio_output@@V?$format_validation_base@DV?$string_output_adapter@D@__crt_stdio_output@@@2@@__crt_stdio_output@@AEAA_NQEAH@Z 0000000180023c10 f i libucrtd:output.obj
 0001:00022c10       ?parse_int_from_format_string@?$output_processor@DV?$string_output_adapter@D@__crt_stdio_output@@V?$standard_base@DV?$string_output_adapter@D@__crt_stdio_output@@@2@@__crt_stdio_output@@AEAA_NQEAH@Z 0000000180023c10 f i libucrtd:output.obj
 0001:00022d00       ?parse_int_from_format_string@?$output_processor@_WV?$stream_output_adapter@_W@__crt_stdio_output@@V?$standard_base@_WV?$stream_output_adapter@_W@__crt_stdio_output@@@2@@__crt_stdio_output@@AEAA_NQEAH@Z 0000000180023d00 f i libucrtd:output.obj
 0001:00022d00       ?parse_int_from_format_string@?$output_processor@_WV?$string_output_adapter@_W@__crt_stdio_output@@V?$format_validation_base@_WV?$string_output_adapter@_W@__crt_stdio_output@@@2@@__crt_stdio_output@@AEAA_NQEAH@Z 0000000180023d00 f i libucrtd:output.obj
 0001:00022d00       ?parse_int_from_format_string@?$output_processor@_WV?$string_output_adapter@_W@__crt_stdio_output@@V?$standard_base@_WV?$string_output_adapter@_W@__crt_stdio_output@@@2@@__crt_stdio_output@@AEAA_NQEAH@Z 0000000180023d00 f i libucrtd:output.obj
 0001:00022df0       ?process@?$output_processor@DV?$string_output_adapter@D@__crt_stdio_output@@V?$format_validation_base@DV?$string_output_adapter@D@__crt_stdio_output@@@2@@__crt_stdio_output@@QEAAHXZ 0000000180023df0 f i libucrtd:output.obj
 0001:00023150       ?process@?$output_processor@DV?$string_output_adapter@D@__crt_stdio_output@@V?$standard_base@DV?$string_output_adapter@D@__crt_stdio_output@@@2@@__crt_stdio_output@@QEAAHXZ 0000000180024150 f i libucrtd:output.obj
 0001:000234b0       ?process@?$output_processor@_WV?$stream_output_adapter@_W@__crt_stdio_output@@V?$standard_base@_WV?$stream_output_adapter@_W@__crt_stdio_output@@@2@@__crt_stdio_output@@QEAAHXZ 00000001800244b0 f i libucrtd:output.obj
 0001:00023810       ?process@?$output_processor@_WV?$string_output_adapter@_W@__crt_stdio_output@@V?$format_validation_base@_WV?$string_output_adapter@_W@__crt_stdio_output@@@2@@__crt_stdio_output@@QEAAHXZ 0000000180024810 f i libucrtd:output.obj
 0001:00023b70       ?process@?$output_processor@_WV?$string_output_adapter@_W@__crt_stdio_output@@V?$standard_base@_WV?$string_output_adapter@_W@__crt_stdio_output@@@2@@__crt_stdio_output@@QEAAHXZ 0000000180024b70 f i libucrtd:output.obj
 0001:00023ed0       ?set_flag@?$output_processor@_WV?$string_output_adapter@_W@__crt_stdio_output@@V?$standard_base@_WV?$string_output_adapter@_W@__crt_stdio_output@@@2@@__crt_stdio_output@@AEAAXI@Z 0000000180024ed0 f i libucrtd:output.obj
 0001:00023ed0       ?set_flag@?$output_processor@DV?$string_output_adapter@D@__crt_stdio_output@@V?$standard_base@DV?$string_output_adapter@D@__crt_stdio_output@@@2@@__crt_stdio_output@@AEAAXI@Z 0000000180024ed0 f i libucrtd:output.obj
 0001:00023ed0       ?set_flag@?$output_processor@_WV?$string_output_adapter@_W@__crt_stdio_output@@V?$format_validation_base@_WV?$string_output_adapter@_W@__crt_stdio_output@@@2@@__crt_stdio_output@@AEAAXI@Z 0000000180024ed0 f i libucrtd:output.obj
 0001:00023ed0       ?set_flag@?$output_processor@_WV?$stream_output_adapter@_W@__crt_stdio_output@@V?$standard_base@_WV?$stream_output_adapter@_W@__crt_stdio_output@@@2@@__crt_stdio_output@@AEAAXI@Z 0000000180024ed0 f i libucrtd:output.obj
 0001:00023ed0       ?set_flag@?$output_processor@DV?$string_output_adapter@D@__crt_stdio_output@@V?$format_validation_base@DV?$string_output_adapter@D@__crt_stdio_output@@@2@@__crt_stdio_output@@AEAAXI@Z 0000000180024ed0 f i libucrtd:output.obj
 0001:00023ef0       ?state_case_dot@?$output_processor@_WV?$string_output_adapter@_W@__crt_stdio_output@@V?$format_validation_base@_WV?$string_output_adapter@_W@__crt_stdio_output@@@2@@__crt_stdio_output@@AEAA_NXZ 0000000180024ef0 f i libucrtd:output.obj
 0001:00023ef0       ?state_case_dot@?$output_processor@_WV?$stream_output_adapter@_W@__crt_stdio_output@@V?$standard_base@_WV?$stream_output_adapter@_W@__crt_stdio_output@@@2@@__crt_stdio_output@@AEAA_NXZ 0000000180024ef0 f i libucrtd:output.obj
 0001:00023ef0       ?state_case_dot@?$output_processor@DV?$string_output_adapter@D@__crt_stdio_output@@V?$format_validation_base@DV?$string_output_adapter@D@__crt_stdio_output@@@2@@__crt_stdio_output@@AEAA_NXZ 0000000180024ef0 f i libucrtd:output.obj
 0001:00023ef0       ?state_case_dot@?$output_processor@DV?$string_output_adapter@D@__crt_stdio_output@@V?$standard_base@DV?$string_output_adapter@D@__crt_stdio_output@@@2@@__crt_stdio_output@@AEAA_NXZ 0000000180024ef0 f i libucrtd:output.obj
 0001:00023ef0       ?state_case_dot@?$output_processor@_WV?$string_output_adapter@_W@__crt_stdio_output@@V?$standard_base@_WV?$string_output_adapter@_W@__crt_stdio_output@@@2@@__crt_stdio_output@@AEAA_NXZ 0000000180024ef0 f i libucrtd:output.obj
 0001:00023f10       ?state_case_flag@?$output_processor@DV?$string_output_adapter@D@__crt_stdio_output@@V?$standard_base@DV?$string_output_adapter@D@__crt_stdio_output@@@2@@__crt_stdio_output@@AEAA_NXZ 0000000180024f10 f i libucrtd:output.obj
 0001:00023f10       ?state_case_flag@?$output_processor@DV?$string_output_adapter@D@__crt_stdio_output@@V?$format_validation_base@DV?$string_output_adapter@D@__crt_stdio_output@@@2@@__crt_stdio_output@@AEAA_NXZ 0000000180024f10 f i libucrtd:output.obj
 0001:00023fb0       ?state_case_flag@?$output_processor@_WV?$string_output_adapter@_W@__crt_stdio_output@@V?$standard_base@_WV?$string_output_adapter@_W@__crt_stdio_output@@@2@@__crt_stdio_output@@AEAA_NXZ 0000000180024fb0 f i libucrtd:output.obj
 0001:00023fb0       ?state_case_flag@?$output_processor@_WV?$string_output_adapter@_W@__crt_stdio_output@@V?$format_validation_base@_WV?$string_output_adapter@_W@__crt_stdio_output@@@2@@__crt_stdio_output@@AEAA_NXZ 0000000180024fb0 f i libucrtd:output.obj
 0001:00023fb0       ?state_case_flag@?$output_processor@_WV?$stream_output_adapter@_W@__crt_stdio_output@@V?$standard_base@_WV?$stream_output_adapter@_W@__crt_stdio_output@@@2@@__crt_stdio_output@@AEAA_NXZ 0000000180024fb0 f i libucrtd:output.obj
 0001:00024050       ?state_case_normal@?$output_processor@DV?$string_output_adapter@D@__crt_stdio_output@@V?$format_validation_base@DV?$string_output_adapter@D@__crt_stdio_output@@@2@@__crt_stdio_output@@AEAA_NXZ 0000000180025050 f i libucrtd:output.obj
 0001:00024130       ?state_case_normal@?$output_processor@DV?$string_output_adapter@D@__crt_stdio_output@@V?$standard_base@DV?$string_output_adapter@D@__crt_stdio_output@@@2@@__crt_stdio_output@@AEAA_NXZ 0000000180025130 f i libucrtd:output.obj
 0001:00024210       ?state_case_normal@?$output_processor@_WV?$stream_output_adapter@_W@__crt_stdio_output@@V?$standard_base@_WV?$stream_output_adapter@_W@__crt_stdio_output@@@2@@__crt_stdio_output@@AEAA_NXZ 0000000180025210 f i libucrtd:output.obj
 0001:000242f0       ?state_case_normal@?$output_processor@_WV?$string_output_adapter@_W@__crt_stdio_output@@V?$format_validation_base@_WV?$string_output_adapter@_W@__crt_stdio_output@@@2@@__crt_stdio_output@@AEAA_NXZ 00000001800252f0 f i libucrtd:output.obj
 0001:000243d0       ?state_case_normal@?$output_processor@_WV?$string_output_adapter@_W@__crt_stdio_output@@V?$standard_base@_WV?$string_output_adapter@_W@__crt_stdio_output@@@2@@__crt_stdio_output@@AEAA_NXZ 00000001800253d0 f i libucrtd:output.obj
 0001:000244b0       ?state_case_normal_common@?$output_processor@DV?$string_output_adapter@D@__crt_stdio_output@@V?$format_validation_base@DV?$string_output_adapter@D@__crt_stdio_output@@@2@@__crt_stdio_output@@AEAA_NXZ 00000001800254b0 f i libucrtd:output.obj
 0001:00024500       ?state_case_normal_common@?$output_processor@DV?$string_output_adapter@D@__crt_stdio_output@@V?$standard_base@DV?$string_output_adapter@D@__crt_stdio_output@@@2@@__crt_stdio_output@@AEAA_NXZ 0000000180025500 f i libucrtd:output.obj
 0001:00024550       ?state_case_normal_common@?$output_processor@_WV?$stream_output_adapter@_W@__crt_stdio_output@@V?$standard_base@_WV?$stream_output_adapter@_W@__crt_stdio_output@@@2@@__crt_stdio_output@@AEAA_NXZ 0000000180025550 f i libucrtd:output.obj
 0001:000245a0       ?state_case_normal_common@?$output_processor@_WV?$string_output_adapter@_W@__crt_stdio_output@@V?$standard_base@_WV?$string_output_adapter@_W@__crt_stdio_output@@@2@@__crt_stdio_output@@AEAA_NXZ 00000001800255a0 f i libucrtd:output.obj
 0001:000245a0       ?state_case_normal_common@?$output_processor@_WV?$string_output_adapter@_W@__crt_stdio_output@@V?$format_validation_base@_WV?$string_output_adapter@_W@__crt_stdio_output@@@2@@__crt_stdio_output@@AEAA_NXZ 00000001800255a0 f i libucrtd:output.obj
 0001:000245f0       ?state_case_normal_tchar@?$output_processor@DV?$string_output_adapter@D@__crt_stdio_output@@V?$format_validation_base@DV?$string_output_adapter@D@__crt_stdio_output@@@2@@__crt_stdio_output@@AEAA_ND@Z 00000001800255f0 f i libucrtd:output.obj
 0001:00024730       ?state_case_normal_tchar@?$output_processor@DV?$string_output_adapter@D@__crt_stdio_output@@V?$standard_base@DV?$string_output_adapter@D@__crt_stdio_output@@@2@@__crt_stdio_output@@AEAA_ND@Z 0000000180025730 f i libucrtd:output.obj
 0001:00024870       ?state_case_normal_tchar@?$output_processor@_WV?$string_output_adapter@_W@__crt_stdio_output@@V?$format_validation_base@_WV?$string_output_adapter@_W@__crt_stdio_output@@@2@@__crt_stdio_output@@AEAA_N_W@Z 0000000180025870 f i libucrtd:output.obj
 0001:00024870       ?state_case_normal_tchar@?$output_processor@_WV?$stream_output_adapter@_W@__crt_stdio_output@@V?$standard_base@_WV?$stream_output_adapter@_W@__crt_stdio_output@@@2@@__crt_stdio_output@@AEAA_N_W@Z 0000000180025870 f i libucrtd:output.obj
 0001:00024870       ?state_case_normal_tchar@?$output_processor@_WV?$string_output_adapter@_W@__crt_stdio_output@@V?$standard_base@_WV?$string_output_adapter@_W@__crt_stdio_output@@@2@@__crt_stdio_output@@AEAA_N_W@Z 0000000180025870 f i libucrtd:output.obj
 0001:00024890       ?state_case_percent@?$output_processor@DV?$string_output_adapter@D@__crt_stdio_output@@V?$standard_base@DV?$string_output_adapter@D@__crt_stdio_output@@@2@@__crt_stdio_output@@AEAA_NXZ 0000000180025890 f i libucrtd:output.obj
 0001:00024890       ?state_case_percent@?$output_processor@_WV?$string_output_adapter@_W@__crt_stdio_output@@V?$format_validation_base@_WV?$string_output_adapter@_W@__crt_stdio_output@@@2@@__crt_stdio_output@@AEAA_NXZ 0000000180025890 f i libucrtd:output.obj
 0001:00024890       ?state_case_percent@?$output_processor@DV?$string_output_adapter@D@__crt_stdio_output@@V?$format_validation_base@DV?$string_output_adapter@D@__crt_stdio_output@@@2@@__crt_stdio_output@@AEAA_NXZ 0000000180025890 f i libucrtd:output.obj
 0001:00024890       ?state_case_percent@?$output_processor@_WV?$string_output_adapter@_W@__crt_stdio_output@@V?$standard_base@_WV?$string_output_adapter@_W@__crt_stdio_output@@@2@@__crt_stdio_output@@AEAA_NXZ 0000000180025890 f i libucrtd:output.obj
 0001:00024890       ?state_case_percent@?$output_processor@_WV?$stream_output_adapter@_W@__crt_stdio_output@@V?$standard_base@_WV?$stream_output_adapter@_W@__crt_stdio_output@@@2@@__crt_stdio_output@@AEAA_NXZ 0000000180025890 f i libucrtd:output.obj
 0001:000248e0       ?state_case_precision@?$output_processor@DV?$string_output_adapter@D@__crt_stdio_output@@V?$format_validation_base@DV?$string_output_adapter@D@__crt_stdio_output@@@2@@__crt_stdio_output@@AEAA_NXZ 00000001800258e0 f i libucrtd:output.obj
 0001:000248e0       ?state_case_precision@?$output_processor@DV?$string_output_adapter@D@__crt_stdio_output@@V?$standard_base@DV?$string_output_adapter@D@__crt_stdio_output@@@2@@__crt_stdio_output@@AEAA_NXZ 00000001800258e0 f i libucrtd:output.obj
 0001:00024960       ?state_case_precision@?$output_processor@_WV?$string_output_adapter@_W@__crt_stdio_output@@V?$standard_base@_WV?$string_output_adapter@_W@__crt_stdio_output@@@2@@__crt_stdio_output@@AEAA_NXZ 0000000180025960 f i libucrtd:output.obj
 0001:00024960       ?state_case_precision@?$output_processor@_WV?$string_output_adapter@_W@__crt_stdio_output@@V?$format_validation_base@_WV?$string_output_adapter@_W@__crt_stdio_output@@@2@@__crt_stdio_output@@AEAA_NXZ 0000000180025960 f i libucrtd:output.obj
 0001:00024960       ?state_case_precision@?$output_processor@_WV?$stream_output_adapter@_W@__crt_stdio_output@@V?$standard_base@_WV?$stream_output_adapter@_W@__crt_stdio_output@@@2@@__crt_stdio_output@@AEAA_NXZ 0000000180025960 f i libucrtd:output.obj
 0001:000249e0       ?state_case_size@?$output_processor@DV?$string_output_adapter@D@__crt_stdio_output@@V?$format_validation_base@DV?$string_output_adapter@D@__crt_stdio_output@@@2@@__crt_stdio_output@@AEAA_NXZ 00000001800259e0 f i libucrtd:output.obj
 0001:00024e60       ?state_case_size@?$output_processor@DV?$string_output_adapter@D@__crt_stdio_output@@V?$standard_base@DV?$string_output_adapter@D@__crt_stdio_output@@@2@@__crt_stdio_output@@AEAA_NXZ 0000000180025e60 f i libucrtd:output.obj
 0001:000252e0       ?state_case_size@?$output_processor@_WV?$stream_output_adapter@_W@__crt_stdio_output@@V?$standard_base@_WV?$stream_output_adapter@_W@__crt_stdio_output@@@2@@__crt_stdio_output@@AEAA_NXZ 00000001800262e0 f i libucrtd:output.obj
 0001:00025760       ?state_case_size@?$output_processor@_WV?$string_output_adapter@_W@__crt_stdio_output@@V?$format_validation_base@_WV?$string_output_adapter@_W@__crt_stdio_output@@@2@@__crt_stdio_output@@AEAA_NXZ 0000000180026760 f i libucrtd:output.obj
 0001:00025be0       ?state_case_size@?$output_processor@_WV?$string_output_adapter@_W@__crt_stdio_output@@V?$standard_base@_WV?$string_output_adapter@_W@__crt_stdio_output@@@2@@__crt_stdio_output@@AEAA_NXZ 0000000180026be0 f i libucrtd:output.obj
 0001:00026060       ?state_case_type@?$output_processor@DV?$string_output_adapter@D@__crt_stdio_output@@V?$format_validation_base@DV?$string_output_adapter@D@__crt_stdio_output@@@2@@__crt_stdio_output@@AEAA_NXZ 0000000180027060 f i libucrtd:output.obj
 0001:00026500       ?state_case_type@?$output_processor@DV?$string_output_adapter@D@__crt_stdio_output@@V?$standard_base@DV?$string_output_adapter@D@__crt_stdio_output@@@2@@__crt_stdio_output@@AEAA_NXZ 0000000180027500 f i libucrtd:output.obj
 0001:000269a0       ?state_case_type@?$output_processor@_WV?$stream_output_adapter@_W@__crt_stdio_output@@V?$standard_base@_WV?$stream_output_adapter@_W@__crt_stdio_output@@@2@@__crt_stdio_output@@AEAA_NXZ 00000001800279a0 f i libucrtd:output.obj
 0001:00026f00       ?state_case_type@?$output_processor@_WV?$string_output_adapter@_W@__crt_stdio_output@@V?$format_validation_base@_WV?$string_output_adapter@_W@__crt_stdio_output@@@2@@__crt_stdio_output@@AEAA_NXZ 0000000180027f00 f i libucrtd:output.obj
 0001:00027460       ?state_case_type@?$output_processor@_WV?$string_output_adapter@_W@__crt_stdio_output@@V?$standard_base@_WV?$string_output_adapter@_W@__crt_stdio_output@@@2@@__crt_stdio_output@@AEAA_NXZ 0000000180028460 f i libucrtd:output.obj
 0001:000279c0       ?state_case_width@?$output_processor@DV?$string_output_adapter@D@__crt_stdio_output@@V?$format_validation_base@DV?$string_output_adapter@D@__crt_stdio_output@@@2@@__crt_stdio_output@@AEAA_NXZ 00000001800289c0 f i libucrtd:output.obj
 0001:000279c0       ?state_case_width@?$output_processor@DV?$string_output_adapter@D@__crt_stdio_output@@V?$standard_base@DV?$string_output_adapter@D@__crt_stdio_output@@@2@@__crt_stdio_output@@AEAA_NXZ 00000001800289c0 f i libucrtd:output.obj
 0001:00027a50       ?state_case_width@?$output_processor@_WV?$string_output_adapter@_W@__crt_stdio_output@@V?$format_validation_base@_WV?$string_output_adapter@_W@__crt_stdio_output@@@2@@__crt_stdio_output@@AEAA_NXZ 0000000180028a50 f i libucrtd:output.obj
 0001:00027a50       ?state_case_width@?$output_processor@_WV?$string_output_adapter@_W@__crt_stdio_output@@V?$standard_base@_WV?$string_output_adapter@_W@__crt_stdio_output@@@2@@__crt_stdio_output@@AEAA_NXZ 0000000180028a50 f i libucrtd:output.obj
 0001:00027a50       ?state_case_width@?$output_processor@_WV?$stream_output_adapter@_W@__crt_stdio_output@@V?$standard_base@_WV?$stream_output_adapter@_W@__crt_stdio_output@@@2@@__crt_stdio_output@@AEAA_NXZ 0000000180028a50 f i libucrtd:output.obj
 0001:00027ae0       ?state_count@?$format_validation_base@DV?$string_output_adapter@D@__crt_stdio_output@@@__crt_stdio_output@@KAIXZ 0000000180028ae0 f i libucrtd:output.obj
 0001:00027ae0       ?state_count@?$format_validation_base@_WV?$string_output_adapter@_W@__crt_stdio_output@@@__crt_stdio_output@@KAIXZ 0000000180028ae0 f i libucrtd:output.obj
 0001:00027af0       ?state_count@?$standard_base@_WV?$string_output_adapter@_W@__crt_stdio_output@@@__crt_stdio_output@@KAIXZ 0000000180028af0 f i libucrtd:output.obj
 0001:00027af0       ?state_count@?$standard_base@DV?$string_output_adapter@D@__crt_stdio_output@@@__crt_stdio_output@@KAIXZ 0000000180028af0 f i libucrtd:output.obj
 0001:00027af0       ?state_count@?$standard_base@_WV?$stream_output_adapter@_W@__crt_stdio_output@@@__crt_stdio_output@@KAIXZ 0000000180028af0 f i libucrtd:output.obj
 0001:00027b00       ?state_transition_table@?$format_validation_base@_WV?$string_output_adapter@_W@__crt_stdio_output@@@__crt_stdio_output@@KAAEBV?$spectre_mitigated_lookup_table@Ustate_transition_pair@__crt_stdio_output@@$0IA@@2@XZ 0000000180028b00 f i libucrtd:output.obj
 0001:00027b00       ?state_transition_table@?$format_validation_base@DV?$string_output_adapter@D@__crt_stdio_output@@@__crt_stdio_output@@KAAEBV?$spectre_mitigated_lookup_table@Ustate_transition_pair@__crt_stdio_output@@$0IA@@2@XZ 0000000180028b00 f i libucrtd:output.obj
 0001:00027b10       ?state_transition_table@?$standard_base@_WV?$stream_output_adapter@_W@__crt_stdio_output@@@__crt_stdio_output@@KAAEBV?$spectre_mitigated_lookup_table@Ustate_transition_pair@__crt_stdio_output@@$0IA@@2@XZ 0000000180028b10 f i libucrtd:output.obj
 0001:00027b10       ?state_transition_table@?$standard_base@DV?$string_output_adapter@D@__crt_stdio_output@@@__crt_stdio_output@@KAAEBV?$spectre_mitigated_lookup_table@Ustate_transition_pair@__crt_stdio_output@@$0IA@@2@XZ 0000000180028b10 f i libucrtd:output.obj
 0001:00027b10       ?state_transition_table@?$standard_base@_WV?$string_output_adapter@_W@__crt_stdio_output@@@__crt_stdio_output@@KAAEBV?$spectre_mitigated_lookup_table@Ustate_transition_pair@__crt_stdio_output@@$0IA@@2@XZ 0000000180028b10 f i libucrtd:output.obj
 0001:00027b20       ?tchar_string@?$common_data@D@__crt_stdio_output@@IEAAAEAPEADD@Z 0000000180028b20 f i libucrtd:output.obj
 0001:00027b40       ?tchar_string@?$common_data@D@__crt_stdio_output@@IEAAAEAPEADXZ 0000000180028b40 f i libucrtd:output.obj
 0001:00027b60       ?tchar_string@?$common_data@_W@__crt_stdio_output@@IEAAAEAPEA_WXZ 0000000180028b60 f i libucrtd:output.obj
 0001:00027b80       ?tchar_string@?$common_data@_W@__crt_stdio_output@@IEAAAEAPEA_W_W@Z 0000000180028b80 f i libucrtd:output.obj
 0001:00027ba0       ?to_integer_size@__crt_stdio_output@@YA_KW4length_modifier@1@@Z 0000000180028ba0 f i libucrtd:output.obj
 0001:00027c50       ?type_case_X@?$output_processor@DV?$string_output_adapter@D@__crt_stdio_output@@V?$format_validation_base@DV?$string_output_adapter@D@__crt_stdio_output@@@2@@__crt_stdio_output@@AEAA_NXZ 0000000180028c50 f i libucrtd:output.obj
 0001:00027c70       ?type_case_X@?$output_processor@DV?$string_output_adapter@D@__crt_stdio_output@@V?$standard_base@DV?$string_output_adapter@D@__crt_stdio_output@@@2@@__crt_stdio_output@@AEAA_NXZ 0000000180028c70 f i libucrtd:output.obj
 0001:00027c90       ?type_case_X@?$output_processor@_WV?$stream_output_adapter@_W@__crt_stdio_output@@V?$standard_base@_WV?$stream_output_adapter@_W@__crt_stdio_output@@@2@@__crt_stdio_output@@AEAA_NXZ 0000000180028c90 f i libucrtd:output.obj
 0001:00027cb0       ?type_case_X@?$output_processor@_WV?$string_output_adapter@_W@__crt_stdio_output@@V?$format_validation_base@_WV?$string_output_adapter@_W@__crt_stdio_output@@@2@@__crt_stdio_output@@AEAA_NXZ 0000000180028cb0 f i libucrtd:output.obj
 0001:00027cd0       ?type_case_X@?$output_processor@_WV?$string_output_adapter@_W@__crt_stdio_output@@V?$standard_base@_WV?$string_output_adapter@_W@__crt_stdio_output@@@2@@__crt_stdio_output@@AEAA_NXZ 0000000180028cd0 f i libucrtd:output.obj
 0001:00027cf0       ?type_case_Z@?$output_processor@DV?$string_output_adapter@D@__crt_stdio_output@@V?$standard_base@DV?$string_output_adapter@D@__crt_stdio_output@@@2@@__crt_stdio_output@@AEAA_NXZ 0000000180028cf0 f i libucrtd:output.obj
 0001:00027cf0       ?type_case_Z@?$output_processor@DV?$string_output_adapter@D@__crt_stdio_output@@V?$format_validation_base@DV?$string_output_adapter@D@__crt_stdio_output@@@2@@__crt_stdio_output@@AEAA_NXZ 0000000180028cf0 f i libucrtd:output.obj
 0001:00027e10       ?type_case_Z@?$output_processor@_WV?$string_output_adapter@_W@__crt_stdio_output@@V?$format_validation_base@_WV?$string_output_adapter@_W@__crt_stdio_output@@@2@@__crt_stdio_output@@AEAA_NXZ 0000000180028e10 f i libucrtd:output.obj
 0001:00027e10       ?type_case_Z@?$output_processor@_WV?$stream_output_adapter@_W@__crt_stdio_output@@V?$standard_base@_WV?$stream_output_adapter@_W@__crt_stdio_output@@@2@@__crt_stdio_output@@AEAA_NXZ 0000000180028e10 f i libucrtd:output.obj
 0001:00027e10       ?type_case_Z@?$output_processor@_WV?$string_output_adapter@_W@__crt_stdio_output@@V?$standard_base@_WV?$string_output_adapter@_W@__crt_stdio_output@@@2@@__crt_stdio_output@@AEAA_NXZ 0000000180028e10 f i libucrtd:output.obj
 0001:00027f30       ?type_case_a@?$output_processor@DV?$string_output_adapter@D@__crt_stdio_output@@V?$format_validation_base@DV?$string_output_adapter@D@__crt_stdio_output@@@2@@__crt_stdio_output@@AEAA_NXZ 0000000180028f30 f i libucrtd:output.obj
 0001:00027f30       ?type_case_a@?$output_processor@DV?$string_output_adapter@D@__crt_stdio_output@@V?$standard_base@DV?$string_output_adapter@D@__crt_stdio_output@@@2@@__crt_stdio_output@@AEAA_NXZ 0000000180028f30 f i libucrtd:output.obj
 0001:00028300       ?type_case_a@?$output_processor@_WV?$string_output_adapter@_W@__crt_stdio_output@@V?$format_validation_base@_WV?$string_output_adapter@_W@__crt_stdio_output@@@2@@__crt_stdio_output@@AEAA_NXZ 0000000180029300 f i libucrtd:output.obj
 0001:00028300       ?type_case_a@?$output_processor@_WV?$string_output_adapter@_W@__crt_stdio_output@@V?$standard_base@_WV?$string_output_adapter@_W@__crt_stdio_output@@@2@@__crt_stdio_output@@AEAA_NXZ 0000000180029300 f i libucrtd:output.obj
 0001:00028300       ?type_case_a@?$output_processor@_WV?$stream_output_adapter@_W@__crt_stdio_output@@V?$standard_base@_WV?$stream_output_adapter@_W@__crt_stdio_output@@@2@@__crt_stdio_output@@AEAA_NXZ 0000000180029300 f i libucrtd:output.obj
 0001:000286d0       ?type_case_c@?$output_processor@DV?$string_output_adapter@D@__crt_stdio_output@@V?$format_validation_base@DV?$string_output_adapter@D@__crt_stdio_output@@@2@@__crt_stdio_output@@AEAA_NXZ 00000001800296d0 f i libucrtd:output.obj
 0001:000286d0       ?type_case_c@?$output_processor@DV?$string_output_adapter@D@__crt_stdio_output@@V?$standard_base@DV?$string_output_adapter@D@__crt_stdio_output@@@2@@__crt_stdio_output@@AEAA_NXZ 00000001800296d0 f i libucrtd:output.obj
 0001:000286f0       ?type_case_c@?$output_processor@_WV?$string_output_adapter@_W@__crt_stdio_output@@V?$standard_base@_WV?$string_output_adapter@_W@__crt_stdio_output@@@2@@__crt_stdio_output@@AEAA_NXZ 00000001800296f0 f i libucrtd:output.obj
 0001:000286f0       ?type_case_c@?$output_processor@_WV?$stream_output_adapter@_W@__crt_stdio_output@@V?$standard_base@_WV?$stream_output_adapter@_W@__crt_stdio_output@@@2@@__crt_stdio_output@@AEAA_NXZ 00000001800296f0 f i libucrtd:output.obj
 0001:000286f0       ?type_case_c@?$output_processor@_WV?$string_output_adapter@_W@__crt_stdio_output@@V?$format_validation_base@_WV?$string_output_adapter@_W@__crt_stdio_output@@@2@@__crt_stdio_output@@AEAA_NXZ 00000001800296f0 f i libucrtd:output.obj
 0001:00028710       ?type_case_c_tchar@?$output_processor@DV?$string_output_adapter@D@__crt_stdio_output@@V?$standard_base@DV?$string_output_adapter@D@__crt_stdio_output@@@2@@__crt_stdio_output@@AEAA_ND@Z 0000000180029710 f i libucrtd:output.obj
 0001:00028710       ?type_case_c_tchar@?$output_processor@DV?$string_output_adapter@D@__crt_stdio_output@@V?$format_validation_base@DV?$string_output_adapter@D@__crt_stdio_output@@@2@@__crt_stdio_output@@AEAA_ND@Z 0000000180029710 f i libucrtd:output.obj
 0001:00028870       ?type_case_c_tchar@?$output_processor@_WV?$string_output_adapter@_W@__crt_stdio_output@@V?$format_validation_base@_WV?$string_output_adapter@_W@__crt_stdio_output@@@2@@__crt_stdio_output@@AEAA_N_W@Z 0000000180029870 f i libucrtd:output.obj
 0001:00028870       ?type_case_c_tchar@?$output_processor@_WV?$stream_output_adapter@_W@__crt_stdio_output@@V?$standard_base@_WV?$stream_output_adapter@_W@__crt_stdio_output@@@2@@__crt_stdio_output@@AEAA_N_W@Z 0000000180029870 f i libucrtd:output.obj
 0001:00028870       ?type_case_c_tchar@?$output_processor@_WV?$string_output_adapter@_W@__crt_stdio_output@@V?$standard_base@_WV?$string_output_adapter@_W@__crt_stdio_output@@@2@@__crt_stdio_output@@AEAA_N_W@Z 0000000180029870 f i libucrtd:output.obj
 0001:000289a0       ?type_case_d@?$output_processor@DV?$string_output_adapter@D@__crt_stdio_output@@V?$format_validation_base@DV?$string_output_adapter@D@__crt_stdio_output@@@2@@__crt_stdio_output@@AEAA_NXZ 00000001800299a0 f i libucrtd:output.obj
 0001:000289d0       ?type_case_d@?$output_processor@DV?$string_output_adapter@D@__crt_stdio_output@@V?$standard_base@DV?$string_output_adapter@D@__crt_stdio_output@@@2@@__crt_stdio_output@@AEAA_NXZ 00000001800299d0 f i libucrtd:output.obj
 0001:00028a00       ?type_case_d@?$output_processor@_WV?$stream_output_adapter@_W@__crt_stdio_output@@V?$standard_base@_WV?$stream_output_adapter@_W@__crt_stdio_output@@@2@@__crt_stdio_output@@AEAA_NXZ 0000000180029a00 f i libucrtd:output.obj
 0001:00028a30       ?type_case_d@?$output_processor@_WV?$string_output_adapter@_W@__crt_stdio_output@@V?$format_validation_base@_WV?$string_output_adapter@_W@__crt_stdio_output@@@2@@__crt_stdio_output@@AEAA_NXZ 0000000180029a30 f i libucrtd:output.obj
 0001:00028a60       ?type_case_d@?$output_processor@_WV?$string_output_adapter@_W@__crt_stdio_output@@V?$standard_base@_WV?$string_output_adapter@_W@__crt_stdio_output@@@2@@__crt_stdio_output@@AEAA_NXZ 0000000180029a60 f i libucrtd:output.obj
 0001:00028a90       ?type_case_integer@?$output_processor@DV?$string_output_adapter@D@__crt_stdio_output@@V?$format_validation_base@DV?$string_output_adapter@D@__crt_stdio_output@@@2@@__crt_stdio_output@@AEAA_NI_N@Z 0000000180029a90 f i libucrtd:output.obj
 0001:00028ee0       ?type_case_integer@?$output_processor@DV?$string_output_adapter@D@__crt_stdio_output@@V?$standard_base@DV?$string_output_adapter@D@__crt_stdio_output@@@2@@__crt_stdio_output@@AEAA_NI_N@Z 0000000180029ee0 f i libucrtd:output.obj
 0001:00029330       ?type_case_integer@?$output_processor@_WV?$stream_output_adapter@_W@__crt_stdio_output@@V?$standard_base@_WV?$stream_output_adapter@_W@__crt_stdio_output@@@2@@__crt_stdio_output@@AEAA_NI_N@Z 000000018002a330 f i libucrtd:output.obj
 0001:00029780       ?type_case_integer@?$output_processor@_WV?$string_output_adapter@_W@__crt_stdio_output@@V?$format_validation_base@_WV?$string_output_adapter@_W@__crt_stdio_output@@@2@@__crt_stdio_output@@AEAA_NI_N@Z 000000018002a780 f i libucrtd:output.obj
 0001:00029bd0       ?type_case_integer@?$output_processor@_WV?$string_output_adapter@_W@__crt_stdio_output@@V?$standard_base@_WV?$string_output_adapter@_W@__crt_stdio_output@@@2@@__crt_stdio_output@@AEAA_NI_N@Z 000000018002abd0 f i libucrtd:output.obj
 0001:0002a020       ?type_case_n@?$output_processor@DV?$string_output_adapter@D@__crt_stdio_output@@V?$format_validation_base@DV?$string_output_adapter@D@__crt_stdio_output@@@2@@__crt_stdio_output@@AEAA_NXZ 000000018002b020 f i libucrtd:output.obj
 0001:0002a260       ?type_case_n@?$output_processor@DV?$string_output_adapter@D@__crt_stdio_output@@V?$standard_base@DV?$string_output_adapter@D@__crt_stdio_output@@@2@@__crt_stdio_output@@AEAA_NXZ 000000018002b260 f i libucrtd:output.obj
 0001:0002a4a0       ?type_case_n@?$output_processor@_WV?$stream_output_adapter@_W@__crt_stdio_output@@V?$standard_base@_WV?$stream_output_adapter@_W@__crt_stdio_output@@@2@@__crt_stdio_output@@AEAA_NXZ 000000018002b4a0 f i libucrtd:output.obj
 0001:0002a6e0       ?type_case_n@?$output_processor@_WV?$string_output_adapter@_W@__crt_stdio_output@@V?$format_validation_base@_WV?$string_output_adapter@_W@__crt_stdio_output@@@2@@__crt_stdio_output@@AEAA_NXZ 000000018002b6e0 f i libucrtd:output.obj
 0001:0002a920       ?type_case_n@?$output_processor@_WV?$string_output_adapter@_W@__crt_stdio_output@@V?$standard_base@_WV?$string_output_adapter@_W@__crt_stdio_output@@@2@@__crt_stdio_output@@AEAA_NXZ 000000018002b920 f i libucrtd:output.obj
 0001:0002ab60       ?type_case_o@?$output_processor@DV?$string_output_adapter@D@__crt_stdio_output@@V?$format_validation_base@DV?$string_output_adapter@D@__crt_stdio_output@@@2@@__crt_stdio_output@@AEAA_NXZ 000000018002bb60 f i libucrtd:output.obj
 0001:0002abb0       ?type_case_o@?$output_processor@DV?$string_output_adapter@D@__crt_stdio_output@@V?$standard_base@DV?$string_output_adapter@D@__crt_stdio_output@@@2@@__crt_stdio_output@@AEAA_NXZ 000000018002bbb0 f i libucrtd:output.obj
 0001:0002ac00       ?type_case_o@?$output_processor@_WV?$stream_output_adapter@_W@__crt_stdio_output@@V?$standard_base@_WV?$stream_output_adapter@_W@__crt_stdio_output@@@2@@__crt_stdio_output@@AEAA_NXZ 000000018002bc00 f i libucrtd:output.obj
 0001:0002ac50       ?type_case_o@?$output_processor@_WV?$string_output_adapter@_W@__crt_stdio_output@@V?$format_validation_base@_WV?$string_output_adapter@_W@__crt_stdio_output@@@2@@__crt_stdio_output@@AEAA_NXZ 000000018002bc50 f i libucrtd:output.obj
 0001:0002aca0       ?type_case_o@?$output_processor@_WV?$string_output_adapter@_W@__crt_stdio_output@@V?$standard_base@_WV?$string_output_adapter@_W@__crt_stdio_output@@@2@@__crt_stdio_output@@AEAA_NXZ 000000018002bca0 f i libucrtd:output.obj
 0001:0002acf0       ?type_case_p@?$output_processor@DV?$string_output_adapter@D@__crt_stdio_output@@V?$format_validation_base@DV?$string_output_adapter@D@__crt_stdio_output@@@2@@__crt_stdio_output@@AEAA_NXZ 000000018002bcf0 f i libucrtd:output.obj
 0001:0002ad30       ?type_case_p@?$output_processor@DV?$string_output_adapter@D@__crt_stdio_output@@V?$standard_base@DV?$string_output_adapter@D@__crt_stdio_output@@@2@@__crt_stdio_output@@AEAA_NXZ 000000018002bd30 f i libucrtd:output.obj
 0001:0002ad70       ?type_case_p@?$output_processor@_WV?$stream_output_adapter@_W@__crt_stdio_output@@V?$standard_base@_WV?$stream_output_adapter@_W@__crt_stdio_output@@@2@@__crt_stdio_output@@AEAA_NXZ 000000018002bd70 f i libucrtd:output.obj
 0001:0002adb0       ?type_case_p@?$output_processor@_WV?$string_output_adapter@_W@__crt_stdio_output@@V?$format_validation_base@_WV?$string_output_adapter@_W@__crt_stdio_output@@@2@@__crt_stdio_output@@AEAA_NXZ 000000018002bdb0 f i libucrtd:output.obj
 0001:0002adf0       ?type_case_p@?$output_processor@_WV?$string_output_adapter@_W@__crt_stdio_output@@V?$standard_base@_WV?$string_output_adapter@_W@__crt_stdio_output@@@2@@__crt_stdio_output@@AEAA_NXZ 000000018002bdf0 f i libucrtd:output.obj
 0001:0002ae30       ?type_case_s@?$output_processor@DV?$string_output_adapter@D@__crt_stdio_output@@V?$standard_base@DV?$string_output_adapter@D@__crt_stdio_output@@@2@@__crt_stdio_output@@AEAA_NXZ 000000018002be30 f i libucrtd:output.obj
 0001:0002ae30       ?type_case_s@?$output_processor@DV?$string_output_adapter@D@__crt_stdio_output@@V?$format_validation_base@DV?$string_output_adapter@D@__crt_stdio_output@@@2@@__crt_stdio_output@@AEAA_NXZ 000000018002be30 f i libucrtd:output.obj
 0001:0002af50       ?type_case_s@?$output_processor@_WV?$string_output_adapter@_W@__crt_stdio_output@@V?$format_validation_base@_WV?$string_output_adapter@_W@__crt_stdio_output@@@2@@__crt_stdio_output@@AEAA_NXZ 000000018002bf50 f i libucrtd:output.obj
 0001:0002af50       ?type_case_s@?$output_processor@_WV?$stream_output_adapter@_W@__crt_stdio_output@@V?$standard_base@_WV?$stream_output_adapter@_W@__crt_stdio_output@@@2@@__crt_stdio_output@@AEAA_NXZ 000000018002bf50 f i libucrtd:output.obj
 0001:0002af50       ?type_case_s@?$output_processor@_WV?$string_output_adapter@_W@__crt_stdio_output@@V?$standard_base@_WV?$string_output_adapter@_W@__crt_stdio_output@@@2@@__crt_stdio_output@@AEAA_NXZ 000000018002bf50 f i libucrtd:output.obj
 0001:0002b070       ?type_case_s_compute_narrow_string_length@?$output_processor@DV?$string_output_adapter@D@__crt_stdio_output@@V?$format_validation_base@DV?$string_output_adapter@D@__crt_stdio_output@@@2@@__crt_stdio_output@@AEBAHHD@Z 000000018002c070 f i libucrtd:output.obj
 0001:0002b070       ?type_case_s_compute_narrow_string_length@?$output_processor@DV?$string_output_adapter@D@__crt_stdio_output@@V?$standard_base@DV?$string_output_adapter@D@__crt_stdio_output@@@2@@__crt_stdio_output@@AEBAHHD@Z 000000018002c070 f i libucrtd:output.obj
 0001:0002b0a0       ?type_case_s_compute_narrow_string_length@?$output_processor@_WV?$string_output_adapter@_W@__crt_stdio_output@@V?$standard_base@_WV?$string_output_adapter@_W@__crt_stdio_output@@@2@@__crt_stdio_output@@AEBAHH_W@Z 000000018002c0a0 f i libucrtd:output.obj
 0001:0002b0a0       ?type_case_s_compute_narrow_string_length@?$output_processor@_WV?$string_output_adapter@_W@__crt_stdio_output@@V?$format_validation_base@_WV?$string_output_adapter@_W@__crt_stdio_output@@@2@@__crt_stdio_output@@AEBAHH_W@Z 000000018002c0a0 f i libucrtd:output.obj
 0001:0002b0a0       ?type_case_s_compute_narrow_string_length@?$output_processor@_WV?$stream_output_adapter@_W@__crt_stdio_output@@V?$standard_base@_WV?$stream_output_adapter@_W@__crt_stdio_output@@@2@@__crt_stdio_output@@AEBAHH_W@Z 000000018002c0a0 f i libucrtd:output.obj
 0001:0002b130       ?type_case_u@?$output_processor@DV?$string_output_adapter@D@__crt_stdio_output@@V?$format_validation_base@DV?$string_output_adapter@D@__crt_stdio_output@@@2@@__crt_stdio_output@@AEAA_NXZ 000000018002c130 f i libucrtd:output.obj
 0001:0002b150       ?type_case_u@?$output_processor@DV?$string_output_adapter@D@__crt_stdio_output@@V?$standard_base@DV?$string_output_adapter@D@__crt_stdio_output@@@2@@__crt_stdio_output@@AEAA_NXZ 000000018002c150 f i libucrtd:output.obj
 0001:0002b170       ?type_case_u@?$output_processor@_WV?$stream_output_adapter@_W@__crt_stdio_output@@V?$standard_base@_WV?$stream_output_adapter@_W@__crt_stdio_output@@@2@@__crt_stdio_output@@AEAA_NXZ 000000018002c170 f i libucrtd:output.obj
 0001:0002b190       ?type_case_u@?$output_processor@_WV?$string_output_adapter@_W@__crt_stdio_output@@V?$format_validation_base@_WV?$string_output_adapter@_W@__crt_stdio_output@@@2@@__crt_stdio_output@@AEAA_NXZ 000000018002c190 f i libucrtd:output.obj
 0001:0002b1b0       ?type_case_u@?$output_processor@_WV?$string_output_adapter@_W@__crt_stdio_output@@V?$standard_base@_WV?$string_output_adapter@_W@__crt_stdio_output@@@2@@__crt_stdio_output@@AEAA_NXZ 000000018002c1b0 f i libucrtd:output.obj
 0001:0002b1d0       ?type_case_x@?$output_processor@DV?$string_output_adapter@D@__crt_stdio_output@@V?$format_validation_base@DV?$string_output_adapter@D@__crt_stdio_output@@@2@@__crt_stdio_output@@AEAA_NXZ 000000018002c1d0 f i libucrtd:output.obj
 0001:0002b1f0       ?type_case_x@?$output_processor@DV?$string_output_adapter@D@__crt_stdio_output@@V?$standard_base@DV?$string_output_adapter@D@__crt_stdio_output@@@2@@__crt_stdio_output@@AEAA_NXZ 000000018002c1f0 f i libucrtd:output.obj
 0001:0002b210       ?type_case_x@?$output_processor@_WV?$stream_output_adapter@_W@__crt_stdio_output@@V?$standard_base@_WV?$stream_output_adapter@_W@__crt_stdio_output@@@2@@__crt_stdio_output@@AEAA_NXZ 000000018002c210 f i libucrtd:output.obj
 0001:0002b230       ?type_case_x@?$output_processor@_WV?$string_output_adapter@_W@__crt_stdio_output@@V?$format_validation_base@_WV?$string_output_adapter@_W@__crt_stdio_output@@@2@@__crt_stdio_output@@AEAA_NXZ 000000018002c230 f i libucrtd:output.obj
 0001:0002b250       ?type_case_x@?$output_processor@_WV?$string_output_adapter@_W@__crt_stdio_output@@V?$standard_base@_WV?$string_output_adapter@_W@__crt_stdio_output@@@2@@__crt_stdio_output@@AEAA_NXZ 000000018002c250 f i libucrtd:output.obj
 0001:0002b270       ?unset_flag@?$output_processor@_WV?$stream_output_adapter@_W@__crt_stdio_output@@V?$standard_base@_WV?$stream_output_adapter@_W@__crt_stdio_output@@@2@@__crt_stdio_output@@AEAAXI@Z 000000018002c270 f i libucrtd:output.obj
 0001:0002b270       ?unset_flag@?$output_processor@DV?$string_output_adapter@D@__crt_stdio_output@@V?$format_validation_base@DV?$string_output_adapter@D@__crt_stdio_output@@@2@@__crt_stdio_output@@AEAAXI@Z 000000018002c270 f i libucrtd:output.obj
 0001:0002b270       ?unset_flag@?$output_processor@_WV?$string_output_adapter@_W@__crt_stdio_output@@V?$standard_base@_WV?$string_output_adapter@_W@__crt_stdio_output@@@2@@__crt_stdio_output@@AEAAXI@Z 000000018002c270 f i libucrtd:output.obj
 0001:0002b270       ?unset_flag@?$output_processor@DV?$string_output_adapter@D@__crt_stdio_output@@V?$standard_base@DV?$string_output_adapter@D@__crt_stdio_output@@@2@@__crt_stdio_output@@AEAAXI@Z 000000018002c270 f i libucrtd:output.obj
 0001:0002b270       ?unset_flag@?$output_processor@_WV?$string_output_adapter@_W@__crt_stdio_output@@V?$format_validation_base@_WV?$string_output_adapter@_W@__crt_stdio_output@@@2@@__crt_stdio_output@@AEAAXI@Z 000000018002c270 f i libucrtd:output.obj
 0001:0002b2a0       ?update_field_width@?$standard_base@_WV?$stream_output_adapter@_W@__crt_stdio_output@@@__crt_stdio_output@@IEAA_NXZ 000000018002c2a0 f i libucrtd:output.obj
 0001:0002b2a0       ?update_field_width@?$standard_base@DV?$string_output_adapter@D@__crt_stdio_output@@@__crt_stdio_output@@IEAA_NXZ 000000018002c2a0 f i libucrtd:output.obj
 0001:0002b2a0       ?update_field_width@?$standard_base@_WV?$string_output_adapter@_W@__crt_stdio_output@@@__crt_stdio_output@@IEAA_NXZ 000000018002c2a0 f i libucrtd:output.obj
 0001:0002b2d0       ?update_precision@?$standard_base@DV?$string_output_adapter@D@__crt_stdio_output@@@__crt_stdio_output@@IEAA_NXZ 000000018002c2d0 f i libucrtd:output.obj
 0001:0002b2d0       ?update_precision@?$standard_base@_WV?$string_output_adapter@_W@__crt_stdio_output@@@__crt_stdio_output@@IEAA_NXZ 000000018002c2d0 f i libucrtd:output.obj
 0001:0002b2d0       ?update_precision@?$standard_base@_WV?$stream_output_adapter@_W@__crt_stdio_output@@@__crt_stdio_output@@IEAA_NXZ 000000018002c2d0 f i libucrtd:output.obj
 0001:0002b300       ?validate@?$stream_output_adapter@_W@__crt_stdio_output@@QEBA_NXZ 000000018002c300 f i libucrtd:output.obj
 0001:0002b3e0       ?validate@?$string_output_adapter@D@__crt_stdio_output@@QEBA_NXZ 000000018002c3e0 f i libucrtd:output.obj
 0001:0002b4a0       ?validate@?$string_output_adapter@_W@__crt_stdio_output@@QEBA_NXZ 000000018002c4a0 f i libucrtd:output.obj
 0001:0002b560       ?validate_and_update_state_at_end_of_format_string@?$format_validation_base@DV?$string_output_adapter@D@__crt_stdio_output@@@__crt_stdio_output@@IEBA_NXZ 000000018002c560 f i libucrtd:output.obj
 0001:0002b620       ?validate_and_update_state_at_end_of_format_string@?$format_validation_base@_WV?$string_output_adapter@_W@__crt_stdio_output@@@__crt_stdio_output@@IEBA_NXZ 000000018002c620 f i libucrtd:output.obj
 0001:0002b6e0       ?wide_null_string@?$output_processor@DV?$string_output_adapter@D@__crt_stdio_output@@V?$format_validation_base@DV?$string_output_adapter@D@__crt_stdio_output@@@2@@__crt_stdio_output@@CAPEA_WXZ 000000018002c6e0 f i libucrtd:output.obj
 0001:0002b6e0       ?wide_null_string@?$output_processor@_WV?$string_output_adapter@_W@__crt_stdio_output@@V?$standard_base@_WV?$string_output_adapter@_W@__crt_stdio_output@@@2@@__crt_stdio_output@@CAPEA_WXZ 000000018002c6e0 f i libucrtd:output.obj
 0001:0002b6e0       ?wide_null_string@?$output_processor@DV?$string_output_adapter@D@__crt_stdio_output@@V?$standard_base@DV?$string_output_adapter@D@__crt_stdio_output@@@2@@__crt_stdio_output@@CAPEA_WXZ 000000018002c6e0 f i libucrtd:output.obj
 0001:0002b6e0       ?wide_null_string@?$output_processor@_WV?$stream_output_adapter@_W@__crt_stdio_output@@V?$standard_base@_WV?$stream_output_adapter@_W@__crt_stdio_output@@@2@@__crt_stdio_output@@CAPEA_WXZ 000000018002c6e0 f i libucrtd:output.obj
 0001:0002b6e0       ?wide_null_string@?$output_processor@_WV?$string_output_adapter@_W@__crt_stdio_output@@V?$format_validation_base@_WV?$string_output_adapter@_W@__crt_stdio_output@@@2@@__crt_stdio_output@@CAPEA_WXZ 000000018002c6e0 f i libucrtd:output.obj
 0001:0002b6f0       ?write_character@?$output_adapter_common@_WV?$stream_output_adapter@_W@__crt_stdio_output@@@__crt_stdio_output@@QEBAX_WQEAH@Z 000000018002c6f0 f i libucrtd:output.obj
 0001:0002b740       ?write_character@?$string_output_adapter@D@__crt_stdio_output@@QEBA_NDQEAH@Z 000000018002c740 f i libucrtd:output.obj
 0001:0002b800       ?write_character@?$string_output_adapter@_W@__crt_stdio_output@@QEBA_N_WQEAH@Z 000000018002c800 f i libucrtd:output.obj
 0001:0002b8c0       ?write_character_without_count_update@?$stream_output_adapter@_W@__crt_stdio_output@@QEBA_N_W@Z 000000018002c8c0 f i libucrtd:output.obj
 0001:0002b950       ?write_stored_string_tchar@?$output_processor@DV?$string_output_adapter@D@__crt_stdio_output@@V?$format_validation_base@DV?$string_output_adapter@D@__crt_stdio_output@@@2@@__crt_stdio_output@@AEAA_ND@Z 000000018002c950 f i libucrtd:output.obj
 0001:0002b950       ?write_stored_string_tchar@?$output_processor@DV?$string_output_adapter@D@__crt_stdio_output@@V?$standard_base@DV?$string_output_adapter@D@__crt_stdio_output@@@2@@__crt_stdio_output@@AEAA_ND@Z 000000018002c950 f i libucrtd:output.obj
 0001:0002bb10       ?write_stored_string_tchar@?$output_processor@_WV?$stream_output_adapter@_W@__crt_stdio_output@@V?$standard_base@_WV?$stream_output_adapter@_W@__crt_stdio_output@@@2@@__crt_stdio_output@@AEAA_N_W@Z 000000018002cb10 f i libucrtd:output.obj
 0001:0002bc60       ?write_stored_string_tchar@?$output_processor@_WV?$string_output_adapter@_W@__crt_stdio_output@@V?$standard_base@_WV?$string_output_adapter@_W@__crt_stdio_output@@@2@@__crt_stdio_output@@AEAA_N_W@Z 000000018002cc60 f i libucrtd:output.obj
 0001:0002bc60       ?write_stored_string_tchar@?$output_processor@_WV?$string_output_adapter@_W@__crt_stdio_output@@V?$format_validation_base@_WV?$string_output_adapter@_W@__crt_stdio_output@@@2@@__crt_stdio_output@@AEAA_N_W@Z 000000018002cc60 f i libucrtd:output.obj
 0001:0002bdb0       ?write_string@?$stream_output_adapter@_W@__crt_stdio_output@@QEBAXQEB_WHQEAHAEAV__crt_deferred_errno_cache@@@Z 000000018002cdb0 f i libucrtd:output.obj
 0001:0002be30       ?write_string@?$string_output_adapter@D@__crt_stdio_output@@QEBAXQEBDHQEAHAEAV__crt_deferred_errno_cache@@@Z 000000018002ce30 f i libucrtd:output.obj
 0001:0002bfa0       ?write_string@?$string_output_adapter@_W@__crt_stdio_output@@QEBAXQEB_WHQEAHAEAV__crt_deferred_errno_cache@@@Z 000000018002cfa0 f i libucrtd:output.obj
 0001:0002c110       ?write_string_impl@?$output_adapter_common@_WV?$stream_output_adapter@_W@__crt_stdio_output@@@__crt_stdio_output@@IEBAXQEB_WHQEAHAEAV__crt_deferred_errno_cache@@@Z 000000018002d110 f i libucrtd:output.obj
 0001:0002c1f0       __acrt_isleadbyte_l_noupdate 000000018002d1f0 f i libucrtd:output.obj
 0001:0002c220       __acrt_locale_get_ctype_array_value 000000018002d220 f i libucrtd:output.obj
 0001:0002c260       __stdio_common_vfwprintf   000000018002d260 f   libucrtd:output.obj
 0001:0002c2a0       __stdio_common_vsnprintf_s 000000018002d2a0 f   libucrtd:output.obj
 0001:0002c300       __stdio_common_vsnwprintf_s 000000018002d300 f   libucrtd:output.obj
 0001:0002c360       __stdio_common_vsprintf    000000018002d360 f   libucrtd:output.obj
 0001:0002c3b0       __stdio_common_vsprintf_s  000000018002d3b0 f   libucrtd:output.obj
 0001:0002c400       __stdio_common_vswprintf   000000018002d400 f   libucrtd:output.obj
 0001:0002c450       _ctype_fast_check_internal 000000018002d450 f i libucrtd:output.obj
 0001:0002c480       _isdigit_fast_internal     000000018002d480 f i libucrtd:output.obj
 0001:0002c4b0       _tolower_fast_internal     000000018002d4b0 f i libucrtd:output.obj
 0001:0002d550       ??$ftprintf@PEAU_iobuf@@PEB_WAEBQEB_WAEBQEB_WAEBI@?$__crt_char_traits@_W@@SAH$$QEAPEAU_iobuf@@$$QEAPEB_WAEBQEB_W2AEBI@Z 000000018002e550 f i libucrtd:assert.obj
 0001:0002d5a0       ??$itot_s@AEBIPEA_W_KH@?$__crt_char_traits@_W@@SAHAEBI$$QEAPEA_W$$QEA_K$$QEAH@Z 000000018002e5a0 f i libucrtd:assert.obj
 0001:0002d5f0       ??$show_message_box@AEAY0CEA@_WPEB_WJ@?$__crt_char_traits@_W@@SAHAEAY0CEA@_W$$QEAPEB_W$$QEAJ@Z 000000018002e5f0 f i libucrtd:assert.obj
 0001:0002d630       ??$tcscat_s@AEBQEA_WAEB_KAEAPEA_W@?$__crt_char_traits@_W@@SAHAEBQEA_WAEB_KAEAPEA_W@Z 000000018002e630 f i libucrtd:assert.obj
 0001:0002d630       ??$tcscat_s@AEBQEA_WAEB_KAEBQEB_W@?$__crt_char_traits@_W@@SAHAEBQEA_WAEB_KAEBQEB_W@Z 000000018002e630 f i libucrtd:assert.obj
 0001:0002d630       ??$tcscat_s@AEBQEA_WAEB_KPEB_W@?$__crt_char_traits@_W@@SAHAEBQEA_WAEB_K$$QEAPEB_W@Z 000000018002e630 f i libucrtd:assert.obj
 0001:0002d670       ??$tcscpy_s@AEBQEA_WAEB_KPEB_W@?$__crt_char_traits@_W@@SAHAEBQEA_WAEB_K$$QEAPEB_W@Z 000000018002e670 f i libucrtd:assert.obj
 0001:0002d6b0       ??$tcsncat_s@AEBQEA_WAEB_KAEAPEB_W_K@?$__crt_char_traits@_W@@SAHAEBQEA_WAEB_KAEAPEB_W$$QEA_K@Z 000000018002e6b0 f i libucrtd:assert.obj
 0001:0002d6b0       ??$tcsncat_s@AEBQEA_WAEB_KAEBQEB_WAEB_K@?$__crt_char_traits@_W@@SAHAEBQEA_WAEB_KAEBQEB_W1@Z 000000018002e6b0 f i libucrtd:assert.obj
 0001:0002d6b0       ??$tcsncat_s@AEBQEA_WAEB_KPEB_W_K@?$__crt_char_traits@_W@@SAHAEBQEA_WAEB_K$$QEAPEB_W$$QEA_K@Z 000000018002e6b0 f i libucrtd:assert.obj
 0001:0002d8c0       ?has_any_buffer@__crt_stdio_stream@@QEBA_NXZ 000000018002e8c0 f i libucrtd:assert.obj
 0001:0002d8e0       ?has_any_of@__crt_stdio_stream@@QEBA_NJ@Z 000000018002e8e0 f i libucrtd:assert.obj
 0001:0002d920       _vfwprintf_l               000000018002e920 f i libucrtd:assert.obj
 0001:0002d970       _vswprintf_c_l             000000018002e970 f i libucrtd:assert.obj
 0001:0002d9e0       _wassert                   000000018002e9e0 f   libucrtd:assert.obj
 0001:0002da20       fwprintf                   000000018002ea20 f i libucrtd:assert.obj
 0001:0002dbb0       swprintf                   000000018002ebb0 f i libucrtd:assert.obj
 0001:0002dc10       ceilf                      000000018002ec10 f   libucrtd:ceilf.obj
 0001:0002dd80       cosf                       000000018002ed80 f   libucrtd:cosf.obj
 0001:0002e280       floorf                     000000018002f280 f   libucrtd:floorf.obj
 0001:0002e3d0       sinf                       000000018002f3d0 f   libucrtd:sinf.obj
 0001:0002ead0       sqrtf                      000000018002fad0 f   libucrtd:sqrtf.obj
 0001:0002ec10       __acrt_initialize_locks    000000018002fc10 f   libucrtd:locks.obj
 0001:0002ec80       __acrt_lock                000000018002fc80 f   libucrtd:locks.obj
 0001:0002ecb0       __acrt_uninitialize_locks  000000018002fcb0 f   libucrtd:locks.obj
 0001:0002ed10       __acrt_unlock              000000018002fd10 f   libucrtd:locks.obj
 0001:0002ed40       _lock_locales              000000018002fd40 f   libucrtd:locks.obj
 0001:0002ed60       _unlock_locales            000000018002fd60 f   libucrtd:locks.obj
 0001:0002f2a0       __acrt_should_sync_with_global_locale 00000001800302a0 f i libucrtd:setlocale.obj
 0001:0002f490       setlocale                  0000000180030490 f   libucrtd:setlocale.obj
 0001:0002f4d0       _wcsdup_dbg                00000001800304d0 f   libucrtd:wcsdup.obj
 0001:0002f590       __pctype_func              0000000180030590 f   libucrtd:ctype.obj
 0001:0002f690       islower                    0000000180030690 f   libucrtd:_ctype.obj
 0001:0002f6b0       isupper                    00000001800306b0 f   libucrtd:_ctype.obj
 0001:0002f6d0       ___lc_codepage_func        00000001800306d0 f   libucrtd:initctype.obj
 0001:0002f710       ___lc_locale_name_func     0000000180030710 f   libucrtd:initctype.obj
 0001:0002f750       __acrt_locale_initialize_ctype 0000000180030750 f   libucrtd:initctype.obj
 0001:00030200       rand_s                     0000000180031200 f   libucrtd:rand_s.obj
 0001:000302f0       __acrt_initialize_stdio    00000001800312f0 f   libucrtd:_file.obj
 0001:000304e0       __acrt_iob_func            00000001800314e0 f   libucrtd:_file.obj
 0001:00030500       __acrt_uninitialize_stdio  0000000180031500 f   libucrtd:_file.obj
 0001:00030590       _get_stream_buffer_pointers 0000000180031590 f   libucrtd:_file.obj
 0001:000306c0       _lock_file                 00000001800316c0 f   libucrtd:_file.obj
 0001:00030700       _unlock_file               0000000180031700 f   libucrtd:_file.obj
 0001:00030740       ?is_in_use@__crt_stdio_stream@@QEBA_NXZ 0000000180031740 f i libucrtd:fclose.obj
 0001:00030780       _fclose_nolock             0000000180031780 f   libucrtd:fclose.obj
 0001:00030910       fclose                     0000000180031910 f   libucrtd:fclose.obj
 0001:00030e80       ?__acrt_stdio_reset_buffer@@YAXV__crt_stdio_stream@@@Z 0000000180031e80 f i libucrtd:fflush.obj
 0001:00030fb0       ?has_all_of@__crt_stdio_stream@@QEBA_NJ@Z 0000000180031fb0 f i libucrtd:fflush.obj
 0001:00031090       ?set_flags@__crt_stdio_stream@@QEBA_NJ@Z 0000000180032090 f i libucrtd:fflush.obj
 0001:00031100       ?unset_flags@__crt_stdio_stream@@QEBA_NJ@Z 0000000180032100 f i libucrtd:fflush.obj
 0001:00031160       __acrt_stdio_flush_nolock  0000000180032160 f   libucrtd:fflush.obj
 0001:00031270       _fflush_nolock             0000000180032270 f   libucrtd:fflush.obj
 0001:00031300       _flushall                  0000000180032300 f   libucrtd:fflush.obj
 0001:00031310       fflush                     0000000180032310 f   libucrtd:fflush.obj
 0001:000313a0       _fgetc_nolock              00000001800323a0 f   libucrtd:fgetc.obj
 0001:00031500       fgetc                      0000000180032500 f   libucrtd:fgetc.obj
 0001:000317c0       fgetpos                    00000001800327c0 f   libucrtd:fgetpos.obj
 0001:00031950       _fputc_nolock              0000000180032950 f   libucrtd:fputc.obj
 0001:00031a00       fputc                      0000000180032a00 f   libucrtd:fputc.obj
 0001:00031ca0       _fread_nolock_s            0000000180032ca0 f   libucrtd:fread.obj
 0001:00032650       fread                      0000000180033650 f   libucrtd:fread.obj
 0001:000326a0       fread_s                    00000001800336a0 f   libucrtd:fread.obj
 0001:000327f0       fsetpos                    00000001800337f0 f   libucrtd:fsetpos.obj
 0001:00032970       ?LongLongSub@@YAJ_J0PEA_J@Z 0000000180033970 f i libucrtd:fseek.obj
 0001:00032fa0       ?lowio_handle@__crt_stdio_stream@@QEBAHXZ 0000000180033fa0 f i libucrtd:fseek.obj
 0001:00032fd0       _fseeki64                  0000000180033fd0 f   libucrtd:fseek.obj
 0001:00033130       ?has_big_buffer@__crt_stdio_stream@@QEBA_NXZ 0000000180034130 f i libucrtd:fwrite.obj
 0001:00033150       _fwrite_nolock             0000000180034150 f   libucrtd:fwrite.obj
 0001:000338d0       fwrite                     00000001800348d0 f   libucrtd:fwrite.obj
 0001:00033c90       setvbuf                    0000000180034c90 f   libucrtd:setvbuf.obj
 0001:00033f50       _ungetc_nolock             0000000180034f50 f   libucrtd:ungetc.obj
 0001:000342f0       ungetc                     00000001800352f0 f   libucrtd:ungetc.obj
 0001:000343e0       pow                        00000001800353e0 f   libucrtd:pow.obj
 0001:00035a80       powf                       0000000180036a80 f   libucrtd:powf.obj
 0001:00036950       __acrt_errno_from_os_error 0000000180037950 f   libucrtd:errno.obj
 0001:000369e0       __acrt_errno_map_os_error  00000001800379e0 f   libucrtd:errno.obj
 0001:00036a10       __doserrno                 0000000180037a10 f   libucrtd:errno.obj
 0001:00036a40       _errno                     0000000180037a40 f   libucrtd:errno.obj
 0001:00036a70       ??$make_c_string_character_source@_W$$T@__crt_strtox@@YA?AV?$c_string_character_source@_W@0@QEB_W$$T@Z 0000000180037a70 f i libucrtd:atox.obj
 0001:00036a70       ??$make_c_string_character_source@DPEAPEAD@__crt_strtox@@YA?AV?$c_string_character_source@D@0@QEBDQEAPEAD@Z 0000000180037a70 f i libucrtd:strtod.obj
 0001:00036a70       ??$make_c_string_character_source@_WPEAPEA_W@__crt_strtox@@YA?AV?$c_string_character_source@_W@0@QEB_WQEAPEA_W@Z 0000000180037a70 f i libucrtd:strtod.obj
 0001:00036ab0       ??0?$c_string_character_source@_W@__crt_strtox@@QEAA@QEB_WQEAPEB_W@Z 0000000180037ab0 f i libucrtd:strtod.obj
 0001:00036ab0       ??0?$c_string_character_source@D@__crt_strtox@@QEAA@QEBDQEAPEBD@Z 0000000180037ab0 f i libucrtd:strtod.obj
 0001:00036b00       ??0big_integer@__crt_strtox@@QEAA@AEBU01@@Z 0000000180037b00 f i libucrtd:strtod.obj
 0001:00036b00       ??4big_integer@__crt_strtox@@QEAAAEAU01@AEBU01@@Z 0000000180037b00 f i libucrtd:strtod.obj
 0001:00036b60       ??0big_integer@__crt_strtox@@QEAA@XZ 0000000180037b60 f i libucrtd:strtod.obj
 0001:00036ba0       ??1?$c_string_character_source@_W@__crt_strtox@@QEAA@XZ 0000000180037ba0 f i libucrtd:strtod.obj
 0001:00036ba0       ??1?$c_string_character_source@D@__crt_strtox@@QEAA@XZ 0000000180037ba0 f i libucrtd:strtod.obj
 0001:00036bd0       ?add_carry@__crt_strtox@@YAIAEAIII@Z 0000000180037bd0 f i libucrtd:strtod.obj
 0001:00036c20       ?add_multiply_carry@__crt_strtox@@YAIAEAIIII@Z 0000000180037c20 f i libucrtd:strtod.obj
 0001:00036c80       ?bit_scan_reverse@__crt_strtox@@YAII@Z 0000000180037c80 f i libucrtd:strtod.obj
 0001:00036cc0       ?count_sequential_high_zeroes@__crt_strtox@@YAII@Z 0000000180037cc0 f i libucrtd:strtod.obj
 0001:00036d00       ?divide@__crt_strtox@@YA_KAEAUbig_integer@1@AEBU21@@Z 0000000180037d00 f i libucrtd:strtod.obj
 0001:000376d0       ?get@?$c_string_character_source@D@__crt_strtox@@QEAADXZ 00000001800386d0 f i libucrtd:strtod.obj
 0001:00037710       ?get@?$c_string_character_source@_W@__crt_strtox@@QEAA_WXZ 0000000180038710 f i libucrtd:strtod.obj
 0001:00037750       ?is_space@__crt_strtox@@YA_NDQEAU__crt_locale_pointers@@@Z 0000000180038750 f i libucrtd:strtod.obj
 0001:000377a0       ?is_space@__crt_strtox@@YA_N_WPEAU__crt_locale_pointers@@@Z 00000001800387a0 f i libucrtd:strtod.obj
 0001:000377e0       ?make_big_integer@__crt_strtox@@YA?AUbig_integer@1@_K@Z 00000001800387e0 f i libucrtd:strtod.obj
 0001:000378b0       ?multiply@__crt_strtox@@YA_NAEAUbig_integer@1@AEBU21@@Z 00000001800388b0 f i libucrtd:strtod.obj
 0001:00037c30       ?multiply@__crt_strtox@@YA_NAEAUbig_integer@1@I@Z 0000000180038c30 f i libucrtd:strtod.obj
 0001:00037d50       ?multiply_64_32@__crt_strtox@@YA_K_KI@Z 0000000180038d50 f i libucrtd:strtod.obj
 0001:00037d70       ?multiply_by_power_of_ten@__crt_strtox@@YA_NAEAUbig_integer@1@I@Z 0000000180038d70 f i libucrtd:strtod.obj
 0001:00037f20       ?multiply_core@__crt_strtox@@YAIQEAIII@Z 0000000180038f20 f i libucrtd:strtod.obj
 0001:00037fa0       ?parse_digit@__crt_strtox@@YAID@Z 0000000180038fa0 f i libucrtd:strtod.obj
 0001:00038010       ?parse_digit@__crt_strtox@@YAI_W@Z 0000000180039010 f i libucrtd:strtod.obj
 0001:00038060       ?restore_state@?$c_string_character_source@D@__crt_strtox@@QEAA_NQEBD@Z 0000000180039060 f i libucrtd:strtod.obj
 0001:00038060       ?restore_state@?$c_string_character_source@_W@__crt_strtox@@QEAA_NQEB_W@Z 0000000180039060 f i libucrtd:strtod.obj
 0001:00038080       ?shift_left@__crt_strtox@@YA_NAEAUbig_integer@1@I@Z 0000000180039080 f i libucrtd:strtod.obj
 0001:00038360       ?unget@?$c_string_character_source@D@__crt_strtox@@QEAAXD@Z 0000000180039360 f i libucrtd:strtod.obj
 0001:00038440       ?unget@?$c_string_character_source@_W@__crt_strtox@@QEAAX_W@Z 0000000180039440 f i libucrtd:strtod.obj
 0001:00038520       ?validate@?$c_string_character_source@D@__crt_strtox@@QEBA_NXZ 0000000180039520 f i libucrtd:strtod.obj
 0001:000385e0       ?validate@?$c_string_character_source@_W@__crt_strtox@@QEBA_NXZ 00000001800395e0 f i libucrtd:strtod.obj
 0001:000386a0       ?wide_character_to_digit@__crt_strtox@@YAH_W@Z 00000001800396a0 f i libucrtd:strtod.obj
 0001:00038a10       __ascii_iswalpha           0000000180039a10 f i libucrtd:strtod.obj
 0001:00038a50       __ascii_toupper            0000000180039a50 f i libucrtd:strtod.obj
 0001:00038a70       __ascii_towupper           0000000180039a70 f i libucrtd:strtod.obj
 0001:00038aa0       strcmp                     0000000180039aa0 f   libucrtd:strcmp.obj
 0001:00038b20       strlen                     0000000180039b20 f   libucrtd:strlen.obj
 0001:00038bd0       abort                      0000000180039bd0 f   libucrtd:abort.obj
 0001:00038c50       __strncnt                  0000000180039c50 f   libucrtd:strncnt.obj
 0001:0003a010       ??1?$__crt_simd_cleanup_guard@$00@@QEAA@XZ 000000018003b010 f i libucrtd:strnlen.obj
 0001:0003a020       ?compare_equals@?$__crt_simd_traits@$00E@@SA?AT__m256i@@T2@0@Z 000000018003b020 f i libucrtd:strnlen.obj
 0001:0003a060       ?compare_equals@?$__crt_simd_traits@$00G@@SA?AT__m256i@@T2@0@Z 000000018003b060 f i libucrtd:strnlen.obj
 0001:0003a0a0       ?compare_equals@?$__crt_simd_traits@$0A@E@@SA?AT__m128i@@T2@0@Z 000000018003b0a0 f i libucrtd:strnlen.obj
 0001:0003a0d0       ?compare_equals@?$__crt_simd_traits@$0A@G@@SA?AT__m128i@@T2@0@Z 000000018003b0d0 f i libucrtd:strnlen.obj
 0001:0003a100       ?compute_byte_mask@?$__crt_simd_pack_traits@$00@@SAHT__m256i@@@Z 000000018003b100 f i libucrtd:strnlen.obj
 0001:0003a120       ?compute_byte_mask@?$__crt_simd_pack_traits@$0A@@@SAHT__m128i@@@Z 000000018003b120 f i libucrtd:strnlen.obj
 0001:0003a140       ?get_zero_pack@?$__crt_simd_pack_traits@$00@@SA?AT__m256i@@XZ 000000018003b140 f i libucrtd:strnlen.obj
 0001:0003a170       ?get_zero_pack@?$__crt_simd_pack_traits@$0A@@@SA?AT__m128i@@XZ 000000018003b170 f i libucrtd:strnlen.obj
 0001:0003a190       strnlen                    000000018003b190 f   libucrtd:strnlen.obj
 0001:0003a1c0       wcslen                     000000018003b1c0 f   libucrtd:strnlen.obj
 0001:0003a1e0       wcsnlen                    000000018003b1e0 f   libucrtd:strnlen.obj
 0001:0003a550       ??$__acrt_mbs_to_wcs_cp@U__crt_win32_buffer_internal_dynamic_resizing@@@@YAHQEBDAEAV?$__crt_win32_buffer@_WU__crt_win32_buffer_internal_dynamic_resizing@@@@I@Z 000000018003b550 f i libucrtd:strftime.obj
 0001:0003a5a0       ??$__acrt_wcs_to_mbs_cp@U__crt_win32_buffer_no_resizing@@@@YAHQEB_WAEAV?$__crt_win32_buffer@DU__crt_win32_buffer_no_resizing@@@@I@Z 000000018003b5a0 f i libucrtd:strftime.obj
 0001:0003a5f0       ??0?$__crt_win32_buffer@DU__crt_win32_buffer_no_resizing@@@@QEAA@QEAD_K@Z 000000018003b5f0 f i libucrtd:strftime.obj
 0001:0003a660       ??0?$__crt_win32_buffer@DU__crt_win32_buffer_internal_dynamic_resizing@@@@QEAA@XZ 000000018003b660 f i libucrtd:argv_wildcards.obj
 0001:0003a660       ??0?$__crt_win32_buffer@_WU__crt_win32_buffer_internal_dynamic_resizing@@@@QEAA@XZ 000000018003b660 f i libucrtd:strftime.obj
 0001:0003a6c0       ??1?$__crt_win32_buffer@DU__crt_win32_buffer_no_resizing@@@@QEAA@XZ 000000018003b6c0 f i libucrtd:strftime.obj
 0001:0003a6f0       ??1?$__crt_win32_buffer@DU__crt_win32_buffer_internal_dynamic_resizing@@@@QEAA@XZ 000000018003b6f0 f i libucrtd:argv_wildcards.obj
 0001:0003a6f0       ??1?$__crt_win32_buffer@_WU__crt_win32_buffer_internal_dynamic_resizing@@@@QEAA@XZ 000000018003b6f0 f i libucrtd:strftime.obj
 0001:0003a7d0       ?_deallocate@?$__crt_win32_buffer@DU__crt_win32_buffer_no_resizing@@@@AEAAXXZ 000000018003b7d0 f i libucrtd:strftime.obj
 0001:0003a810       ?_deallocate@?$__crt_win32_buffer@_WU__crt_win32_buffer_internal_dynamic_resizing@@@@AEAAXXZ 000000018003b810 f i libucrtd:strftime.obj
 0001:0003a810       ?_deallocate@?$__crt_win32_buffer@DU__crt_win32_buffer_internal_dynamic_resizing@@@@AEAAXXZ 000000018003b810 f i libucrtd:argv_wildcards.obj
 0001:0003a850       ?allocate@?$__crt_win32_buffer@DU__crt_win32_buffer_no_resizing@@@@QEAAH_K@Z 000000018003b850 f i libucrtd:strftime.obj
 0001:0003a8d0       ?allocate@?$__crt_win32_buffer@_WU__crt_win32_buffer_internal_dynamic_resizing@@@@QEAAH_K@Z 000000018003b8d0 f i libucrtd:strftime.obj
 0001:0003a960       ?allocate@__crt_win32_buffer_internal_dynamic_resizing@@SAHQEAPEAX_KAEBV__crt_win32_buffer_empty_debug_info@@@Z 000000018003b960 f i libucrtd:strftime.obj
 0001:0003a9c0       ?allocate@__crt_win32_buffer_no_resizing@@SAHQEAPEAX_KAEBV__crt_win32_buffer_empty_debug_info@@@Z 000000018003b9c0 f i libucrtd:strftime.obj
 0001:0003a9f0       ?capacity@?$__crt_win32_buffer@DU__crt_win32_buffer_internal_dynamic_resizing@@@@QEBA_KXZ 000000018003b9f0 f i libucrtd:argv_wildcards.obj
 0001:0003a9f0       ?capacity@?$__crt_win32_buffer@_WU__crt_win32_buffer_internal_dynamic_resizing@@@@QEBA_KXZ 000000018003b9f0 f i libucrtd:strftime.obj
 0001:0003a9f0       ?capacity@?$__crt_win32_buffer@DU__crt_win32_buffer_no_resizing@@@@QEBA_KXZ 000000018003b9f0 f i libucrtd:strftime.obj
 0001:0003aa00       ?data@?$__crt_win32_buffer@_WU__crt_win32_buffer_internal_dynamic_resizing@@@@QEAAPEA_WXZ 000000018003ba00 f i libucrtd:strftime.obj
 0001:0003aa00       ?data@?$__crt_win32_buffer@DU__crt_win32_buffer_no_resizing@@@@QEAAPEADXZ 000000018003ba00 f i libucrtd:strftime.obj
 0001:0003aa00       ?data@?$__crt_win32_buffer@DU__crt_win32_buffer_internal_dynamic_resizing@@@@QEAAPEADXZ 000000018003ba00 f i libucrtd:argv_wildcards.obj
 0001:0003aa10       ?deallocate@__crt_win32_buffer_internal_dynamic_resizing@@SAXQEAXAEBV__crt_win32_buffer_empty_debug_info@@@Z 000000018003ba10 f i libucrtd:strftime.obj
 0001:0003aa40       ?set_to_nullptr@?$__crt_win32_buffer@DU__crt_win32_buffer_no_resizing@@@@QEAAXXZ 000000018003ba40 f i libucrtd:strftime.obj
 0001:0003aa80       ?set_to_nullptr@?$__crt_win32_buffer@_WU__crt_win32_buffer_internal_dynamic_resizing@@@@QEAAXXZ 000000018003ba80 f i libucrtd:strftime.obj
 0001:0003aa80       ?set_to_nullptr@?$__crt_win32_buffer@DU__crt_win32_buffer_internal_dynamic_resizing@@@@QEAAXXZ 000000018003ba80 f i libucrtd:argv_wildcards.obj
 0001:0003aac0       ?size@?$__crt_win32_buffer@DU__crt_win32_buffer_internal_dynamic_resizing@@@@QEAAX_K@Z 000000018003bac0 f i libucrtd:argv_wildcards.obj
 0001:0003aac0       ?size@?$__crt_win32_buffer@DU__crt_win32_buffer_no_resizing@@@@QEAAX_K@Z 000000018003bac0 f i libucrtd:strftime.obj
 0001:0003aac0       ?size@?$__crt_win32_buffer@_WU__crt_win32_buffer_internal_dynamic_resizing@@@@QEAAX_K@Z 000000018003bac0 f i libucrtd:strftime.obj
 0001:0003aae0       ?size@?$__crt_win32_buffer@DU__crt_win32_buffer_no_resizing@@@@QEBA_KXZ 000000018003bae0 f i libucrtd:strftime.obj
 0001:0003aaf0       __ascii_tolower            000000018003baf0 f i libucrtd:tolower_toupper.obj
 0001:0003ab10       ?__crt_fast_encode_pointer@@YA?AU__crt_fast_encoded_nullptr_t@@$$T@Z 000000018003bb10 f i libucrtd:new_handler.obj
 0001:0003ab30       ?initialize@?$dual_state_global@P6AXH@Z@__crt_state_management@@QEAAXQ6AXH@Z@Z 000000018003bb30 f i libucrtd:signal.obj
 0001:0003ab30       ?initialize@?$dual_state_global@PEAU__crt_locale_data@@@__crt_state_management@@QEAAXQEAU__crt_locale_data@@@Z 000000018003bb30 f i libucrtd:initialization.obj
 0001:0003ab30       ?initialize@?$dual_state_global@PEAU__crt_multibyte_data@@@__crt_state_management@@QEAAXQEAU__crt_multibyte_data@@@Z 000000018003bb30 f i libucrtd:mbctype.obj
 0001:0003ab30       ?initialize@?$dual_state_global@P6AHPEAU_exception@@@Z@__crt_state_management@@QEAAXQ6AHPEAU_exception@@@Z@Z 000000018003bb30 f i libucrtd:matherr.obj
 0001:0003ab30       ?initialize@?$dual_state_global@P6AH_K@Z@__crt_state_management@@QEAAXQ6AH_K@Z@Z 000000018003bb30 f i libucrtd:new_handler.obj
 0001:0003ab80       __acrt_initialize_new_handler 000000018003bb80 f   libucrtd:new_handler.obj
 0001:0003aba0       _callnewh                  000000018003bba0 f   libucrtd:new_handler.obj
 0001:0003abf0       _query_new_handler         000000018003bbf0 f   libucrtd:new_handler.obj
 0001:0003ac30       malloc                     000000018003bc30 f   libucrtd:malloc.obj
 0001:0003ac60       _initterm                  000000018003bc60 f   libucrtd:initterm.obj
 0001:0003acc0       _initterm_e                000000018003bcc0 f   libucrtd:initterm.obj
 0001:0003adb0       _seh_filter_dll            000000018003bdb0 f   libucrtd:exception_filter.obj
 0001:0003ade0       _seh_filter_exe            000000018003bde0 f   libucrtd:exception_filter.obj
 0001:0003b080       ??$?B$$A6AXH@Z@__crt_fast_encoded_nullptr_t@@QEBAP6AXH@ZXZ 000000018003c080 f i libucrtd:signal.obj
 0001:0003b080       ??$?B$$A6AHPEA_WK_J@Z@__crt_fast_encoded_nullptr_t@@QEBAP6AHPEA_WK_J@ZXZ 000000018003c080 f i libucrtd:winapi_thunks.obj
 0001:0003b080       ??$?BX@__crt_fast_encoded_nullptr_t@@QEBAPEAXXZ 000000018003c080 f i libucrtd:initialization.obj
 0001:0003b080       ??$?BP6AXXZ@__crt_fast_encoded_nullptr_t@@QEBAPEAP6AXXZXZ 000000018003c080 f i libucrtd:onexit.obj
 0001:0003b080       ??$?B$$A6AXXZ@__crt_fast_encoded_nullptr_t@@QEBAP6AXXZXZ 000000018003c080 f i libucrtd:onexit.obj
 0001:0003b080       ??$?B$$A6AXPEAXK0@Z@__crt_fast_encoded_nullptr_t@@QEBAP6AXPEAXK0@ZXZ 000000018003c080 f i libucrtd:exit.obj
 0001:0003b130       ??$__crt_fast_encode_pointer@P6AXH@Z@@YAP6AXH@ZQ6AXH@Z@Z 000000018003c130 f i libucrtd:signal.obj
 0001:0003b130       ??$__crt_fast_encode_pointer@P6AXPEAXK0@Z@@YAP6AXPEAXK0@ZQ6AX0K0@Z@Z 000000018003c130 f i libucrtd:exit.obj
 0001:0003b130       ??$__crt_fast_encode_pointer@P6AXXZ@@YAP6AXXZQ6AXXZ@Z 000000018003c130 f i libucrtd:onexit.obj
 0001:0003b130       ??$__crt_fast_encode_pointer@P6AHXZ@@YAP6AHXZQ6AHXZ@Z 000000018003c130 f i libucrtd:onexit.obj
 0001:0003b130       ??$__crt_fast_encode_pointer@P6AHPEA_WK_J@Z@@YAP6AHPEA_WK_J@ZQ6AH0K1@Z@Z 000000018003c130 f i libucrtd:winapi_thunks.obj
 0001:0003b130       ??$__crt_fast_encode_pointer@PEAP6AXXZ@@YAPEAP6AXXZQEAP6AXXZ@Z 000000018003c130 f i libucrtd:onexit.obj
 0001:0003b130       ??$__crt_fast_encode_pointer@PEAX@@YAPEAXQEAX@Z 000000018003c130 f i libucrtd:initialization.obj
 0001:0003b170       ??$__crt_get_proc_address@P6AXI@Z@@YAP6AXI@ZQEAUHINSTANCE__@@QEBD@Z 000000018003c170 f i libucrtd:exit.obj
 0001:0003b1a0       ??1?$__crt_unique_handle_t@U__crt_hmodule_traits@@@@QEAA@XZ 000000018003c1a0 f i libucrtd:exit.obj
 0001:0003b2c0       ?__acrt_select_exit_lock@@YA?AW4__acrt_lock_id@@XZ 000000018003c2c0 f i libucrtd:exit.obj
 0001:0003b2f0       ?close@?$__crt_unique_handle_t@U__crt_hmodule_traits@@@@QEAAXXZ 000000018003c2f0 f i libucrtd:exit.obj
 0001:0003b330       ?close@__crt_hmodule_traits@@SA_NPEAUHINSTANCE__@@@Z 000000018003c330 f i libucrtd:exit.obj
 0001:0003b5f0       __acrt_initialize_thread_local_exit_callback 000000018003c5f0 f   libucrtd:exit.obj
 0001:0003b610       _cexit                     000000018003c610 f   libucrtd:exit.obj
 0001:0003b630       _exit                      000000018003c630 f   libucrtd:exit.obj
 0001:0003b650       _is_c_termination_complete 000000018003c650 f   libucrtd:exit.obj
 0001:0003be90       ??$set_program_name@PEAD@?$__crt_char_traits@D@@SAX$$QEAPEAD@Z 000000018003ce90 f i libucrtd:argv_parsing.obj
 0001:0003bfc0       __acrt_allocate_buffer_for_argv 000000018003cfc0 f   libucrtd:argv_parsing.obj
 0001:0003c0e0       _configure_narrow_argv     000000018003d0e0 f   libucrtd:argv_parsing.obj
 0001:0003c100       _set_pgmptr                000000018003d100 f i libucrtd:argv_parsing.obj
 0001:0003c330       ??$tcslen@AEAPEAD@?$__crt_char_traits@D@@SA_KAEAPEAD@Z 000000018003d330 f i libucrtd:environment_initialization.obj
 0001:0003c37c       ??B?$__crt_unique_heap_ptr@PEADU__crt_internal_free_policy@@@@QEBA_NXZ 000000018003d37c f i libucrtd:environment_initialization.obj
 0001:0003c384       __dcrt_uninitialize_environments_nolock 000000018003d384 f   libucrtd:environment_initialization.obj
 0001:0003c3bc       _initialize_narrow_environment 000000018003d3bc f   libucrtd:environment_initialization.obj
 0001:0003ca50       _crt_atexit                000000018003da50 f   libucrtd:onexit.obj
 0001:0003ca70       _execute_onexit_table      000000018003da70 f   libucrtd:onexit.obj
 0001:0003cab0       _initialize_onexit_table   000000018003dab0 f   libucrtd:onexit.obj
 0001:0003cb30       _register_onexit_function  000000018003db30 f   libucrtd:onexit.obj
 0001:0003cbc0       __acrt_uninitialize_command_line 000000018003dbc0 f   libucrtd:argv_data.obj
 0001:0003ce30       __acrt_initialize          000000018003de30 f   libucrtd:initialization.obj
 0001:0003ce60       __acrt_thread_attach       000000018003de60 f   libucrtd:initialization.obj
 0001:0003ce80       __acrt_thread_detach       000000018003de80 f   libucrtd:initialization.obj
 0001:0003ce90       __acrt_uninitialize        000000018003de90 f   libucrtd:initialization.obj
 0001:0003cec0       __acrt_uninitialize_critical 000000018003dec0 f   libucrtd:initialization.obj
 0001:0003cee0       terminate                  000000018003dee0 f   libucrtd:terminate.obj
 0001:0003d3f0       strcpy_s                   000000018003e3f0 f   libucrtd:strcpy_s.obj
 0001:0003d420       ??$is_overflow_condition@K@__crt_strtox@@YA_NIK@Z 000000018003e420 f i libucrtd:atox.obj
 0001:0003d490       ??$parse_integer@KV?$c_string_character_source@D@__crt_strtox@@@__crt_strtox@@YAKQEAU__crt_locale_pointers@@V?$c_string_character_source@D@0@H_N@Z 000000018003e490 f i libucrtd:atox.obj
 0001:0003d920       ??$parse_integer@KV?$c_string_character_source@_W@__crt_strtox@@@__crt_strtox@@YAKQEAU__crt_locale_pointers@@V?$c_string_character_source@_W@0@H_N@Z 000000018003e920 f i libucrtd:atox.obj
 0001:0003ddd0       ??$parse_integer_from_string@J_W$$T@__crt_strtox@@YAJQEB_W$$THQEAU__crt_locale_pointers@@@Z 000000018003edd0 f i libucrtd:atox.obj
 0001:0003ddd0       ??$parse_integer_from_string@J_WPEAPEA_W@__crt_strtox@@YAJQEB_WQEAPEA_WHQEAU__crt_locale_pointers@@@Z 000000018003edd0 f i libucrtd:strtox.obj
 0001:0003de20       ?maximum_signed_value@__crt_strtox@@YAJK@Z 000000018003ee20 f i libucrtd:atox.obj
 0001:0003de30       ?minimum_signed_value@__crt_strtox@@YAJK@Z 000000018003ee30 f i libucrtd:atox.obj
 0001:0003de40       _wtol                      000000018003ee40 f   libucrtd:atox.obj
 0001:0003de80       strncmp                    000000018003ee80 f   libucrtd:strncmp.obj
 0001:0003df00       wcsncmp                    000000018003ef00 f   libucrtd:wcsncmp.obj
 0001:0003e1d0       ??0__crt_scoped_get_last_error_reset@@QEAA@XZ 000000018003f1d0 f i libucrtd:per_thread_data.obj
 0001:0003e1f0       ??1__crt_scoped_get_last_error_reset@@QEAA@XZ 000000018003f1f0 f i libucrtd:per_thread_data.obj
 0001:0003e890       __acrt_freeptd             000000018003f890 f   libucrtd:per_thread_data.obj
 0001:0003e8d0       __acrt_getptd              000000018003f8d0 f   libucrtd:per_thread_data.obj
 0001:0003e900       __acrt_getptd_head         000000018003f900 f   libucrtd:per_thread_data.obj
 0001:0003e930       __acrt_getptd_noexit       000000018003f930 f   libucrtd:per_thread_data.obj
 0001:0003e940       __acrt_initialize_ptd      000000018003f940 f   libucrtd:per_thread_data.obj
 0001:0003e980       __acrt_uninitialize_ptd    000000018003f980 f   libucrtd:per_thread_data.obj
 0001:0003e9b0       _chvalidator               000000018003f9b0 f   libucrtd:isctype.obj
 0001:0003ea20       _chvalidator_l             000000018003fa20 f   libucrtd:isctype.obj
 0001:0003ead0       _isctype_l                 000000018003fad0 f   libucrtd:isctype.obj
 0001:0003ed00       _isleadbyte_fast_internal  000000018003fd00 f i libucrtd:isctype.obj
 0001:0003ed40       _free_base                 000000018003fd40 f   libucrtd:free_base.obj
 0001:0003eda0       _realloc_base              000000018003fda0 f   libucrtd:realloc_base.obj
 0001:0003eec0       _expand_base               000000018003fec0 f   libucrtd:expand.obj
 0001:0003f050       __acrt_update_locale_info  0000000180040050 f   libucrtd:locale_update.obj
 0001:0003f0a0       __acrt_update_multibyte_info 00000001800400a0 f   libucrtd:locale_update.obj
 0001:0003f0f0       ?value@?$dual_state_global@J@__crt_state_management@@QEAAAEAJXZ 00000001800400f0 f i libucrtd:new_mode.obj
 0001:0003f110       _query_new_mode            0000000180040110 f   libucrtd:new_mode.obj
 0001:0003f130       _CrtDefaultAllocHook       0000000180040130 f   libucrtd:debug_heap_hook.obj
 0001:0003f340       ??0_expandlocale_locale_name_cache@@QEAA@QEA_W_KQEAU__crt_qualified_locale_data@@@Z 0000000180040340 f i libucrtd:wsetlocale.obj
 0001:0003f3f0       ??1_expandlocale_locale_name_cache@@QEAA@XZ 00000001800403f0 f i libucrtd:wsetlocale.obj
 0001:0003f790       ?commit_locale_name@_expandlocale_locale_name_cache@@QEAAXQEB_W_K@Z 0000000180040790 f i libucrtd:wsetlocale.obj
 0001:0003f810       ?commit_locale_name_cache_already_updated@_expandlocale_locale_name_cache@@QEAAXQEB_W_K@Z 0000000180040810 f i libucrtd:wsetlocale.obj
 0001:0003f880       __acrt_copy_locale_name    0000000180040880 f   libucrtd:wsetlocale.obj
 0001:0003f950       __acrt_set_locale_changed  0000000180040950 f   libucrtd:wsetlocale.obj
 0001:0003f960       __acrt_uninitialize_locale 0000000180040960 f   libucrtd:wsetlocale.obj
 0001:0003f990       __ascii_towlower           0000000180040990 f i libucrtd:wsetlocale.obj
 0001:0003f9b0       __lc_lctowcs               00000001800409b0 f   libucrtd:wsetlocale.obj
 0001:0003faa0       __lc_wcstolc               0000000180040aa0 f   libucrtd:wsetlocale.obj
 0001:00040420       _wcscats                   0000000180041420 f   libucrtd:wsetlocale.obj
 0001:00040500       _wsetlocale                0000000180041500 f   libucrtd:wsetlocale.obj
 0001:00042110       __acrt_initialize_heap     0000000180043110 f   libucrtd:heap_handle.obj
 0001:00042140       __acrt_uninitialize_heap   0000000180043140 f   libucrtd:heap_handle.obj
 0001:00042160       _VCrtDbgReportA            0000000180043160 f   libucrtd:dbgrptt.obj
 0001:00042b40       _VCrtDbgReportW            0000000180043b40 f   libucrtd:dbgrptt.obj
 0001:000436c0       _snprintf_s                00000001800446c0 f i libucrtd:dbgrptt.obj
 0001:00043730       _vsnprintf_s               0000000180044730 f i libucrtd:dbgrptt.obj
 0001:00043780       _vsnprintf_s_l             0000000180044780 f i libucrtd:dbgrptt.obj
 0001:00043ce0       wcscpy_s                   0000000180044ce0 f   libucrtd:wcscpy_s.obj
 0001:00043d10       ?__acrt_get_utf8_acp_compatibility_codepage@@YAIXZ 0000000180044d10 f i libucrtd:getmodulefilenamea.obj
 0001:00043db0       __acrt_GetModuleFileNameA  0000000180044db0 f   libucrtd:getmodulefilenamea.obj
 0001:00043fd0       ??$message_box@PEAUHWND__@@AEBQEB_WAEBQEB_WAEBI@?$__crt_char_traits@_W@@SAH$$QEAPEAUHWND__@@AEBQEB_W1AEBI@Z 0000000180044fd0 f i libucrtd:crtmbox.obj
 0001:00043fd0       ??$message_box@$$TAEBQEB_WAEBQEB_WK@?$__crt_char_traits@_W@@SAH$$QEA$$TAEBQEB_W1$$QEAK@Z 0000000180044fd0 f i libucrtd:crtmbox.obj
 0001:00044020       ??$output_debug_string@AEBQEB_W@?$__crt_char_traits@_W@@SAXAEBQEB_W@Z 0000000180045020 f i libucrtd:crtmbox.obj
 0001:00044040       __acrt_show_wide_message_box 0000000180045040 f   libucrtd:crtmbox.obj
 0001:00044230       __acrt_get_sigabrt_handler 0000000180045230 f   libucrtd:signal.obj
 0001:00044260       __acrt_initialize_signal_handlers 0000000180045260 f   libucrtd:signal.obj
 0001:000442c0       __fpecode                  00000001800452c0 f   libucrtd:signal.obj
 0001:000442e0       raise                      00000001800452e0 f   libucrtd:signal.obj
 0001:000448c0       _fperrraise                00000001800458c0 f   libucrtd:_test.obj
 0001:000448f0       _fdunscale                 00000001800458f0 f   libucrtd:_unscale.obj
 0001:00044a00       _CrtGetDebugFillThreshold  0000000180045a00 f   libucrtd:debug_fill_threshold.obj
 0001:00044a10       ??$parse_integer_from_string@JDPEAPEAD@__crt_strtox@@YAJQEBDQEAPEADHQEAU__crt_locale_pointers@@@Z 0000000180045a10 f i libucrtd:strtox.obj
 0001:00044a60       strtol                     0000000180045a60 f   libucrtd:strtox.obj
 0001:00044a90       wcstol                     0000000180045a90 f   libucrtd:strtox.obj
 0001:00044ac0       _mbtowc_l                  0000000180045ac0 f   libucrtd:mbtowc.obj
 0001:00044f20       mbtowc                     0000000180045f20 f   libucrtd:mbtowc.obj
 0001:00044f50       _wctomb_s_l                0000000180045f50 f   libucrtd:wctomb.obj
 0001:000454d0       wctomb_s                   00000001800464d0 f   libucrtd:wctomb.obj
 0001:00045520       ?__acrt_fp_classify@@YA?AW4__acrt_fp_class@@AEBN@Z 0000000180046520 f i libucrtd:cvt.obj
 0001:00045620       ?__acrt_fp_is_negative@@YA_NAEBN@Z 0000000180046620 f i libucrtd:cvt.obj
 0001:00046ff0       ?strrchr@@YAPEADQEADH@Z    0000000180047ff0 f i libucrtd:cvt.obj
 0001:00047010       __acrt_fp_format           0000000180048010 f   libucrtd:cvt.obj
 0001:000476c0       _fputwc_nolock             00000001800486c0 f   libucrtd:fputwc.obj
 0001:00047930       _fileno                    0000000180048930 f   libucrtd:fileno.obj
 0001:00047a10       _get_printf_count_output   0000000180048a10 f   libucrtd:printf_count_output.obj
 0001:00047a40       ?has_temporary_buffer@__crt_stdio_stream@@QEBA_NXZ 0000000180048a40 f i libucrtd:_sftbuf.obj
 0001:00047a60       __acrt_should_use_temporary_buffer 0000000180048a60 f   libucrtd:_sftbuf.obj
 0001:00047ab0       __acrt_stdio_begin_temporary_buffering_nolock 0000000180048ab0 f   libucrtd:_sftbuf.obj
 0001:00047cf0       __acrt_stdio_end_temporary_buffering_nolock 0000000180048cf0 f   libucrtd:_sftbuf.obj
 0001:00048130       __acrt_initialize_lowio    0000000180049130 f   libucrtd:ioinit.obj
 0001:00048180       __acrt_uninitialize_lowio  0000000180049180 f   libucrtd:ioinit.obj
 0001:000483d0       __acrt_report_runtime_error 00000001800493d0 f   libucrtd:report_runtime_error.obj
 0001:00048650       _query_app_type            0000000180049650 f   libucrtd:report_runtime_error.obj
 0001:00049250       _itoa_s                    000000018004a250 f   libucrtd:xtoa.obj
 0001:000492b0       _itow_s                    000000018004a2b0 f   libucrtd:xtoa.obj
 0001:00049310       _set_error_mode            000000018004a310 f   libucrtd:set_error_mode.obj
 0001:00049a90       wcscat_s                   000000018004aa90 f   libucrtd:wcscat_s.obj
 0001:0004a250       wcsncat_s                  000000018004b250 f   libucrtd:wcsncat_s.obj
 0001:0004a900       strcat_s                   000000018004b900 f   libucrtd:strcat_s.obj
 0001:0004ab00       _handle_error              000000018004bb00 f   libucrtd:libm_error.obj
 0001:0004ac90       _handle_errorf             000000018004bc90 f   libucrtd:libm_error.obj
 0001:0004ae20       _handle_nan                000000018004be20 f   libucrtd:libm_error.obj
 0001:0004ae70       _handle_nanf               000000018004be70 f   libucrtd:libm_error.obj
 0001:0004aeb0       __remainder_piby2d2f_forAsm 000000018004beb0 f   libucrtd:remainder_piby2f_forasm.obj
 0001:0004b000       __remainder_piby2_fma3     000000018004c000 f   libucrtd:remainder_piby2_forfma3.obj
 0001:0004b1f0       __remainder_piby2_fma3_bdl 000000018004c1f0 f   libucrtd:remainder_piby2_forfma3.obj
 0001:0004b270       _cosf_special              000000018004c270 f   libucrtd:sincos_special.obj
 0001:0004b3b0       _sinf_special              000000018004c3b0 f   libucrtd:sincos_special.obj
 0001:0004b3e0       _clrfp                     000000018004c3e0 f   libucrtd:fpctrl.obj
 0001:0004b410       _ctrlfp                    000000018004c410 f   libucrtd:fpctrl.obj
 0001:0004b4c0       _set_statfp                000000018004c4c0 f   libucrtd:fpctrl.obj
 0001:0004b500       _statfp                    000000018004c500 f   libucrtd:fpctrl.obj
 0001:0004b530       __acrt_initialize_fma3     000000018004c530 f   libucrtd:fma3_available.obj
 0001:0004b5e0       __remainder_piby2d2f_forC  000000018004c5e0 f   libucrtd:remainder_piby2f_forc.obj
 0001:0004c230       GetCurrentThreadEffectiveToken 000000018004d230 f i libucrtd:winapi_thunks.obj
 0001:0004c240       __acrt_AppPolicyGetProcessTerminationMethodInternal 000000018004d240 f   libucrtd:winapi_thunks.obj
 0001:0004c290       __acrt_AppPolicyGetShowDeveloperDiagnosticInternal 000000018004d290 f   libucrtd:winapi_thunks.obj
 0001:0004c2e0       __acrt_AppPolicyGetWindowingModelInternal 000000018004d2e0 f   libucrtd:winapi_thunks.obj
 0001:0004c330       __acrt_AreFileApisANSI     000000018004d330 f   libucrtd:winapi_thunks.obj
 0001:0004c370       __acrt_EnumSystemLocalesEx 000000018004d370 f   libucrtd:winapi_thunks.obj
 0001:0004c3f0       __acrt_FlsAlloc            000000018004d3f0 f   libucrtd:winapi_thunks.obj
 0001:0004c440       __acrt_FlsFree             000000018004d440 f   libucrtd:winapi_thunks.obj
 0001:0004c490       __acrt_FlsGetValue         000000018004d490 f   libucrtd:winapi_thunks.obj
 0001:0004c4e0       __acrt_FlsSetValue         000000018004d4e0 f   libucrtd:winapi_thunks.obj
 0001:0004c540       __acrt_GetLocaleInfoEx     000000018004d540 f   libucrtd:winapi_thunks.obj
 0001:0004c5c0       __acrt_GetUserDefaultLocaleName 000000018004d5c0 f   libucrtd:winapi_thunks.obj
 0001:0004c620       __acrt_InitializeCriticalSectionEx 000000018004d620 f   libucrtd:winapi_thunks.obj
 0001:0004c680       __acrt_IsValidLocaleName   000000018004d680 f   libucrtd:winapi_thunks.obj
 0001:0004c6e0       __acrt_LCIDToLocaleName    000000018004d6e0 f   libucrtd:winapi_thunks.obj
 0001:0004c750       __acrt_LCMapStringEx       000000018004d750 f   libucrtd:winapi_thunks.obj
 0001:0004c830       __acrt_LocaleNameToLCID    000000018004d830 f   libucrtd:winapi_thunks.obj
 0001:0004c880       __acrt_MessageBoxW         000000018004d880 f   libucrtd:winapi_thunks.obj
 0001:0004c8e0       __acrt_RtlGenRandom        000000018004d8e0 f   libucrtd:winapi_thunks.obj
 0001:0004c930       __acrt_can_show_message_box 000000018004d930 f   libucrtd:winapi_thunks.obj
 0001:0004c970       __acrt_can_use_vista_locale_apis 000000018004d970 f   libucrtd:winapi_thunks.obj
 0001:0004c9a0       __acrt_eagerly_load_locale_apis 000000018004d9a0 f   libucrtd:winapi_thunks.obj
 0001:0004c9e0       __acrt_get_parent_window   000000018004d9e0 f   libucrtd:winapi_thunks.obj
 0001:0004ca60       __acrt_initialize_winapi_thunks 000000018004da60 f   libucrtd:winapi_thunks.obj
 0001:0004cae0       __acrt_is_interactive      000000018004dae0 f   libucrtd:winapi_thunks.obj
 0001:0004cbc0       __acrt_uninitialize_winapi_thunks 000000018004dbc0 f   libucrtd:winapi_thunks.obj
 0001:0004d240       _mbstowcs_s_l              000000018004e240 f   libucrtd:mbstowcs.obj
 0001:0004d810       mbstowcs_s                 000000018004e810 f   libucrtd:mbstowcs.obj
 0001:0004e1a0       _wcstombs_s_l              000000018004f1a0 f   libucrtd:wcstombs.obj
 0001:0004e6e0       wcstombs_s                 000000018004f6e0 f   libucrtd:wcstombs.obj
 0001:0004e940       __acrt_GetLocaleInfoA      000000018004f940 f   libucrtd:getlocaleinfoa.obj
 0001:0004eda0       __acrt_GetStringTypeA      000000018004fda0 f   libucrtd:getstringtypea.obj
 0001:0004f5f0       __acrt_LCMapStringA        00000001800505f0 f   libucrtd:lcmapstringa.obj
 0001:0004f6a0       _fcloseall                 00000001800506a0 f   libucrtd:closeall.obj
 0001:0004f7b0       ?has_crt_buffer@__crt_stdio_stream@@QEBA_NXZ 00000001800507b0 f i libucrtd:_freebuf.obj
 0001:0004f7d0       __acrt_stdio_free_buffer_nolock 00000001800507d0 f   libucrtd:_freebuf.obj
 0001:0004fb20       _close                     0000000180050b20 f   libucrtd:close.obj
 0001:0004fd10       _close_nolock              0000000180050d10 f   libucrtd:close.obj
 0001:0004fd80       ?__acrt_stdio_free_stream@@YAXV__crt_stdio_stream@@@Z 0000000180050d80 f   libucrtd:stream.obj
 0001:0004fe20       ?deallocate@__crt_stdio_stream@@QEAAXXZ 0000000180050e20 f i libucrtd:stream.obj
 0001:0004ffb0       _commit                    0000000180050fb0 f   libucrtd:commit.obj
 0001:00051b90       _utf8_no_of_trailbytes     0000000180052b90 f i libucrtd:write.obj
 0001:00051bb0       _write                     0000000180052bb0 f   libucrtd:write.obj
 0001:00051e50       _write_nolock              0000000180052e50 f   libucrtd:write.obj
 0001:000528c0       __acrt_stdio_refill_and_read_narrow_nolock 00000001800538c0 f   libucrtd:_filbuf.obj
 0001:00053540       ?ctrl_z@__crt_stdio_stream@@QEBA_NXZ 0000000180054540 f i libucrtd:ftell.obj
 0001:00053560       ?has_setvbuf_buffer@__crt_stdio_stream@@QEBA_NXZ 0000000180054560 f i libucrtd:ftell.obj
 0001:00053580       _ftelli64                  0000000180054580 f   libucrtd:ftell.obj
 0001:000535b0       _ftelli64_nolock           00000001800545b0 f   libucrtd:ftell.obj
 0001:00054010       __acrt_stdio_flush_and_write_narrow_nolock 0000000180055010 f   libucrtd:_flsbuf.obj
 0001:00054040       __acrt_stdio_flush_and_write_wide_nolock 0000000180055040 f   libucrtd:_flsbuf.obj
 0001:00054e70       _read                      0000000180055e70 f   libucrtd:read.obj
 0001:000551c0       _read_nolock               00000001800561c0 f   libucrtd:read.obj
 0001:00056380       _lseeki64                  0000000180057380 f   libucrtd:lseek.obj
 0001:000563b0       _lseeki64_nolock           00000001800573b0 f   libucrtd:lseek.obj
 0001:000563e0       __acrt_stdio_allocate_buffer_nolock 00000001800573e0 f   libucrtd:_getbuf.obj
 0001:00056560       _pow_special               0000000180057560 f   libucrtd:pow_special.obj
 0001:000567e0       _powf_special              00000001800577e0 f   libucrtd:pow_special.obj
 0001:00056b20       _raise_exc                 0000000180057b20 f   libucrtd:fpexcept.obj
 0001:00056b80       _raise_exc_ex              0000000180057b80 f   libucrtd:fpexcept.obj
 0001:00057200       _raise_excf                0000000180058200 f   libucrtd:fpexcept.obj
 0001:00057260       _set_errno_from_matherr    0000000180058260 f   libucrtd:fpexcept.obj
 0001:000572b0       iswctype                   00000001800582b0 f   libucrtd:iswctype.obj
 0001:00057340       fegetround                 0000000180058340 f   libucrtd:fegetround.obj
 0001:00057400       __acrt_MultiByteToWideChar 0000000180058400 f   libucrtd:multibytetowidechar.obj
 0001:00057500       __acrt_WideCharToMultiByte 0000000180058500 f   libucrtd:widechartomultibyte.obj
 0001:00057630       __ascii_wcsicmp            0000000180058630 f   libucrtd:wcsicmp.obj
 0001:000576d0       _towlower_fast_internal    00000001800586d0 f i libucrtd:wcsicmp.obj
 0001:00057720       _towlower_internal         0000000180058720 f i libucrtd:wcsicmp.obj
 0001:00057760       _wcsicmp                   0000000180058760 f   libucrtd:wcsicmp.obj
 0001:00057900       _wcsicmp_l                 0000000180058900 f   libucrtd:wcsicmp.obj
 0001:00057ba0       ?initialize@?$dual_state_global@J@__crt_state_management@@QEAAXJ@Z 0000000180058ba0 f i libucrtd:timeset.obj
 0001:00057ba0       ?initialize@?$dual_state_global@H@__crt_state_management@@QEAAXH@Z 0000000180058ba0 f i libucrtd:timeset.obj
 0001:00057bf0       __acrt_initialize_timeset  0000000180058bf0 f   libucrtd:timeset.obj
 0001:00057cd0       _isleadbyte_l              0000000180058cd0 f i libucrtd:_wctype.obj
 0001:00058010       __acrt_get_developer_information_policy 0000000180059010 f   libucrtd:win_policies.obj
 0001:00058030       __acrt_get_process_end_policy 0000000180059030 f   libucrtd:win_policies.obj
 0001:00058040       __acrt_get_windowing_model_policy 0000000180059040 f   libucrtd:win_policies.obj
 0001:00058230       ??$__acrt_wcs_to_mbs_cp@U__crt_win32_buffer_internal_dynamic_resizing@@@@YAHQEB_WAEAV?$__crt_win32_buffer@DU__crt_win32_buffer_internal_dynamic_resizing@@@@I@Z 0000000180059230 f i libucrtd:argv_wildcards.obj
 0001:00058c80       ??$tcsncpy_s@AEAPEAD_KAEAPEADAEB_K@?$__crt_char_traits@D@@SAHAEAPEAD$$QEA_K0AEB_K@Z 0000000180059c80 f i libucrtd:argv_wildcards.obj
 0001:00058c80       ??$tcsncpy_s@PEADAEB_KAEBQEBDAEB_K@?$__crt_char_traits@D@@SAH$$QEAPEADAEB_KAEBQEBD1@Z 0000000180059c80 f i libucrtd:argv_wildcards.obj
 0001:00058c80       ??$tcsncpy_s@PEAD_KAEBQEBDAEB_K@?$__crt_char_traits@D@@SAH$$QEAPEAD$$QEA_KAEBQEBDAEB_K@Z 0000000180059c80 f i libucrtd:argv_wildcards.obj
 0001:00058cd0       ??$tcspbrk@AEAPEADAEAY02$$CBD@?$__crt_char_traits@D@@SAPEADAEAPEADAEAY02$$CBD@Z 0000000180059cd0 f i libucrtd:argv_wildcards.obj
 0001:00058d40       ??1?$__crt_unique_handle_t@U__crt_findfile_traits@@@@QEAA@XZ 0000000180059d40 f i libucrtd:argv_wildcards.obj
 0001:00058e70       ?allocate@?$__crt_win32_buffer@DU__crt_win32_buffer_internal_dynamic_resizing@@@@QEAAH_K@Z 0000000180059e70 f i libucrtd:argv_wildcards.obj
 0001:00058f60       ?close@?$__crt_unique_handle_t@U__crt_findfile_traits@@@@QEAAXXZ 0000000180059f60 f i libucrtd:argv_wildcards.obj
 0001:00058fa0       ?close@__crt_findfile_traits@@SA_NPEAX@Z 0000000180059fa0 f i libucrtd:argv_wildcards.obj
 0001:000592c0       ?strpbrk@@YAPEADQEADQEBD@Z 000000018005a2c0 f i libucrtd:argv_wildcards.obj
 0001:000592f0       __acrt_expand_narrow_argv_wildcards 000000018005a2f0 f   libucrtd:argv_wildcards.obj
 0001:000593b0       ??$initialize_from_array@$$BY10BAA@E@?$dual_state_global@PEAE@__crt_state_management@@QEAAXAEAY10BAA@E@Z 000000018005a3b0 f i libucrtd:mbctype.obj
 0001:00059420       ??$initialize_from_array@$$BY10BAB@E@?$dual_state_global@PEAE@__crt_state_management@@QEAAXAEAY10BAB@E@Z 000000018005a420 f i libucrtd:mbctype.obj
 0001:00059f90       __acrt_initialize_multibyte 000000018005af90 f   libucrtd:mbctype.obj
 0001:0005a060       __acrt_update_thread_multibyte_data 000000018005b060 f   libucrtd:mbctype.obj
 0001:0005a090       _setmbcp_nolock            000000018005b090 f   libucrtd:mbctype.obj
 0001:0005a5f0       _ismbblead                 000000018005b5f0 f   libucrtd:ismbbyte.obj
 0001:0005a610       __acrt_initialize_command_line 000000018005b610 f   libucrtd:argv_data.obj
 0001:0005a638       __dcrt_get_narrow_environment_from_os 000000018005b638 f   libucrtd:get_environment_from_os.obj
 0001:0005a750       ?wcschr@@YAPEA_WPEA_W_W@Z  000000018005b750 f i libucrtd:setenv.obj
 0001:0005a760       __acrt_execute_initializers 000000018005b760 f   libucrtd:shared_initialization.obj
 0001:0005a850       __acrt_execute_uninitializers 000000018005b850 f   libucrtd:shared_initialization.obj
 0001:0005a8d0       __acrt_has_user_matherr    000000018005b8d0 f   libucrtd:matherr.obj
 0001:0005a910       __acrt_initialize_user_matherr 000000018005b910 f   libucrtd:matherr.obj
 0001:0005a930       __acrt_invoke_user_matherr 000000018005b930 f   libucrtd:matherr.obj
 0001:0005a980       __acrt_add_locale_ref      000000018005b980 f   libucrtd:locale_refcounting.obj
 0001:0005aae0       __acrt_free_locale         000000018005bae0 f   libucrtd:locale_refcounting.obj
 0001:0005ae60       __acrt_locale_add_lc_time_reference 000000018005be60 f   libucrtd:locale_refcounting.obj
 0001:0005aea0       __acrt_locale_free_lc_time_if_unreferenced 000000018005bea0 f   libucrtd:locale_refcounting.obj
 0001:0005af00       __acrt_locale_release_lc_time_reference 000000018005bf00 f   libucrtd:locale_refcounting.obj
 0001:0005af40       __acrt_release_locale_ref  000000018005bf40 f   libucrtd:locale_refcounting.obj
 0001:0005b0b0       __acrt_update_thread_locale_data 000000018005c0b0 f   libucrtd:locale_refcounting.obj
 0001:0005b150       _updatetlocinfoEx_nolock   000000018005c150 f   libucrtd:locale_refcounting.obj
 0001:0005b1f0       _malloc_base               000000018005c1f0 f   libucrtd:malloc_base.obj
 0001:0005b290       __acrt_locale_free_monetary 000000018005c290 f   libucrtd:initmon.obj
 0001:0005b4a0       __acrt_locale_initialize_monetary 000000018005c4a0 f   libucrtd:initmon.obj
 0001:0005be50       __acrt_locale_free_numeric 000000018005ce50 f   libucrtd:initnum.obj
 0001:0005bf30       __acrt_locale_initialize_numeric 000000018005cf30 f   libucrtd:initnum.obj
 0001:0005cbb0       __acrt_locale_free_time    000000018005dbb0 f   libucrtd:inittime.obj
 0001:0005cd20       __acrt_locale_initialize_time 000000018005dd20 f   libucrtd:inittime.obj
 0001:0005d460       wcsncpy_s                  000000018005e460 f   libucrtd:wcsncpy_s.obj
 0001:0005d4a0       wcscmp                     000000018005e4a0 f   libucrtd:wcscmp.obj
 0001:0005d540       wcscspn                    000000018005e540 f   libucrtd:wcscspn.obj
 0001:0005d5e0       wcspbrk                    000000018005e5e0 f   libucrtd:wcspbrk.obj
 0001:0005e340       __acrt_get_qualified_locale 000000018005f340 f   libucrtd:get_qualified_locale.obj
 0001:0005f460       __acrt_get_qualified_locale_downlevel 0000000180060460 f   libucrtd:getqloc_downlevel.obj
 0001:0005f7c0       __acrt_OutputDebugStringA  00000001800607c0 f   libucrtd:outputdebugstringa.obj
 0001:0005f880       ??_4@YAAEAW4__acrt_fenv_abstract_status@@AEAW40@W40@@Z 0000000180060880 f i libucrtd:fegetexceptflag.obj
 0001:0005f8b0       fegetexceptflag            00000001800608b0 f   libucrtd:fegetexceptflag.obj
 0001:0005f910       ??I@YA?AW4__acrt_fenv_abstract_control@@W40@0@Z 0000000180060910 f i libucrtd:_fenvutils.obj
 0001:0005f910       ??I@YA?AW4__acrt_fenv_machine_sse_status@@W40@0@Z 0000000180060910 f i libucrtd:_fenvutils.obj
 0001:0005f910       ??I@YA?AW4__acrt_fenv_abstract_status@@W40@0@Z 0000000180060910 f i libucrtd:fesetexceptflag.obj
 0001:0005f930       ??S@YA?AW4__acrt_fenv_abstract_status@@W40@@Z 0000000180060930 f i libucrtd:fesetexceptflag.obj
 0001:0005f940       ??_5@YAAEAW4__acrt_fenv_abstract_control@@AEAW40@W40@@Z 0000000180060940 f i libucrtd:_fenvutils.obj
 0001:0005f940       ??_5@YAAEAW4__acrt_fenv_machine_sse_status@@AEAW40@W40@@Z 0000000180060940 f i libucrtd:_fenvutils.obj
 0001:0005f940       ??_5@YAAEAW4__acrt_fenv_abstract_status@@AEAW40@W40@@Z 0000000180060940 f i libucrtd:fesetexceptflag.obj
 0001:0005f970       fesetexceptflag            0000000180060970 f   libucrtd:fesetexceptflag.obj
 0001:0005fa30       ??$__acrt_fenv_shift_bits@W4__acrt_fenv_abstract_status@@@@YA?AW4__acrt_fenv_abstract_status@@W40@0I@Z 0000000180060a30 f i libucrtd:_fenvutils.obj
 0001:0005fa30       ??$__acrt_fenv_shift_bits@W4__acrt_fenv_abstract_control@@@@YA?AW4__acrt_fenv_abstract_control@@W40@0I@Z 0000000180060a30 f i libucrtd:_fenvutils.obj
 0001:0005fa60       ??$__acrt_fenv_translate_bit@W4__acrt_fenv_abstract_control@@W4__acrt_fenv_machine_sse_control@@@@YA?AW4__acrt_fenv_abstract_control@@W4__acrt_fenv_machine_sse_control@@0W40@1@Z 0000000180060a60 f i libucrtd:_fenvutils.obj
 0001:0005fac0       ??$__acrt_fenv_translate_bit@W4__acrt_fenv_abstract_status@@W4__acrt_fenv_machine_sse_status@@@@YA?AW4__acrt_fenv_abstract_status@@W4__acrt_fenv_machine_sse_status@@0W40@1@Z 0000000180060ac0 f i libucrtd:_fenvutils.obj
 0001:0005fac0       ??$__acrt_fenv_translate_bit@W4__acrt_fenv_machine_sse_status@@W4__acrt_fenv_abstract_status@@@@YA?AW4__acrt_fenv_machine_sse_status@@W4__acrt_fenv_abstract_status@@0W40@1@Z 0000000180060ac0 f i libucrtd:_fenvutils.obj
 0001:0005fb10       ??$__acrt_fenv_translate_bit@W4__acrt_fenv_machine_sse_control@@W4__acrt_fenv_abstract_control@@@@YA?AW4__acrt_fenv_machine_sse_control@@W4__acrt_fenv_abstract_control@@0W40@1@Z 0000000180060b10 f i libucrtd:_fenvutils.obj
 0001:0005fb70       ??$__acrt_fenv_unshift_bits@W4__acrt_fenv_abstract_status@@@@YA?AW4__acrt_fenv_abstract_status@@W40@0I@Z 0000000180060b70 f i libucrtd:_fenvutils.obj
 0001:0005fb70       ??$__acrt_fenv_unshift_bits@W4__acrt_fenv_abstract_control@@@@YA?AW4__acrt_fenv_abstract_control@@W40@0I@Z 0000000180060b70 f i libucrtd:_fenvutils.obj
 0001:00060060       ??I@YA?AW4__acrt_fenv_machine_sse_control@@W40@0@Z 0000000180061060 f i libucrtd:_fenvutils.obj
 0001:00060080       ??U@YA?AW4__acrt_fenv_abstract_control@@W40@0@Z 0000000180061080 f i libucrtd:_fenvutils.obj
 0001:00060080       ??U@YA?AW4__acrt_fenv_abstract_status@@W40@0@Z 0000000180061080 f i libucrtd:_fenvutils.obj
 0001:000600a0       ??U@YA?AW4__acrt_fenv_machine_sse_control@@W40@0@Z 00000001800610a0 f i libucrtd:_fenvutils.obj
 0001:000600c0       ??_5@YAAEAW4__acrt_fenv_machine_sse_control@@AEAW40@W40@@Z 00000001800610c0 f i libucrtd:_fenvutils.obj
 0001:000600f0       ?__acrt_fenv_shift_abstract_sse_control@@YA?AW4__acrt_fenv_abstract_control@@W41@@Z 00000001800610f0 f i libucrtd:_fenvutils.obj
 0001:00060140       ?__acrt_fenv_shift_abstract_sse_status@@YA?AW4__acrt_fenv_abstract_status@@W41@@Z 0000000180061140 f i libucrtd:_fenvutils.obj
 0001:00060170       ?__acrt_fenv_unshift_abstract_sse_control@@YA?AW4__acrt_fenv_abstract_control@@W41@@Z 0000000180061170 f i libucrtd:_fenvutils.obj
 0001:000601c0       ?__acrt_fenv_unshift_abstract_sse_status@@YA?AW4__acrt_fenv_abstract_status@@W41@@Z 00000001800611c0 f i libucrtd:_fenvutils.obj
 0001:00060490       __acrt_fenv_get_common_round_control 0000000180061490 f   libucrtd:_fenvutils.obj
 0001:000604b0       __acrt_fenv_get_control    00000001800614b0 f   libucrtd:_fenvutils.obj
 0001:000604e0       __acrt_fenv_get_fp_status_word_from_exception_mask 00000001800614e0 f   libucrtd:_fenvutils.obj
 0001:00060510       __acrt_fenv_get_status     0000000180061510 f   libucrtd:_fenvutils.obj
 0001:00060540       __acrt_fenv_set_control    0000000180061540 f   libucrtd:_fenvutils.obj
 0001:00060560       __acrt_fenv_set_status     0000000180061560 f   libucrtd:_fenvutils.obj
 0001:00060580       _fdnorm                    0000000180061580 f   libucrtd:_norm.obj
 0001:00060850       ?__mbrtowc_utf8@__crt_mbstring@@YA_KPEA_WPEBD_KPEAU_Mbstatet@@@Z 0000000180061850 f   libucrtd:mbrtowc.obj
 0001:000608c0       ?__mbsrtowcs_utf8@__crt_mbstring@@YA_KPEA_WPEAPEBD_KPEAU_Mbstatet@@@Z 00000001800618c0 f   libucrtd:mbrtowc.obj
 0001:00060bc0       ?__c32rtomb_utf8@__crt_mbstring@@YA_KPEAD_UPEAU_Mbstatet@@@Z 0000000180061bc0 f   libucrtd:c32rtomb.obj
 0001:00060e40       ?reset_and_return@__crt_mbstring@@YA_K_KPEAU_Mbstatet@@@Z 0000000180061e40 f i libucrtd:c32rtomb.obj
 0001:00060e80       ?return_illegal_sequence@__crt_mbstring@@YA_KPEAU_Mbstatet@@@Z 0000000180061e80 f i libucrtd:c32rtomb.obj
 0001:00060ec0       c32rtomb                   0000000180061ec0 f   libucrtd:c32rtomb.obj
 0001:00061080       __acrt_fp_strflt_to_string 0000000180062080 f   libucrtd:_fptostr.obj
 0001:00061c00       ??8__crt_strtox@@YA_NAEBUbig_integer@0@0@Z 0000000180062c00 f i libucrtd:cfout.obj
 0001:00061c70       ??9__crt_strtox@@YA_NAEBUbig_integer@0@0@Z 0000000180062c70 f i libucrtd:cfout.obj
 0001:00061cb0       ?is_zero@__crt_strtox@@YA_NAEBUbig_integer@1@@Z 0000000180062cb0 f i libucrtd:cfout.obj
 0001:00061ce0       ?make_big_integer_power_of_two@__crt_strtox@@YA?AUbig_integer@1@I@Z 0000000180062ce0 f i libucrtd:cfout.obj
 0001:00061db0       __acrt_fltout              0000000180062db0 f   libucrtd:cfout.obj
 0001:00062160       _isatty                    0000000180063160 f   libucrtd:isatty.obj
 0001:00062270       __acrt_lowio_create_handle_array 0000000180063270 f   libucrtd:osfinfo.obj
 0001:00062430       __acrt_lowio_destroy_handle_array 0000000180063430 f   libucrtd:osfinfo.obj
 0001:000624b0       __acrt_lowio_ensure_fh_exists 00000001800634b0 f   libucrtd:osfinfo.obj
 0001:00062610       __acrt_lowio_lock_fh       0000000180063610 f   libucrtd:osfinfo.obj
 0001:00062650       __acrt_lowio_unlock_fh     0000000180063650 f   libucrtd:osfinfo.obj
 0001:00062690       _free_osfhnd               0000000180063690 f   libucrtd:osfinfo.obj
 0001:000627c0       _get_osfhandle             00000001800637c0 f   libucrtd:osfinfo.obj
 0001:000629d0       _get_fpsr                  00000001800639d0 f   libucrtd:fpsr.obj
 0001:000629e0       _set_fpsr                  00000001800639e0 f   libucrtd:fpsr.obj
 0001:000629ea       _fclrf                     00000001800639ea f   libucrtd:fpsr.obj
 0001:000629fe       _frnd                      00000001800639fe f   libucrtd:fpsr.obj
 0001:00062b60       __acrt_DownlevelLCIDToLocaleName 0000000180063b60 f   libucrtd:lcidtoname_downlevel.obj
 0001:00062c60       __acrt_DownlevelLocaleNameToLCID 0000000180063c60 f   libucrtd:lcidtoname_downlevel.obj
 0001:00062cc0       ?__wcsrtombs_utf8@__crt_mbstring@@YA_KPEADPEAPEB_W_KPEAU_Mbstatet@@@Z 0000000180063cc0 f   libucrtd:wcrtomb.obj
 0001:000635b0       strncpy_s                  00000001800645b0 f   libucrtd:strncpy_s.obj
 0001:000635e8       _putwch_nolock             00000001800645e8 f   libucrtd:putwch.obj
 0001:00063630       __acrt_GetStringTypeW      0000000180064630 f   libucrtd:getstringtypew.obj
 0001:00063670       _towlower_l                0000000180064670 f   libucrtd:towlower.obj
 0001:00063910       qsort                      0000000180064910 f   libucrtd:qsort.obj
 0001:00064150       strpbrk                    0000000180065150 f   libucrtd:strpbrk.obj
 0001:00064a40       _mbsdec                    0000000180065a40 f   libucrtd:mbsdec.obj
 0001:00064a48       _mbsdec_l                  0000000180065a48 f   libucrtd:mbsdec.obj
 0001:00064b70       __ascii_wcsnicmp           0000000180065b70 f   libucrtd:wcsnicmp.obj
 0001:00064c40       _wcsnicmp                  0000000180065c40 f   libucrtd:wcsnicmp.obj
 0001:00064df0       _wcsnicmp_l                0000000180065df0 f   libucrtd:wcsnicmp.obj
 0001:000650d0       fetestexcept               00000001800660d0 f   libucrtd:fetestexcept.obj
 0001:00065100       ?__mbrtoc32_utf8@__crt_mbstring@@YA_KPEA_UPEBD_KPEAU_Mbstatet@@@Z 0000000180066100 f   libucrtd:mbrtoc32.obj
 0001:000654c0       log10                      00000001800664c0 f   libucrtd:log10.obj
 0001:00065a70       ceil                       0000000180066a70 f   libucrtd:ceil.obj
 0001:00065c40       _controlfp_s               0000000180066c40 f   libucrtd:contrlfp.obj
 0001:00065d70       fegetenv                   0000000180066d70 f   libucrtd:fegetenv.obj
 0001:00065da0       fesetenv                   0000000180066da0 f   libucrtd:fesetenv.obj
 0001:00065e20       feholdexcept               0000000180066e20 f   libucrtd:feholdexcept.obj
 0001:00065e90       ?__c16rtomb_utf8@__crt_mbstring@@YA_KPEAD_SPEAU_Mbstatet@@@Z 0000000180066e90 f   libucrtd:c16rtomb.obj
 0001:000660a4       __dcrt_lowio_ensure_console_output_initialized 00000001800670a4 f   libucrtd:initcon.obj
 0001:000660f8       __dcrt_terminate_console_output 00000001800670f8 f   libucrtd:initcon.obj
 0001:00066114       __dcrt_write_console       0000000180067114 f   libucrtd:initcon.obj
 0001:000661e0       __acrt_LCMapStringW        00000001800671e0 f   libucrtd:lcmapstringw.obj
 0001:000662a0       _log10_special             00000001800672a0 f   libucrtd:log_special.obj
 0001:00066600       _clearfp                   0000000180067600 f   libucrtd:ieee.obj
 0001:00066620       _control87                 0000000180067620 f   libucrtd:ieee.obj
 0001:000668b0       _FindPESection             00000001800678b0 f   LIBCMTD:pesect.obj
 0001:00066960       _IsNonwritableInCurrentImage 0000000180067960 f   LIBCMTD:pesect.obj
 0001:000669f0       _ValidateImageBase         00000001800679f0 f   LIBCMTD:pesect.obj
 0001:00066a70       __GSHandlerCheck_SEH       0000000180067a70 f   LIBCMTD:gshandlerseh.obj
 0001:00066b40       _alloca_probe              0000000180067b40 f   LIBCMTD:chkstk.obj
 0001:00066b40       __chkstk                   0000000180067b40 f   LIBCMTD:chkstk.obj
 0001:00066b90       __GSHandlerCheck_EH        0000000180067b90 f   LIBCMTD:gshandlereh.obj
 0001:00066c40       _local_unwind              0000000180067c40 f   libvcruntimed:jmpuwind.obj
 0001:00066c70       strrchr                    0000000180067c70 f   libvcruntimed:strrchr.obj
 0001:00067090       wcschr                     0000000180068090 f   libvcruntimed:wcschr.obj
 0001:00067200       _guard_dispatch_icall_nop  0000000180068200 f   LIBCMTD:guard_dispatch.obj
 0001:00067220       _guard_xfg_dispatch_icall_nop 0000000180068220 f   LIBCMTD:guard_xfg_dispatch.obj
 0002:00000000       __imp_FreeLibrary          000000018006a000     kernel32:KERNEL32.dll
 0002:00000008       __imp_CreateFileW          000000018006a008     kernel32:KERNEL32.dll
 0002:00000010       __imp_SetStdHandle         000000018006a010     kernel32:KERNEL32.dll
 0002:00000018       __imp_FreeEnvironmentStringsW 000000018006a018     kernel32:KERNEL32.dll
 0002:00000020       __imp_GetEnvironmentStringsW 000000018006a020     kernel32:KERNEL32.dll
 0002:00000028       __imp_GetCommandLineW      000000018006a028     kernel32:KERNEL32.dll
 0002:00000030       __imp_EnterCriticalSection 000000018006a030     kernel32:KERNEL32.dll
 0002:00000038       __imp_LeaveCriticalSection 000000018006a038     kernel32:KERNEL32.dll
 0002:00000040       __imp_InitializeCriticalSectionEx 000000018006a040     kernel32:KERNEL32.dll
 0002:00000048       __imp_DeleteCriticalSection 000000018006a048     kernel32:KERNEL32.dll
 0002:00000050       __imp_EncodePointer        000000018006a050     kernel32:KERNEL32.dll
 0002:00000058       __imp_DecodePointer        000000018006a058     kernel32:KERNEL32.dll
 0002:00000060       __imp_MultiByteToWideChar  000000018006a060     kernel32:KERNEL32.dll
 0002:00000068       __imp_WideCharToMultiByte  000000018006a068     kernel32:KERNEL32.dll
 0002:00000070       __imp_LCMapStringEx        000000018006a070     kernel32:KERNEL32.dll
 0002:00000078       __imp_GetStringTypeW       000000018006a078     kernel32:KERNEL32.dll
 0002:00000080       __imp_GetCPInfo            000000018006a080     kernel32:KERNEL32.dll
 0002:00000088       __imp_RtlCaptureContext    000000018006a088     kernel32:KERNEL32.dll
 0002:00000090       __imp_RtlLookupFunctionEntry 000000018006a090     kernel32:KERNEL32.dll
 0002:00000098       __imp_RtlVirtualUnwind     000000018006a098     kernel32:KERNEL32.dll
 0002:000000a0       __imp_UnhandledExceptionFilter 000000018006a0a0     kernel32:KERNEL32.dll
 0002:000000a8       __imp_SetUnhandledExceptionFilter 000000018006a0a8     kernel32:KERNEL32.dll
 0002:000000b0       __imp_GetCurrentProcess    000000018006a0b0     kernel32:KERNEL32.dll
 0002:000000b8       __imp_TerminateProcess     000000018006a0b8     kernel32:KERNEL32.dll
 0002:000000c0       __imp_IsProcessorFeaturePresent 000000018006a0c0     kernel32:KERNEL32.dll
 0002:000000c8       __imp_QueryPerformanceCounter 000000018006a0c8     kernel32:KERNEL32.dll
 0002:000000d0       __imp_GetCurrentProcessId  000000018006a0d0     kernel32:KERNEL32.dll
 0002:000000d8       __imp_GetCurrentThreadId   000000018006a0d8     kernel32:KERNEL32.dll
 0002:000000e0       __imp_GetSystemTimeAsFileTime 000000018006a0e0     kernel32:KERNEL32.dll
 0002:000000e8       __imp_InitializeSListHead  000000018006a0e8     kernel32:KERNEL32.dll
 0002:000000f0       __imp_IsDebuggerPresent    000000018006a0f0     kernel32:KERNEL32.dll
 0002:000000f8       __imp_GetStartupInfoW      000000018006a0f8     kernel32:KERNEL32.dll
 0002:00000100       __imp_GetModuleHandleW     000000018006a100     kernel32:KERNEL32.dll
 0002:00000108       __imp_GetCommandLineA      000000018006a108     kernel32:KERNEL32.dll
 0002:00000110       __imp_RtlPcToFileHeader    000000018006a110     kernel32:KERNEL32.dll
 0002:00000118       __imp_RaiseException       000000018006a118     kernel32:KERNEL32.dll
 0002:00000120       __imp_RtlUnwindEx          000000018006a120     kernel32:KERNEL32.dll
 0002:00000128       __imp_InterlockedFlushSList 000000018006a128     kernel32:KERNEL32.dll
 0002:00000130       __imp_GetLastError         000000018006a130     kernel32:KERNEL32.dll
 0002:00000138       __imp_SetLastError         000000018006a138     kernel32:KERNEL32.dll
 0002:00000140       __imp_InitializeCriticalSectionAndSpinCount 000000018006a140     kernel32:KERNEL32.dll
 0002:00000148       __imp_TlsAlloc             000000018006a148     kernel32:KERNEL32.dll
 0002:00000150       __imp_TlsGetValue          000000018006a150     kernel32:KERNEL32.dll
 0002:00000158       __imp_TlsSetValue          000000018006a158     kernel32:KERNEL32.dll
 0002:00000160       __imp_TlsFree              000000018006a160     kernel32:KERNEL32.dll
 0002:00000168       __imp_RtlUnwind            000000018006a168     kernel32:KERNEL32.dll
 0002:00000170       __imp_GetProcAddress       000000018006a170     kernel32:KERNEL32.dll
 0002:00000178       __imp_LoadLibraryExW       000000018006a178     kernel32:KERNEL32.dll
 0002:00000180       __imp_HeapAlloc            000000018006a180     kernel32:KERNEL32.dll
 0002:00000188       __imp_HeapSize             000000018006a188     kernel32:KERNEL32.dll
 0002:00000190       __imp_HeapValidate         000000018006a190     kernel32:KERNEL32.dll
 0002:00000198       __imp_GetSystemInfo        000000018006a198     kernel32:KERNEL32.dll
 0002:000001a0       __imp_GetModuleFileNameW   000000018006a1a0     kernel32:KERNEL32.dll
 0002:000001a8       __imp_GetModuleHandleExW   000000018006a1a8     kernel32:KERNEL32.dll
 0002:000001b0       __imp_GetStdHandle         000000018006a1b0     kernel32:KERNEL32.dll
 0002:000001b8       __imp_GetFileType          000000018006a1b8     kernel32:KERNEL32.dll
 0002:000001c0       __imp_WriteConsoleW        000000018006a1c0     kernel32:KERNEL32.dll
 0002:000001c8       __imp_ExitProcess          000000018006a1c8     kernel32:KERNEL32.dll
 0002:000001d0       __imp_HeapFree             000000018006a1d0     kernel32:KERNEL32.dll
 0002:000001d8       __imp_HeapReAlloc          000000018006a1d8     kernel32:KERNEL32.dll
 0002:000001e0       __imp_HeapQueryInformation 000000018006a1e0     kernel32:KERNEL32.dll
 0002:000001e8       __imp_GetProcessHeap       000000018006a1e8     kernel32:KERNEL32.dll
 0002:000001f0       __imp_WriteFile            000000018006a1f0     kernel32:KERNEL32.dll
 0002:000001f8       __imp_OutputDebugStringW   000000018006a1f8     kernel32:KERNEL32.dll
 0002:00000200       __imp_LCMapStringW         000000018006a200     kernel32:KERNEL32.dll
 0002:00000208       __imp_GetLocaleInfoW       000000018006a208     kernel32:KERNEL32.dll
 0002:00000210       __imp_IsValidLocale        000000018006a210     kernel32:KERNEL32.dll
 0002:00000218       __imp_GetUserDefaultLCID   000000018006a218     kernel32:KERNEL32.dll
 0002:00000220       __imp_EnumSystemLocalesW   000000018006a220     kernel32:KERNEL32.dll
 0002:00000228       __imp_CloseHandle          000000018006a228     kernel32:KERNEL32.dll
 0002:00000230       __imp_FlushFileBuffers     000000018006a230     kernel32:KERNEL32.dll
 0002:00000238       __imp_GetConsoleOutputCP   000000018006a238     kernel32:KERNEL32.dll
 0002:00000240       __imp_GetConsoleMode       000000018006a240     kernel32:KERNEL32.dll
 0002:00000248       __imp_ReadFile             000000018006a248     kernel32:KERNEL32.dll
 0002:00000250       __imp_GetFileSizeEx        000000018006a250     kernel32:KERNEL32.dll
 0002:00000258       __imp_SetFilePointerEx     000000018006a258     kernel32:KERNEL32.dll
 0002:00000260       __imp_ReadConsoleW         000000018006a260     kernel32:KERNEL32.dll
 0002:00000268       __imp_FindClose            000000018006a268     kernel32:KERNEL32.dll
 0002:00000270       __imp_FindFirstFileExW     000000018006a270     kernel32:KERNEL32.dll
 0002:00000278       __imp_FindNextFileW        000000018006a278     kernel32:KERNEL32.dll
 0002:00000280       __imp_IsValidCodePage      000000018006a280     kernel32:KERNEL32.dll
 0002:00000288       __imp_GetACP               000000018006a288     kernel32:KERNEL32.dll
 0002:00000290       __imp_GetOEMCP             000000018006a290     kernel32:KERNEL32.dll
 0002:00000298       \177KERNEL32_NULL_THUNK_DATA 000000018006a298     kernel32:KERNEL32.dll
 0002:000002a0       __imp_rlScalef             000000018006a2a0     raylib:raylib.dll
 0002:000002a8       __imp_rlRotatef            000000018006a2a8     raylib:raylib.dll
 0002:000002b0       __imp_rlTranslatef         000000018006a2b0     raylib:raylib.dll
 0002:000002b8       __imp_rlPopMatrix          000000018006a2b8     raylib:raylib.dll
 0002:000002c0       __imp_rlPushMatrix         000000018006a2c0     raylib:raylib.dll
 0002:000002c8       __imp_GetMouseWheelMove    000000018006a2c8     raylib:raylib.dll
 0002:000002d0       \177raylib_NULL_THUNK_DATA 000000018006a2d0     raylib:raylib.dll
 0002:000002d8       __guard_check_icall_fptr   000000018006a2d8     LIBCMTD:guard_support.obj
 0002:000002e0       __guard_xfg_check_icall_fptr 000000018006a2e0     LIBCMTD:guard_support.obj
 0002:000002e8       __guard_dispatch_icall_fptr 000000018006a2e8     LIBCMTD:guard_support.obj
 0002:000002f0       __guard_xfg_dispatch_icall_fptr 000000018006a2f0     LIBCMTD:guard_support.obj
 0002:000002f8       __guard_xfg_table_dispatch_icall_fptr 000000018006a2f8     LIBCMTD:guard_support.obj
 0002:00000300       __xc_a                     000000018006a300     LIBCMTD:initializers.obj
 0002:00000480       __xc_z                     000000018006a480     LIBCMTD:initializers.obj
 0002:00000488       __xi_a                     000000018006a488     LIBCMTD:initializers.obj
 0002:00000490       __acrt_stdio_initializer   000000018006a490     libucrtd:stdio_initializer.obj
 0002:00000498       __acrt_tran_fma3_initializer 000000018006a498     libucrtd:fma3_initializer.obj
 0002:000004a0       __acrt_timeset_initializer 000000018006a4a0     libucrtd:timeset_initializer.obj
 0002:000004a8       __acrt_multibyte_initializer 000000018006a4a8     libucrtd:multibyte_initializer.obj
 0002:000004b0       __xi_z                     000000018006a4b0     LIBCMTD:initializers.obj
 0002:000004b8       __xp_a                     000000018006a4b8     LIBCMTD:initializers.obj
 0002:000004c0       __acrt_locale_terminator   000000018006a4c0     libucrtd:locale_initializer.obj
 0002:000004c8       __dcrt_console_output_terminator 000000018006a4c8     libucrtd:console_output_initializer.obj
 0002:000004d0       __acrt_stdio_terminator    000000018006a4d0     libucrtd:stdio_initializer.obj
 0002:000004d8       __xp_z                     000000018006a4d8     LIBCMTD:initializers.obj
 0002:000004e0       __xt_a                     000000018006a4e0     LIBCMTD:initializers.obj
 0002:000004e8       __xt_z                     000000018006a4e8     LIBCMTD:initializers.obj
 0002:000004f8       ??_7exception@std@@6B@     000000018006a4f8     game_layer.obj
 0002:00000508       ??_C@_0BC@EOODALEL@Unknown?5exception@ 000000018006a508     game_layer.obj
 0002:00000528       ??_7bad_alloc@std@@6B@     000000018006a528     game_layer.obj
 0002:00000540       ??_7bad_array_new_length@std@@6B@ 000000018006a540     game_layer.obj
 0002:00000550       ??_C@_0BF@KINCDENJ@bad?5array?5new?5length@ 000000018006a550     game_layer.obj
 0002:00000568       ??_C@_0BB@FCMFBGOM@invalid?5argument@ 000000018006a568     game_layer.obj
 0002:0000057c       ??_C@_02DKCKIIND@?$CFs@    000000018006a57c     game_layer.obj
 0002:00000580       ??_C@_0GI@MNEMJBML@C?3?2Program?5Files?5?$CIx86?$CJ?2Microsof@ 000000018006a580     game_layer.obj
 0002:000005f0       ??_C@_1NA@MJBOBEJL@?$AAC?$AA?3?$AA?2?$AAP?$AAr?$AAo?$AAg?$AAr?$AAa?$AAm?$AA?5?$AAF?$AAi?$AAl?$AAe@ 000000018006a5f0     game_layer.obj
 0002:000006c0       ??_C@_1EK@NIFDJFDG@?$AAs?$AAt?$AAd?$AA?3?$AA?3?$AA_?$AAA?$AAd?$AAj?$AAu?$AAs?$AAt?$AA_?$AAm?$AAa@ 000000018006a6c0     game_layer.obj
 0002:00000710       ??_C@_1CG@JNLFBNGN@?$AA?$CC?$AAi?$AAn?$AAv?$AAa?$AAl?$AAi?$AAd?$AA?5?$AAa?$AAr?$AAg?$AAu?$AAm?$AAe@ 000000018006a710     game_layer.obj
 0002:00000738       ??_C@_0BA@JFNIOLAK@string?5too?5long@ 000000018006a738     game_layer.obj
 0002:00000750       ??_7runtime_error@std@@6B@ 000000018006a750     game_layer.obj
 0002:00000768       ??_7_System_error@std@@6B@ 000000018006a768     game_layer.obj
 0002:00000778       ??_C@_02LMMGGCAJ@?3?5@     000000018006a778     game_layer.obj
 0002:00000788       ??_7system_error@std@@6B@  000000018006a788     game_layer.obj
 0002:00000798       ??_C@_00CNPNBAHC@@         000000018006a798     game_layer.obj
 0002:000007a8       ??_7_Iostream_error_category2@std@@6B@ 000000018006a7a8     game_layer.obj
 0002:000007d8       ??_C@_08LLGCOLLL@iostream@ 000000018006a7d8     game_layer.obj
 0002:000007e8       ?_Iostream_error@?4??message@_Iostream_error_category2@std@@UEBA?AV?$basic_string@DU?$char_traits@D@std@@V?$allocator@D@2@@3@H@Z@4QBDB 000000018006a7e8     game_layer.obj
 0002:00000808       ??_7bad_cast@std@@6B@      000000018006a808     game_layer.obj
 0002:00000818       ??_C@_08EPJLHIJG@bad?5cast@ 000000018006a818     game_layer.obj
 0002:00000830       ??_7_Facet_base@std@@6B@   000000018006a830     game_layer.obj
 0002:00000848       ??_C@_0BA@ELKIONDK@bad?5locale?5name@ 000000018006a848     game_layer.obj
 0002:00000860       ??_C@_0GI@GFIAKDGM@C?3?2Program?5Files?5?$CIx86?$CJ?2Microsof@ 000000018006a860     game_layer.obj
 0002:000008d0       ??_7facet@locale@std@@6B@  000000018006a8d0     game_layer.obj
 0002:000008f0       ??_7ctype_base@std@@6B@    000000018006a8f0     game_layer.obj
 0002:00000910       ??_7?$ctype@D@std@@6B@     000000018006a910     game_layer.obj
 0002:00000970       ??_7failure@ios_base@std@@6B@ 000000018006a970     game_layer.obj
 0002:00000980       ??_C@_0BF@PHHKMMFD@ios_base?3?3badbit?5set@ 000000018006a980     game_layer.obj
 0002:00000998       ??_C@_0BG@FMKFHCIL@ios_base?3?3failbit?5set@ 000000018006a998     game_layer.obj
 0002:000009b0       ??_C@_0BF@OOHOMBOF@ios_base?3?3eofbit?5set@ 000000018006a9b0     game_layer.obj
 0002:000009c8       ??_C@_02NJPGOMH@?$CFf@     000000018006a9c8     game_layer.obj
 0002:000009cc       ??_C@_01CLKCMJKC@?5@       000000018006a9cc     game_layer.obj
 0002:000009d0       ??_C@_0CE@GNKCIPLP@?$CIArena?9?$DOUsed?5?$CL?5Size?$CJ?5?$DM?$DN?5Arena?9?$DO@ 000000018006a9d0     game_layer.obj
 0002:00000a00       ??_C@_1HK@IPLGDBHI@?$AAC?$AA?3?$AA?2?$AAU?$AAs?$AAe?$AAr?$AAs?$AA?2?$AAG?$AAi?$AAl?$AAq?$AAa?$AAm@ 000000018006aa00     game_layer.obj
 0002:00000a80       ??_C@_1EI@LPOGOBOD@?$AA?$CI?$AAA?$AAr?$AAe?$AAn?$AAa?$AA?9?$AA?$DO?$AAU?$AAs?$AAe?$AAd?$AA?5?$AA?$CL?$AA?5@ 000000018006aa80     game_layer.obj
 0002:00000ad0       ??_C@_0ED@CLPEDADB@?$CIGameState?9?$DOTransientArena?$CJ?4Use@ 000000018006aad0     game_layer.obj
 0002:00000b20       ??_C@_1IE@BOLAKLOB@?$AAC?$AA?3?$AA?2?$AAU?$AAs?$AAe?$AAr?$AAs?$AA?2?$AAG?$AAi?$AAl?$AAq?$AAa?$AAm@ 000000018006ab20     game_layer.obj
 0002:00000bb0       ??_C@_1IG@PNOKDEKO@?$AA?$CI?$AAG?$AAa?$AAm?$AAe?$AAS?$AAt?$AAa?$AAt?$AAe?$AA?9?$AA?$DO?$AAT?$AAr?$AAa@ 000000018006abb0     game_layer.obj
 0002:00000c40       ??_C@_0FC@NHPGPLD@?$CIGameState?9?$DOTables?4Meshes?$CJ?4Curr@ 000000018006ac40     game_layer.obj
 0002:00000ca0       ??_C@_1KE@BEKJFIPH@?$AA?$CI?$AAG?$AAa?$AAm?$AAe?$AAS?$AAt?$AAa?$AAt?$AAe?$AA?9?$AA?$DO?$AAT?$AAa?$AAb@ 000000018006aca0     game_layer.obj
 0002:00000d48       ??_C@_0DM@ICCPKHFA@Text?9?$DOMeshForeignKey?5?$DM?5GameStat@ 000000018006ad48     game_layer.obj
 0002:00000d90       ??_C@_1HI@PPCNPBMK@?$AAT?$AAe?$AAx?$AAt?$AA?9?$AA?$DO?$AAM?$AAe?$AAs?$AAh?$AAF?$AAo?$AAr?$AAe?$AAi@ 000000018006ad90     game_layer.obj
 0002:00000e10       ??_C@_0EL@IIGIMNNA@GameState?9?$DOTables?4Events_AddMes@ 000000018006ae10     game_layer.obj
 0002:00000e60       ??_C@_1JG@FMNLCDJD@?$AAG?$AAa?$AAm?$AAe?$AAS?$AAt?$AAa?$AAt?$AAe?$AA?9?$AA?$DO?$AAT?$AAa?$AAb?$AAl@ 000000018006ae60     game_layer.obj
 0002:00000ef8       ??_C@_0BC@PHOOMHBP@Grid?5dimensions?3?5@ 000000018006aef8     game_layer.obj
 0002:00000f10       ??_C@_0BI@FGFFJGFH@Hash?5Table?5Dimensions?3?5@ 000000018006af10     game_layer.obj
 0002:00000f28       ??_C@_0BI@NKAPOFED@Hash?5Table?5Fill?5Ratio?3?5@ 000000018006af28     game_layer.obj
 0002:00000f40       ??_C@_0BJ@ONCNCABO@Number?5of?5filled?5grids?3?5@ 000000018006af40     game_layer.obj
 0002:00000f60       ??_C@_0GB@GHHINDAP@?$CIGameState?9?$DOTransientArena?$CJ?4Use@ 000000018006af60     game_layer.obj
 0002:00000fd0       ??_C@_1MC@BPOANFCO@?$AA?$CI?$AAG?$AAa?$AAm?$AAe?$AAS?$AAt?$AAa?$AAt?$AAe?$AA?9?$AA?$DO?$AAT?$AAr?$AAa@ 000000018006afd0     game_layer.obj
 0002:00001094       ??_C@_05JGAAGCCE@GameA@    000000018006b094     game_layer.obj
 0002:000010a0       ??_C@_0BC@OGKABCPE@?4?4?1fonts?1mono?4ttf@ 000000018006b0a0     game_layer.obj
 0002:000010c0       ??_C@_1HK@NCNMCNCO@?$AAC?$AA?3?$AA?2?$AAU?$AAs?$AAe?$AAr?$AAs?$AA?2?$AAG?$AAi?$AAl?$AAq?$AAa?$AAm@ 000000018006b0c0     game_layer.obj
 0002:00001140       ??_C@_0BE@POMKLMOL@Clock?5cycles?5total?3@ 000000018006b140     game_layer.obj
 0002:00001158       ??_C@_0N@KGOLLKJO@?$CF?930s?5?$CF4?43fM@ 000000018006b158     game_layer.obj
 0002:00001168       ??_C@_0BE@KIAKHHHC@Clock?5cycle?5budget?3@ 000000018006b168     game_layer.obj
 0002:00001180       ??_C@_0M@FCAIINK@Time?5taken?3@ 000000018006b180     game_layer.obj
 0002:00001190       ??_C@_0O@CLEODJCM@?$CF?930s?5?$CF4?43fms@ 000000018006b190     game_layer.obj
 0002:000011a0       ??_C@_08LGJNEMKJ@Fps?5raw?3@ 000000018006b1a0     game_layer.obj
 0002:000011b0       ??_C@_0M@FPIAMEII@?$CF?930s?5?$CF4?43f@ 000000018006b1b0     game_layer.obj
 0002:000011c0       ??_C@_0M@GIIMBPHI@Fps?5cooked?3@ 000000018006b1c0     game_layer.obj
 0002:000011d0       ??_C@_0BI@KHAOMLGH@Permanent?5storage?5size?3@ 000000018006b1d0     game_layer.obj
 0002:000011e8       ??_C@_0O@OJJOECCM@?$CF?930s?5?$CF4?43fkB@ 000000018006b1e8     game_layer.obj
 0002:000011f8       ??_C@_0BA@KEJMIMFB@GameState?5size?3@ 000000018006b1f8     game_layer.obj
 0002:00001208       ??_C@_0BC@KPIHKEKH@Total?5table?5size?3@ 000000018006b208     game_layer.obj
 0002:00001220       ??_C@_0BI@DCGEHINK@Transient?5storage?5size?3@ 000000018006b220     game_layer.obj
 0002:00001238       ??_C@_0O@NFFOHIHO@?$CF?930s?5?$CF4?43fMB@ 000000018006b238     game_layer.obj
 0002:00001248       ??_C@_0BI@MHNFDJBK@Transient?5storage?5used?3@ 000000018006b248     game_layer.obj
 0002:00001260       ??_C@_0BO@CPBBHFLK@Transient?5storage?5last?5frame?3@ 000000018006b260     game_layer.obj
 0002:00001280       ??_C@_0O@PCOMCHB@Total?5meshes?3@ 000000018006b280     game_layer.obj
 0002:00001290       ??_C@_08FMJMNPMB@?$CF?930s?5?$CFu@ 000000018006b290     game_layer.obj
 0002:000012a0       ??_C@_0BG@HLENNPAG@Mesh?5events?5in?5queue?3@ 000000018006b2a0     game_layer.obj
 0002:000012b8       ??_C@_0BF@GKPLIBBF@Mesh?5sort?5procedure?3@ 000000018006b2b8     game_layer.obj
 0002:000012d0       ??_C@_0BJ@MHJJJEAK@Mesh?5dispatch?5procedure?3@ 000000018006b2d0     game_layer.obj
 0002:000012f0       ??_C@_0BI@DGNCPLBG@Mesh?5vs?5Mesh?5procedure?3@ 000000018006b2f0     game_layer.obj
 0002:00001308       ??_C@_0O@LGEEDBBB@Poly?5vs?5poly?3@ 000000018006b308     game_layer.obj
 0002:00001318       ??_C@_0CA@IKKDBFBB@?$CF?915s?5?$CF4?43fM?5hits?3?5?$CFu?5c?1h?3?5?$CFllu@ 000000018006b318     game_layer.obj
 0002:00001338       ??_C@_0BC@PAPLODD@Mesh?5click?5check?3@ 000000018006b338     game_layer.obj
 0002:00001350       ??_C@_0L@JEBEEEOB@Reserved6?3@ 000000018006b350     game_layer.obj
 0002:00001360       ??_C@_0L@JFNGCONG@Reserved7?3@ 000000018006b360     game_layer.obj
 0002:00001370       ??_C@_0L@JOIKGJOL@Reserved8?3@ 000000018006b370     game_layer.obj
 0002:00001380       ??_C@_0BM@OMNFNKMD@Press?5S?5to?5toggle?5mesh?5sort@ 000000018006b380     game_layer.obj
 0002:0000139c       ??_C@_05OCOKLJIG@?$CF?930s@ 000000018006b39c     game_layer.obj
 0002:000013a4       ??_C@_02BFICIOJL@ON@       000000018006b3a4     game_layer.obj
 0002:000013a8       ??_C@_03MPPIHBHJ@OFF@      000000018006b3a8     game_layer.obj
 0002:000013b0       ??_C@_0GI@DEIBJNCC@C?3?2Program?5Files?5?$CIx86?$CJ?2Microsof@ 000000018006b3b0     game_layer.obj
 0002:00001420       ??_C@_1NA@CHJCONEK@?$AAC?$AA?3?$AA?2?$AAP?$AAr?$AAo?$AAg?$AAr?$AAa?$AAm?$AA?5?$AAF?$AAi?$AAl?$AAe@ 000000018006b420     game_layer.obj
 0002:000014f0       ??_C@_0BI@CFPLBAOH@invalid?5string?5position@ 000000018006b4f0     game_layer.obj
 0002:00001508       ??_C@_0CK@NKBPBFBE@Table?9?$DOCurrentSize?5?$DM?5Table?9?$DOAll@ 000000018006b508     game_layer.obj
 0002:00001540       ??_C@_1HA@KIOMNPEN@?$AAC?$AA?3?$AA?2?$AAU?$AAs?$AAe?$AAr?$AAs?$AA?2?$AAG?$AAi?$AAl?$AAq?$AAa?$AAm@ 000000018006b540     game_layer.obj
 0002:000015b0       ??_C@_1FE@FPOHOLA@?$AAT?$AAa?$AAb?$AAl?$AAe?$AA?9?$AA?$DO?$AAC?$AAu?$AAr?$AAr?$AAe?$AAn?$AAt?$AAS@ 000000018006b5b0     game_layer.obj
 0002:00001608       ??_C@_0BD@BKGPJFBC@Table?9?$DOCurrentSize@ 000000018006b608     game_layer.obj
 0002:00001620       ??_C@_1CG@IMDACLDE@?$AAT?$AAa?$AAb?$AAl?$AAe?$AA?9?$AA?$DO?$AAC?$AAu?$AAr?$AAr?$AAe?$AAn?$AAt?$AAS@ 000000018006b620     game_layer.obj
 0002:00001650       ??_C@_0PC@KBJGOMJG@You?5cannot?5concatenate?5the?5same@ 000000018006b650     game_layer.obj
 0002:00001748       ??_C@_1CA@DFIMIFBJ@?$AAs?$AAt?$AAd?$AA?3?$AA?3?$AAo?$AAp?$AAe?$AAr?$AAa?$AAt?$AAo?$AAr?$AA?5?$AA?$CL@ 000000018006b748     game_layer.obj
 0002:00001770       ??_C@_1BPK@IDOEFEOL@?$AA?$CC?$AAY?$AAo?$AAu?$AA?5?$AAc?$AAa?$AAn?$AAn?$AAo?$AAt?$AA?5?$AAc?$AAo?$AAn@ 000000018006b770     game_layer.obj
 0002:00001970       ??_C@_0BJ@HAJGEHKO@transposed?5pointer?5range@ 000000018006b970     game_layer.obj
 0002:00001990       ??_C@_0GJ@MPIAFDPJ@C?3?2Program?5Files?5?$CIx86?$CJ?2Microsof@ 000000018006b990     game_layer.obj
 0002:00001a00       ??_C@_1NC@IFKPGDLA@?$AAC?$AA?3?$AA?2?$AAP?$AAr?$AAo?$AAg?$AAr?$AAa?$AAm?$AA?5?$AAF?$AAi?$AAl?$AAe@ 000000018006ba00     game_layer.obj
 0002:00001ad8       ??_C@_1CG@LJCPDKEJ@?$AAs?$AAt?$AAd?$AA?3?$AA?3?$AA_?$AAV?$AAe?$AAr?$AAi?$AAf?$AAy?$AA_?$AAr?$AAa@ 000000018006bad8     game_layer.obj
 0002:00001b00       ??_C@_1DG@FJIKMGFD@?$AA?$CC?$AAt?$AAr?$AAa?$AAn?$AAs?$AAp?$AAo?$AAs?$AAe?$AAd?$AA?5?$AAp?$AAo?$AAi@ 000000018006bb00     game_layer.obj
 0002:00001b40       ??_C@_1EO@GFNCMDLA@?$AAs?$AAt?$AAd?$AA?3?$AA?3?$AA_?$AAA?$AAl?$AAl?$AAo?$AAc?$AAa?$AAt?$AAe?$AA_@ 000000018006bb40     game_layer.obj
 0002:00001b90       __real@3a83126f            000000018006bb90     game_layer.obj
 0002:00001b94       __real@3ba3d70a            000000018006bb94     game_layer.obj
 0002:00001b98       __real@3c23d70a            000000018006bb98     game_layer.obj
 0002:00001b9c       __real@3e000000            000000018006bb9c     game_layer.obj
 0002:00001ba0       __real@3f000000            000000018006bba0     game_layer.obj
 0002:00001ba4       __real@3f733333            000000018006bba4     game_layer.obj
 0002:00001ba8       __real@3f800000            000000018006bba8     game_layer.obj
 0002:00001bac       __real@3f8147ae            000000018006bbac     game_layer.obj
 0002:00001bb0       __real@3fedf3b640000000    000000018006bbb0     game_layer.obj
 0002:00001bb8       __real@3ff0000000000000    000000018006bbb8     game_layer.obj
 0002:00001bc0       __real@40490fdb            000000018006bbc0     game_layer.obj
 0002:00001bc4       __real@40f00000            000000018006bbc4     game_layer.obj
 0002:00001bc8       __real@41700000            000000018006bbc8     game_layer.obj
 0002:00001bcc       __real@41900000            000000018006bbcc     game_layer.obj
 0002:00001bd0       __real@41c00000            000000018006bbd0     game_layer.obj
 0002:00001bd4       __real@42100000            000000018006bbd4     game_layer.obj
 0002:00001bd8       __real@42480000            000000018006bbd8     game_layer.obj
 0002:00001bdc       __real@42580000            000000018006bbdc     game_layer.obj
 0002:00001be0       __real@42700000            000000018006bbe0     game_layer.obj
 0002:00001be4       __real@42900000            000000018006bbe4     game_layer.obj
 0002:00001be8       __real@42b40000            000000018006bbe8     game_layer.obj
 0002:00001bec       __real@42c80000            000000018006bbec     game_layer.obj
 0002:00001bf0       __real@42d80000            000000018006bbf0     game_layer.obj
 0002:00001bf4       __real@42fc0000            000000018006bbf4     game_layer.obj
 0002:00001bf8       __real@43100000            000000018006bbf8     game_layer.obj
 0002:00001bfc       __real@43220000            000000018006bbfc     game_layer.obj
 0002:00001c00       __real@43340000            000000018006bc00     game_layer.obj
 0002:00001c04       __real@43460000            000000018006bc04     game_layer.obj
 0002:00001c08       __real@43580000            000000018006bc08     game_layer.obj
 0002:00001c0c       __real@436a0000            000000018006bc0c     game_layer.obj
 0002:00001c10       __real@437c0000            000000018006bc10     game_layer.obj
 0002:00001c14       __real@43870000            000000018006bc14     game_layer.obj
 0002:00001c18       __real@43900000            000000018006bc18     game_layer.obj
 0002:00001c1c       __real@43990000            000000018006bc1c     game_layer.obj
 0002:00001c20       __real@43a20000            000000018006bc20     game_layer.obj
 0002:00001c24       __real@43ab0000            000000018006bc24     game_layer.obj
 0002:00001c28       __real@43b40000            000000018006bc28     game_layer.obj
 0002:00001c2c       __real@43cf0000            000000018006bc2c     game_layer.obj
 0002:00001c30       __real@43e10000            000000018006bc30     game_layer.obj
 0002:00001c34       __real@43fa0000            000000018006bc34     game_layer.obj
 0002:00001c38       __real@44160000            000000018006bc38     game_layer.obj
 0002:00001c3c       __real@447a0000            000000018006bc3c     game_layer.obj
 0002:00001c40       __real@44898000            000000018006bc40     game_layer.obj
 0002:00001c44       __real@4503e000            000000018006bc44     game_layer.obj
 0002:00001c48       __real@49742400            000000018006bc48     game_layer.obj
 0002:00001c4c       __real@4f800000            000000018006bc4c     game_layer.obj
 0002:00001c50       __real@7f800000            000000018006bc50     game_layer.obj
 0002:00001c54       __real@bf800000            000000018006bc54     game_layer.obj
 0002:00001c58       __real@c0c90fdb            000000018006bc58     game_layer.obj
 0002:00001c60       __xmm@7fffffff7fffffff7fffffff7fffffff 000000018006bc60     game_layer.obj
 0002:00001c70       __xmm@80000000800000008000000080000000 000000018006bc70     game_layer.obj
 0002:00001c80       ??_C@_0P@GHFPNOJB@bad?5allocation@ 000000018006bc80     libcpmtd:xthrow.obj
 0002:00001c98       ??_7logic_error@std@@6B@   000000018006bc98     libcpmtd:xthrow.obj
 0002:00001cb0       ??_7length_error@std@@6B@  000000018006bcb0     libcpmtd:xthrow.obj
 0002:00001cc8       ??_7out_of_range@std@@6B@  000000018006bcc8     libcpmtd:xthrow.obj
 0002:00002440       ??_C@_0BN@LKKBCCDB@address?5family?5not?5supported@ 000000018006c440     libcpmtd:syserror.obj
 0002:00002460       ??_C@_0P@LDMLAFHI@address?5in?5use@ 000000018006c460     libcpmtd:syserror.obj
 0002:00002470       ??_C@_0BG@DHPCNBJB@address?5not?5available@ 000000018006c470     libcpmtd:syserror.obj
 0002:00002488       ??_C@_0BC@DFIBIBIL@already?5connected@ 000000018006c488     libcpmtd:syserror.obj
 0002:000024a0       ??_C@_0BH@CAKOHOMI@argument?5list?5too?5long@ 000000018006c4a0     libcpmtd:syserror.obj
 0002:000024b8       ??_C@_0BH@CGIMPKIM@argument?5out?5of?5domain@ 000000018006c4b8     libcpmtd:syserror.obj
 0002:000024d0       ??_C@_0M@KGHGGJGL@bad?5address@ 000000018006c4d0     libcpmtd:syserror.obj
 0002:000024e0       ??_C@_0BE@MPJPGCEO@bad?5file?5descriptor@ 000000018006c4e0     libcpmtd:syserror.obj
 0002:000024f8       ??_C@_0M@PMMIEFCP@bad?5message@ 000000018006c4f8     libcpmtd:syserror.obj
 0002:00002508       ??_C@_0M@KPHOFDBE@broken?5pipe@ 000000018006c508     libcpmtd:syserror.obj
 0002:00002518       ??_C@_0BD@MGNDDEGM@connection?5aborted@ 000000018006c518     libcpmtd:syserror.obj
 0002:00002530       ??_C@_0BP@KAIHPOGN@connection?5already?5in?5progress@ 000000018006c530     libcpmtd:syserror.obj
 0002:00002550       ??_C@_0BD@PJLIIJEL@connection?5refused@ 000000018006c550     libcpmtd:syserror.obj
 0002:00002568       ??_C@_0BB@IECNJNOI@connection?5reset@ 000000018006c568     libcpmtd:syserror.obj
 0002:00002580       ??_C@_0BC@PPHBOELF@cross?5device?5link@ 000000018006c580     libcpmtd:syserror.obj
 0002:00002598       ??_C@_0BN@KDMIFEIP@destination?5address?5required@ 000000018006c598     libcpmtd:syserror.obj
 0002:000025b8       ??_C@_0BI@NGCEHDD@device?5or?5resource?5busy@ 000000018006c5b8     libcpmtd:syserror.obj
 0002:000025d0       ??_C@_0BE@JIDOCPHM@directory?5not?5empty@ 000000018006c5d0     libcpmtd:syserror.obj
 0002:000025e8       ??_C@_0BI@BNCLIGPB@executable?5format?5error@ 000000018006c5e8     libcpmtd:syserror.obj
 0002:00002600       ??_C@_0M@MIDIAGJP@file?5exists@ 000000018006c600     libcpmtd:syserror.obj
 0002:00002610       ??_C@_0P@DNAJLBJK@file?5too?5large@ 000000018006c610     libcpmtd:syserror.obj
 0002:00002620       ??_C@_0BC@EJHOMAAK@filename?5too?5long@ 000000018006c620     libcpmtd:syserror.obj
 0002:00002638       ??_C@_0BH@KEFGLDAF@function?5not?5supported@ 000000018006c638     libcpmtd:syserror.obj
 0002:00002650       ??_C@_0BB@DHFDFGDM@host?5unreachable@ 000000018006c650     libcpmtd:syserror.obj
 0002:00002668       ??_C@_0BD@JPHBMONG@identifier?5removed@ 000000018006c668     libcpmtd:syserror.obj
 0002:00002680       ??_C@_0BG@CDNPAGJK@illegal?5byte?5sequence@ 000000018006c680     libcpmtd:syserror.obj
 0002:00002698       ??_C@_0CD@BNPLBMNA@inappropriate?5io?5control?5operat@ 000000018006c698     libcpmtd:syserror.obj
 0002:000026c0       ??_C@_0M@EGEKIIMP@interrupted@ 000000018006c6c0     libcpmtd:syserror.obj
 0002:000026d0       ??_C@_0N@OHAFKDEK@invalid?5seek@ 000000018006c6d0     libcpmtd:syserror.obj
 0002:000026e0       ??_C@_08GLNPIFBN@io?5error@ 000000018006c6e0     libcpmtd:syserror.obj
 0002:000026f0       ??_C@_0P@FLLDBIDK@is?5a?5directory@ 000000018006c6f0     libcpmtd:syserror.obj
 0002:00002700       ??_C@_0N@IFLPBIOP@message?5size@ 000000018006c700     libcpmtd:syserror.obj
 0002:00002710       ??_C@_0N@KIIEAAIO@network?5down@ 000000018006c710     libcpmtd:syserror.obj
 0002:00002720       ??_C@_0O@FNPDBHEE@network?5reset@ 000000018006c720     libcpmtd:syserror.obj
 0002:00002730       ??_C@_0BE@IFNCKGE@network?5unreachable@ 000000018006c730     libcpmtd:syserror.obj
 0002:00002748       ??_C@_0BA@PFFCAOFK@no?5buffer?5space@ 000000018006c748     libcpmtd:syserror.obj
 0002:00002758       ??_C@_0BB@IEPBLJHK@no?5child?5process@ 000000018006c758     libcpmtd:syserror.obj
 0002:00002770       ??_C@_07PLECNNKG@no?5link@ 000000018006c770     libcpmtd:syserror.obj
 0002:00002778       ??_C@_0BC@NJECKMKE@no?5lock?5available@ 000000018006c778     libcpmtd:syserror.obj
 0002:00002790       ??_C@_0BF@PBGGPKKE@no?5message?5available@ 000000018006c790     libcpmtd:syserror.obj
 0002:000027a8       ??_C@_0L@EDOLMPAK@no?5message@ 000000018006c7a8     libcpmtd:syserror.obj
 0002:000027b8       ??_C@_0BD@EAMBFIDF@no?5protocol?5option@ 000000018006c7b8     libcpmtd:syserror.obj
 0002:000027d0       ??_C@_0BD@IJDJKDEA@no?5space?5on?5device@ 000000018006c7d0     libcpmtd:syserror.obj
 0002:000027e8       ??_C@_0BE@MKFDAFMP@no?5stream?5resources@ 000000018006c7e8     libcpmtd:syserror.obj
 0002:00002800       ??_C@_0BK@IMCPHCBI@no?5such?5device?5or?5address@ 000000018006c800     libcpmtd:syserror.obj
 0002:00002820       ??_C@_0P@FDINDDOK@no?5such?5device@ 000000018006c820     libcpmtd:syserror.obj
 0002:00002830       ??_C@_0BK@NDOCBPGE@no?5such?5file?5or?5directory@ 000000018006c830     libcpmtd:syserror.obj
 0002:00002850       ??_C@_0BA@ENLPPKBN@no?5such?5process@ 000000018006c850     libcpmtd:syserror.obj
 0002:00002860       ??_C@_0BA@DOCPFFJG@not?5a?5directory@ 000000018006c860     libcpmtd:syserror.obj
 0002:00002870       ??_C@_0N@POEIPGGF@not?5a?5socket@ 000000018006c870     libcpmtd:syserror.obj
 0002:00002880       ??_C@_0N@LGAPMMPI@not?5a?5stream@ 000000018006c880     libcpmtd:syserror.obj
 0002:00002890       ??_C@_0O@GLMIBBEG@not?5connected@ 000000018006c890     libcpmtd:syserror.obj
 0002:000028a0       ??_C@_0BC@ENOOLCNF@not?5enough?5memory@ 000000018006c8a0     libcpmtd:syserror.obj
 0002:000028b8       ??_C@_0O@NHEDABJP@not?5supported@ 000000018006c8b8     libcpmtd:syserror.obj
 0002:000028c8       ??_C@_0BD@MOLBPMEA@operation?5canceled@ 000000018006c8c8     libcpmtd:syserror.obj
 0002:000028e0       ??_C@_0BG@KDKHOPCO@operation?5in?5progress@ 000000018006c8e0     libcpmtd:syserror.obj
 0002:000028f8       ??_C@_0BI@OHIEJAAB@operation?5not?5permitted@ 000000018006c8f8     libcpmtd:syserror.obj
 0002:00002910       ??_C@_0BI@LNEGIFLN@operation?5not?5supported@ 000000018006c910     libcpmtd:syserror.obj
 0002:00002928       ??_C@_0BG@OEMDKMEE@operation?5would?5block@ 000000018006c928     libcpmtd:syserror.obj
 0002:00002940       ??_C@_0L@BLPOFLNJ@owner?5dead@ 000000018006c940     libcpmtd:syserror.obj
 0002:00002950       ??_C@_0BC@CIJDGCDI@permission?5denied@ 000000018006c950     libcpmtd:syserror.obj
 0002:00002968       ??_C@_0P@FNPOCJBE@protocol?5error@ 000000018006c968     libcpmtd:syserror.obj
 0002:00002978       ??_C@_0BH@JPPPLHJB@protocol?5not?5supported@ 000000018006c978     libcpmtd:syserror.obj
 0002:00002990       ??_C@_0BG@EICBIHDP@read?5only?5file?5system@ 000000018006c990     libcpmtd:syserror.obj
 0002:000029a8       ??_C@_0BO@BJBOMOEJ@resource?5deadlock?5would?5occur@ 000000018006c9a8     libcpmtd:syserror.obj
 0002:000029c8       ??_C@_0BP@LKNGHENJ@resource?5unavailable?5try?5again@ 000000018006c9c8     libcpmtd:syserror.obj
 0002:000029e8       ??_C@_0BE@GOIPJJHG@result?5out?5of?5range@ 000000018006c9e8     libcpmtd:syserror.obj
 0002:00002a00       ??_C@_0BG@MPLKFPAE@state?5not?5recoverable@ 000000018006ca00     libcpmtd:syserror.obj
 0002:00002a18       ??_C@_0P@DIIFGFCG@stream?5timeout@ 000000018006ca18     libcpmtd:syserror.obj
 0002:00002a28       ??_C@_0P@IPFDMIFL@text?5file?5busy@ 000000018006ca28     libcpmtd:syserror.obj
 0002:00002a38       ??_C@_09KJPPMAOI@timed?5out@ 000000018006ca38     libcpmtd:syserror.obj
 0002:00002a48       ??_C@_0BO@HACHBEKI@too?5many?5files?5open?5in?5system@ 000000018006ca48     libcpmtd:syserror.obj
 0002:00002a68       ??_C@_0BE@GHAFMPAH@too?5many?5files?5open@ 000000018006ca68     libcpmtd:syserror.obj
 0002:00002a80       ??_C@_0P@HCOMKFCC@too?5many?5links@ 000000018006ca80     libcpmtd:syserror.obj
 0002:00002a90       ??_C@_0BO@EFGOJEF@too?5many?5symbolic?5link?5levels@ 000000018006ca90     libcpmtd:syserror.obj
 0002:00002ab0       ??_C@_0BA@KGKGOOJA@value?5too?5large@ 000000018006cab0     libcpmtd:syserror.obj
 0002:00002ac0       ??_C@_0BE@MIEJDDNH@wrong?5protocol?5type@ 000000018006cac0     libcpmtd:syserror.obj
 0002:00002ad8       ??_C@_0O@BFJCFAAK@unknown?5error@ 000000018006cad8     libcpmtd:syserror.obj
 0002:00002ae8       ??_C@_0DM@CBONNKBG@d?3?2a01?2_work?26?2s?2src?2vctools?2cr@ 000000018006cae8     libcpmtd:locale0.obj
 0002:00002b30       ??_7_Locimp@locale@std@@6B@ 000000018006cb30     libcpmtd:locale0.obj
 0002:00002b48       ??_C@_01NBENCBCI@?$CK@     000000018006cb48     libcpmtd:locale0.obj
 0002:00002b4c       ??_C@_01GFHCPBMG@C@        000000018006cb4c     libcpmtd:locale0.obj
 0002:00002b50       ??_C@_0DJ@HENMAIEA@d?3?2a01?2_work?26?2s?2src?2vctools?2cr@ 000000018006cb50     libcpmtd:locale0.obj
 0002:00002b90       ??_C@_0DN@MGKJAJP@d?3?2a01?2_work?26?2s?2src?2vctools?2cr@ 000000018006cb90     libcpmtd:_tolower.obj
 0002:00002bd0       ??_C@_0BM@EEBBMCOD@invalid?5random_device?5value@ 000000018006cbd0     libcpmtd:xrngdev.obj
 0002:00002bf8       ??_7codecvt_base@std@@6B@  000000018006cbf8     libcpmtd:cout.obj
 0002:00002c30       ??_7ios_base@std@@6B@      000000018006cc30     libcpmtd:cout.obj
 0002:00002c40       ??_7?$basic_streambuf@DU?$char_traits@D@std@@@std@@6B@ 000000018006cc40     libcpmtd:cout.obj
 0002:00002cc0       ??_7?$basic_filebuf@DU?$char_traits@D@std@@@std@@6B@ 000000018006ccc0     libcpmtd:cout.obj
 0002:00002d40       ??_7?$basic_ios@DU?$char_traits@D@std@@@std@@6B@ 000000018006cd40     libcpmtd:cout.obj
 0002:00002d50       ??_7?$basic_ostream@DU?$char_traits@D@std@@@std@@6B@ 000000018006cd50     libcpmtd:cout.obj
 0002:00002d58       ??_8?$basic_ostream@DU?$char_traits@D@std@@@std@@7B@ 000000018006cd58     libcpmtd:cout.obj
 0002:00002d68       ??_7?$codecvt@DDU_Mbstatet@@@std@@6B@ 000000018006cd68     libcpmtd:cout.obj
 0002:00002db8       ??_C@_0DI@MMLDHEG@d?3?2a01?2_work?26?2s?2src?2vctools?2cr@ 000000018006cdb8     libcpmtd:cout.obj
 0002:00002df0       ??_C@_1HA@DOLCPANI@?$AAd?$AA?3?$AA?2?$AAa?$AA0?$AA1?$AA?2?$AA_?$AAw?$AAo?$AAr?$AAk?$AA?2?$AA6?$AA?2@ 000000018006cdf0     libcpmtd:cout.obj
 0002:00002e60       ??_C@_0BP@PFIPNLNI@front?$CI?$CJ?5called?5on?5empty?5string@ 000000018006ce60     libcpmtd:cout.obj
 0002:00002e80       ??_C@_1LC@BJDDPGPA@?$AAs?$AAt?$AAd?$AA?3?$AA?3?$AAb?$AAa?$AAs?$AAi?$AAc?$AA_?$AAs?$AAt?$AAr?$AAi@ 000000018006ce80     libcpmtd:cout.obj
 0002:00002f40       ??_C@_1EC@DINNLDHA@?$AA?$CC?$AAf?$AAr?$AAo?$AAn?$AAt?$AA?$CI?$AA?$CJ?$AA?5?$AAc?$AAa?$AAl?$AAl?$AAe?$AAd@ 000000018006cf40     libcpmtd:cout.obj
 0002:00003090       ?nothrow@std@@3Unothrow_t@1@B 000000018006d090     libcpmtd:nothrow.obj
 0002:00003098       ??_C@_17CNPHIMPH@?$AA?$CF?$AAl?$AAs@ 000000018006d098     libcpmtd:StlLCMapStringA.obj
 0002:000030a0       ??_C@_1FE@KNPCCODH@?$AA?$CI?$AA?$CC?$AAC?$AAo?$AAr?$AAr?$AAu?$AAp?$AAt?$AAe?$AAd?$AA?5?$AAp?$AAo?$AAi@ 000000018006d0a0     libcpmtd:StlLCMapStringA.obj
 0002:00003100       ??_C@_1IC@BADOEGOD@?$AAd?$AA?3?$AA?2?$AAa?$AA0?$AA1?$AA?2?$AA_?$AAw?$AAo?$AAr?$AAk?$AA?2?$AA6?$AA?2@ 000000018006d100     libcpmtd:StlLCMapStringA.obj
 0002:00003190       ??_C@_0EE@LCICOIND@d?3?2a01?2_work?26?2s?2src?2vctools?2cr@ 000000018006d190     libcpmtd:StlLCMapStringA.obj
 0002:000031d8       ?_BADOFF@std@@3_JB         000000018006d1d8     libcpmtd:ios.obj
 0002:000031e0       ??_C@_11LOCGONAA@@         000000018006d1e0     libcpmtd:wlocale.obj
 0002:000031e4       ??_C@_13IMODFHAA@?$AA?9@   000000018006d1e4     libcpmtd:wlocale.obj
 0002:000031e8       ??_C@_01JOAMLHOP@?9@       000000018006d1e8     libcpmtd:wlocale.obj
 0002:00003298       ??_7type_info@@6B@         000000018006d298     LIBCMTD:std_type_info_static.obj
 0002:000032a0       _pRawDllMain               000000018006d2a0     LIBCMTD:dll_dllmain.obj
 0002:000032a0       _pDefaultRawDllMain        000000018006d2a0     LIBCMTD:dll_dllmain.obj
 0002:000032c0       ??_C@_1FK@OACNEHHA@?$AAt?$AAo?$AA?9?$AA?$DO?$AA_?$AAW?$AAh?$AAa?$AAt?$AA?5?$AA?$DN?$AA?$DN?$AA?5?$AAn?$AAu@ 000000018006d2c0     libvcruntimed:std_exception.obj
 0002:00003320       ??_C@_1II@HDIONFLJ@?$AAd?$AA?3?$AA?2?$AAa?$AA0?$AA1?$AA?2?$AA_?$AAw?$AAo?$AAr?$AAk?$AA?2?$AA6?$AA?2@ 000000018006d320     libvcruntimed:std_exception.obj
 0002:000033a8       ?s_negLengthTab@FH4@@3QBCB 000000018006d3a8     libvcruntimed:risctrnsctrl.obj
 0002:000033b8       ?s_shiftTab@FH4@@3QBEB     000000018006d3b8     libvcruntimed:risctrnsctrl.obj
 0002:00003508       _pDestructExceptionObject  000000018006d508     libvcruntimed:ehhelpers.obj
 0002:00003510       ??_C@_0EM@PIKBDMFF@d?3?2a01?2_work?26?2s?2src?2vctools?2cr@ 000000018006d510     libvcruntimed:per_thread_data.obj
 0002:00003568       ??_7bad_exception@std@@6B@ 000000018006d568     libvcruntimed:frame.obj
 0002:00003578       ??_C@_0O@DPKOEFFH@bad?5exception@ 000000018006d578     libvcruntimed:frame.obj
 0002:00003c90       ??_C@_08EHJDFFNH@__based?$CI@ 000000018006dc90     libvcruntimed:undname.obj
 0002:00003ca0       ??_C@_07KOLFKCDI@__cdecl@  000000018006dca0     libvcruntimed:undname.obj
 0002:00003ca8       ??_C@_08GHMPAG@__pascal@   000000018006dca8     libvcruntimed:undname.obj
 0002:00003cb8       ??_C@_09IFJBGAPI@__stdcall@ 000000018006dcb8     libvcruntimed:undname.obj
 0002:00003cc8       ??_C@_0L@NPHFGOKO@__thiscall@ 000000018006dcc8     libvcruntimed:undname.obj
 0002:00003cd8       ??_C@_0L@JMKHOMEK@__fastcall@ 000000018006dcd8     libvcruntimed:undname.obj
 0002:00003ce8       ??_C@_0N@BCKKPABJ@__vectorcall@ 000000018006dce8     libvcruntimed:undname.obj
 0002:00003cf8       ??_C@_09HIJEGCPM@__clrcall@ 000000018006dcf8     libvcruntimed:undname.obj
 0002:00003d04       ??_C@_06GHPCKEAG@__eabi@   000000018006dd04     libvcruntimed:undname.obj
 0002:00003d10       ??_C@_09IOPIDJLG@__swift_1@ 000000018006dd10     libvcruntimed:undname.obj
 0002:00003d20       ??_C@_09KFNFGKHF@__swift_2@ 000000018006dd20     libvcruntimed:undname.obj
 0002:00003d30       ??_C@_07JOMMBBKO@__ptr64@  000000018006dd30     libvcruntimed:undname.obj
 0002:00003d38       ??_C@_0L@PILCLIHE@__restrict@ 000000018006dd38     libvcruntimed:undname.obj
 0002:00003d48       ??_C@_0M@GFIIJFMG@__unaligned@ 000000018006dd48     libvcruntimed:undname.obj
 0002:00003d58       ??_C@_09DHDLOLLB@restrict?$CI@ 000000018006dd58     libvcruntimed:undname.obj
 0002:00003d64       ??_C@_04NIHEBCM@?5new@     000000018006dd64     libvcruntimed:undname.obj
 0002:00003d70       ??_C@_07FPCDHGMM@?5delete@ 000000018006dd70     libvcruntimed:undname.obj
 0002:00003d78       ??_C@_01NEMOKFLO@?$DN@     000000018006dd78     libvcruntimed:undname.obj
 0002:00003d7c       ??_C@_02GPIOPFAK@?$DO?$DO@ 000000018006dd7c     libvcruntimed:undname.obj
 0002:00003d80       ??_C@_02FODMEDOG@?$DM?$DM@ 000000018006dd80     libvcruntimed:undname.obj
 0002:00003d84       ??_C@_01DCLJPIOD@?$CB@     000000018006dd84     libvcruntimed:undname.obj
 0002:00003d88       ??_C@_02EGOFBIJA@?$DN?$DN@ 000000018006dd88     libvcruntimed:undname.obj
 0002:00003d8c       ??_C@_02FDNJECIE@?$CB?$DN@ 000000018006dd8c     libvcruntimed:undname.obj
 0002:00003d90       ??_C@_02GPECMEKF@?$FL?$FN@ 000000018006dd90     libvcruntimed:undname.obj
 0002:00003d98       ??_C@_08LHJFAFGD@operator@ 000000018006dd98     libvcruntimed:undname.obj
 0002:00003da4       ??_C@_02HBOOOICD@?9?$DO@   000000018006dda4     libvcruntimed:undname.obj
 0002:00003da8       ??_C@_02ECNGHCIF@?$CL?$CL@ 000000018006dda8     libvcruntimed:undname.obj
 0002:00003dac       ??_C@_02BAABKJLB@?9?9@     000000018006ddac     libvcruntimed:undname.obj
 0002:00003db0       ??_C@_01MIFGBAGJ@?$CL@     000000018006ddb0     libvcruntimed:undname.obj
 0002:00003db4       ??_C@_01HNPIGOCE@?$CG@     000000018006ddb4     libvcruntimed:undname.obj
 0002:00003db8       ??_C@_03MNHNFDLC@?9?$DO?$CK@ 000000018006ddb8     libvcruntimed:undname.obj
 0002:00003dbc       ??_C@_01KMDKNFGN@?1@       000000018006ddbc     libvcruntimed:undname.obj
 0002:00003dc0       ??_C@_01FGNFDNOH@?$CF@     000000018006ddc0     libvcruntimed:undname.obj
 0002:00003dc4       ??_C@_01MNNFJEPP@?$DM@     000000018006ddc4     libvcruntimed:undname.obj
 0002:00003dc8       ??_C@_02EHCHHCKH@?$DM?$DN@ 000000018006ddc8     libvcruntimed:undname.obj
 0002:00003dcc       ??_C@_01PPODPGHN@?$DO@     000000018006ddcc     libvcruntimed:undname.obj
 0002:00003dd0       ??_C@_02EEKDKGMJ@?$DO?$DN@ 000000018006ddd0     libvcruntimed:undname.obj
 0002:00003dd4       ??_C@_01IHBHIGKO@?0@       000000018006ddd4     libvcruntimed:undname.obj
 0002:00003dd8       ??_C@_02HCKGKOFO@?$CI?$CJ@ 000000018006ddd8     libvcruntimed:undname.obj
 0002:00003ddc       ??_C@_01PJKLJHI@?$HO@      000000018006dddc     libvcruntimed:undname.obj
 0002:00003de0       ??_C@_01JKBOJNNK@?$FO@     000000018006dde0     libvcruntimed:undname.obj
 0002:00003de4       ??_C@_01DNKMNLPK@?$HM@     000000018006dde4     libvcruntimed:undname.obj
 0002:00003de8       ??_C@_02PPKAJPJL@?$CG?$CG@ 000000018006dde8     libvcruntimed:undname.obj
 0002:00003dec       ??_C@_02NONPIBCD@?$HM?$HM@ 000000018006ddec     libvcruntimed:undname.obj
 0002:00003df0       ??_C@_02FPIMKNGF@?$CK?$DN@ 000000018006ddf0     libvcruntimed:undname.obj
 0002:00003df4       ??_C@_02FOEOMHFC@?$CL?$DN@ 000000018006ddf4     libvcruntimed:undname.obj
 0002:00003df8       ??_C@_02FKMDLLOA@?9?$DN@   000000018006ddf8     libvcruntimed:undname.obj
 0002:00003dfc       ??_C@_02FJEHGPIO@?1?$DN@   000000018006ddfc     libvcruntimed:undname.obj
 0002:00003e00       ??_C@_02FENAOKFI@?$CF?$DN@ 000000018006de00     libvcruntimed:undname.obj
 0002:00003e04       ??_C@_03IKFCCPFF@?$DO?$DO?$DN@ 000000018006de04     libvcruntimed:undname.obj
 0002:00003e08       ??_C@_03CDNPDDLA@?$DM?$DM?$DN@ 000000018006de08     libvcruntimed:undname.obj
 0002:00003e0c       ??_C@_02FGJGFEAB@?$CG?$DN@ 000000018006de0c     libvcruntimed:undname.obj
 0002:00003e10       ??_C@_02DHLNPPGH@?$HM?$DN@ 000000018006de10     libvcruntimed:undname.obj
 0002:00003e14       ??_C@_02MHEGNOJ@?$FO?$DN@  000000018006de14     libvcruntimed:undname.obj
 0002:00003e18       ??_C@_09IFPLHPGF@?$GAvftable?8@ 000000018006de18     libvcruntimed:undname.obj
 0002:00003e28       ??_C@_09BLBHBJP@?$GAvbtable?8@ 000000018006de28     libvcruntimed:undname.obj
 0002:00003e38       ??_C@_07FEEIOKP@?$GAvcall?8@ 000000018006de38     libvcruntimed:undname.obj
 0002:00003e40       ??_C@_08LLFFHHDJ@?$GAtypeof?8@ 000000018006de40     libvcruntimed:undname.obj
 0002:00003e50       ??_C@_0BF@KDPPACIK@?$GAlocal?5static?5guard?8@ 000000018006de50     libvcruntimed:undname.obj
 0002:00003e68       ??_C@_08OBABFOLI@?$GAstring?8@ 000000018006de68     libvcruntimed:undname.obj
 0002:00003e78       ??_C@_0BD@JDLKDPAB@?$GAvbase?5destructor?8@ 000000018006de78     libvcruntimed:undname.obj
 0002:00003e90       ??_C@_0BN@DEGPLNFK@?$GAvector?5deleting?5destructor?8@ 000000018006de90     libvcruntimed:undname.obj
 0002:00003eb0       ??_C@_0BO@OBMKPJIG@?$GAdefault?5constructor?5closure?8@ 000000018006deb0     libvcruntimed:undname.obj
 0002:00003ed0       ??_C@_0BN@IMDCHIKM@?$GAscalar?5deleting?5destructor?8@ 000000018006ded0     libvcruntimed:undname.obj
 0002:00003ef0       ??_C@_0BO@PFGOCPJJ@?$GAvector?5constructor?5iterator?8@ 000000018006def0     libvcruntimed:undname.obj
 0002:00003f10       ??_C@_0BN@LFPFMEDL@?$GAvector?5destructor?5iterator?8@ 000000018006df10     libvcruntimed:undname.obj
 0002:00003f30       ??_C@_0CE@IKBNEHA@?$GAvector?5vbase?5constructor?5itera@ 000000018006df30     libvcruntimed:undname.obj
 0002:00003f58       ??_C@_0BL@NILFHHPC@?$GAvirtual?5displacement?5map?8@ 000000018006df58     libvcruntimed:undname.obj
 0002:00003f78       ??_C@_0CB@JONCMFFK@?$GAeh?5vector?5constructor?5iterator@ 000000018006df78     libvcruntimed:undname.obj
 0002:00003fa0       ??_C@_0CA@GCEOPDGL@?$GAeh?5vector?5destructor?5iterator?8@ 000000018006dfa0     libvcruntimed:undname.obj
 0002:00003fc0       ??_C@_0CH@OOJPLCPH@?$GAeh?5vector?5vbase?5constructor?5it@ 000000018006dfc0     libvcruntimed:undname.obj
 0002:00003fe8       ??_C@_0BL@LLKPOHJI@?$GAcopy?5constructor?5closure?8@ 000000018006dfe8     libvcruntimed:undname.obj
 0002:00004008       ??_C@_0BA@KBCDOMBN@?$GAudt?5returning?8@ 000000018006e008     libvcruntimed:undname.obj
 0002:00004018       ??_C@_03KLGMFNMG@?$GAEH@   000000018006e018     libvcruntimed:undname.obj
 0002:0000401c       ??_C@_05KHLCHHI@?$GARTTI@  000000018006e01c     libvcruntimed:undname.obj
 0002:00004028       ??_C@_0BA@KKLDJDLB@?$GAlocal?5vftable?8@ 000000018006e028     libvcruntimed:undname.obj
 0002:00004038       ??_C@_0CE@IIHCMGGL@?$GAlocal?5vftable?5constructor?5clos@ 000000018006e038     libvcruntimed:undname.obj
 0002:0000405c       ??_C@_06FHBGPFGH@?5new?$FL?$FN@ 000000018006e05c     libvcruntimed:undname.obj
 0002:00004068       ??_C@_09LBNFPBCA@?5delete?$FL?$FN@ 000000018006e068     libvcruntimed:undname.obj
 0002:00004078       ??_C@_0P@HJKNJFNN@?$GAomni?5callsig?8@ 000000018006e078     libvcruntimed:undname.obj
 0002:00004088       ??_C@_0BL@CNOONJFP@?$GAplacement?5delete?5closure?8@ 000000018006e088     libvcruntimed:undname.obj
 0002:000040a8       ??_C@_0BN@CKNJLHMB@?$GAplacement?5delete?$FL?$FN?5closure?8@ 000000018006e0a8     libvcruntimed:undname.obj
 0002:000040c8       ??_C@_0CG@CFDHKGGD@?$GAmanaged?5vector?5constructor?5ite@ 000000018006e0c8     libvcruntimed:undname.obj
 0002:000040f0       ??_C@_0CF@IMGKMJNO@?$GAmanaged?5vector?5destructor?5iter@ 000000018006e0f0     libvcruntimed:undname.obj
 0002:00004118       ??_C@_0CG@HLDDJMAG@?$GAeh?5vector?5copy?5constructor?5ite@ 000000018006e118     libvcruntimed:undname.obj
 0002:00004140       ??_C@_0CM@FCBBDIGB@?$GAeh?5vector?5vbase?5copy?5construct@ 000000018006e140     libvcruntimed:undname.obj
 0002:00004170       ??_C@_0BL@CLIPGLGB@?$GAdynamic?5initializer?5for?5?8@ 000000018006e170     libvcruntimed:undname.obj
 0002:00004190       ??_C@_0CB@PDBIFEP@?$GAdynamic?5atexit?5destructor?5for?5@ 000000018006e190     libvcruntimed:undname.obj
 0002:000041b8       ??_C@_0CD@CGAJBKEJ@?$GAvector?5copy?5constructor?5iterat@ 000000018006e1b8     libvcruntimed:undname.obj
 0002:000041e0       ??_C@_0CJ@GJELGAMM@?$GAvector?5vbase?5copy?5constructor?5@ 000000018006e1e0     libvcruntimed:undname.obj
 0002:00004210       ??_C@_0CL@FGIJHLCE@?$GAmanaged?5vector?5copy?5constructo@ 000000018006e210     libvcruntimed:undname.obj
 0002:00004240       ??_C@_0BM@PMGGMLDN@?$GAlocal?5static?5thread?5guard?8@ 000000018006e240     libvcruntimed:undname.obj
 0002:00004260       ??_C@_0N@BDNMDMOL@operator?5?$CC?$CC?5@ 000000018006e260     libvcruntimed:undname.obj
 0002:00004270       ??_C@_0BC@GGEBGALA@operator?5co_await@ 000000018006e270     libvcruntimed:undname.obj
 0002:00004288       ??_C@_0M@GAAIMMOH@operator?$DM?$DN?$DO@ 000000018006e288     libvcruntimed:undname.obj
 0002:00004298       ??_C@_0BC@DAFEJGAK@?5Type?5Descriptor?8@ 000000018006e298     libvcruntimed:undname.obj
 0002:000042b0       ??_C@_0BM@LDKODKLH@?5Base?5Class?5Descriptor?5at?5?$CI@ 000000018006e2b0     libvcruntimed:undname.obj
 0002:000042d0       ??_C@_0BD@LGICGFMM@?5Base?5Class?5Array?8@ 000000018006e2d0     libvcruntimed:undname.obj
 0002:000042e8       ??_C@_0BN@MECKDCOJ@?5Class?5Hierarchy?5Descriptor?8@ 000000018006e2e8     libvcruntimed:undname.obj
 0002:00004308       ??_C@_0BK@CFCOFLF@?5Complete?5Object?5Locator?8@ 000000018006e308     libvcruntimed:undname.obj
 0002:00004328       ??_C@_0BG@JNJLAMPM@?$GAanonymous?5namespace?8@ 000000018006e328     libvcruntimed:undname.obj
 0002:00004358       ??_C@_1DM@KHCHBNEB@?$AAa?$AAp?$AAi?$AA?9?$AAm?$AAs?$AA?9?$AAw?$AAi?$AAn?$AA?9?$AAc?$AAo?$AAr?$AAe@ 000000018006e358     libvcruntimed:winapi_downlevel.obj
 0002:00004398       ??_C@_1DK@LPPGFMPP@?$AAa?$AAp?$AAi?$AA?9?$AAm?$AAs?$AA?9?$AAw?$AAi?$AAn?$AA?9?$AAc?$AAo?$AAr?$AAe@ 000000018006e398     libvcruntimed:winapi_downlevel.obj
 0002:000043d8       ??_C@_1BC@GDMECMAK@?$AAk?$AAe?$AAr?$AAn?$AAe?$AAl?$AA3?$AA2@ 000000018006e3d8     libvcruntimed:winapi_downlevel.obj
 0002:000043f0       ??_C@_1BA@PFFKHIOG@?$AAa?$AAp?$AAi?$AA?9?$AAm?$AAs?$AA?9@ 000000018006e3f0     libvcruntimed:winapi_downlevel.obj
 0002:00004400       ??_C@_1EM@LBIFGLGH@?$AAc?$AAa?$AAc?$AAh?$AAe?$AAd?$AA_?$AAh?$AAa?$AAn?$AAd?$AAl?$AAe?$AA?5?$AA?$DN@ 000000018006e400     libvcruntimed:winapi_downlevel.obj
 0002:00004450       ??_C@_1JK@BNLKABDE@?$AAd?$AA?3?$AA?2?$AAa?$AA0?$AA1?$AA?2?$AA_?$AAw?$AAo?$AAr?$AAk?$AA?2?$AA6?$AA?2@ 000000018006e450     libvcruntimed:winapi_downlevel.obj
 0002:000044f0       ??_C@_1DI@MAHEDLDB@?$AAc?$AAa?$AAc?$AAh?$AAe?$AAd?$AA_?$AAh?$AAa?$AAn?$AAd?$AAl?$AAe?$AA?5?$AA?$DN@ 000000018006e4f0     libvcruntimed:winapi_downlevel.obj
 0002:00004530       ??_C@_1FC@IBNCGNKL@?$AAc?$AAa?$AAc?$AAh?$AAe?$AAd?$AA_?$AAf?$AAp?$AA?5?$AA?$DN?$AA?$DN?$AA?5?$AAi?$AAn@ 000000018006e530     libvcruntimed:winapi_downlevel.obj
 0002:00004588       ??_C@_1CI@GDJBAGLP@?$AAc?$AAa?$AAc?$AAh?$AAe?$AAd?$AA_?$AAf?$AAp?$AA?5?$AA?$DN?$AA?$DN?$AA?5?$AAn?$AAe@ 000000018006e588     libvcruntimed:winapi_downlevel.obj
 0002:000045b8       ??_C@_08KNHFBNJ@FlsAlloc@  000000018006e5b8     libvcruntimed:winapi_downlevel.obj
 0002:000045d0       ??_C@_07PEJMOBNF@FlsFree@  000000018006e5d0     libvcruntimed:winapi_downlevel.obj
 0002:000045e0       ??_C@_0M@GDNOONDI@FlsGetValue@ 000000018006e5e0     libvcruntimed:winapi_downlevel.obj
 0002:000045f8       ??_C@_0M@JCPCPOEF@FlsSetValue@ 000000018006e5f8     libvcruntimed:winapi_downlevel.obj
 0002:00004610       ??_C@_0BM@HCFOFFN@InitializeCriticalSectionEx@ 000000018006e610     libvcruntimed:winapi_downlevel.obj
 0002:00004658       ??_C@_04HJMOFLDF@Free@     000000018006e658     libucrtd:debug_heap.obj
 0002:00004660       ??_C@_06EFAGIKOH@Normal@   000000018006e660     libucrtd:debug_heap.obj
 0002:00004668       ??_C@_03OGPFLFLO@CRT@      000000018006e668     libucrtd:debug_heap.obj
 0002:0000466c       ??_C@_06KMEJCCGM@Ignore@   000000018006e66c     libucrtd:debug_heap.obj
 0002:00004674       ??_C@_06PJIGMIJB@Client@   000000018006e674     libucrtd:debug_heap.obj
 0002:00004680       ??_C@_1CE@LJFEPPMP@?$AA_?$AAC?$AAr?$AAt?$AAC?$AAh?$AAe?$AAc?$AAk?$AAM?$AAe?$AAm?$AAo?$AAr?$AAy@ 000000018006e680     libucrtd:debug_heap.obj
 0002:000046b0       ??_C@_1GG@OCLHPJPK@?$AAm?$AAi?$AAn?$AAk?$AAe?$AAr?$AAn?$AAe?$AAl?$AA?2?$AAc?$AAr?$AAt?$AAs?$AA?2@ 000000018006e6b0     libucrtd:debug_heap.obj
 0002:00004718       ??_C@_0DF@BBEGIFEK@Client?5hook?5allocation?5failure?5@ 000000018006e718     libucrtd:debug_heap.obj
 0002:00004750       ??_C@_0CB@CCLOLAHO@Client?5hook?5allocation?5failure?4@ 000000018006e750     libucrtd:debug_heap.obj
 0002:00004778       ??_C@_0DC@JEMAGEKG@Error?3?5memory?5allocation?3?5bad?5m@ 000000018006e778     libucrtd:debug_heap.obj
 0002:000047b0       ??_C@_0DI@KKJPDPGM@Client?5hook?5re?9allocation?5failu@ 000000018006e7b0     libucrtd:debug_heap.obj
 0002:000047e8       ??_C@_0CE@DOFMDOL@Client?5hook?5re?9allocation?5failu@ 000000018006e7e8     libucrtd:debug_heap.obj
 0002:00004810       ??_C@_0FA@EFEIGJKG@Error?3?5memory?5allocation?3?5bad?5m@ 000000018006e810     libucrtd:debug_heap.obj
 0002:00004860       ??_C@_0EM@LGFLMAGJ@The?5Block?5at?50x?$CFp?5was?5allocated@ 000000018006e860     libucrtd:debug_heap.obj
 0002:000048b0       ??_C@_1DM@DEDLGNML@?$AA_?$AAC?$AAr?$AAt?$AAI?$AAs?$AAV?$AAa?$AAl?$AAi?$AAd?$AAH?$AAe?$AAa?$AAp@ 000000018006e8b0     libucrtd:debug_heap.obj
 0002:000048f0       ??_C@_1PC@MCGKJLN@?$AAo?$AAl?$AAd?$AA_?$AAh?$AAe?$AAa?$AAd?$AA?9?$AA?$DO?$AA_?$AAl?$AAi?$AAn?$AAe@ 000000018006e8f0     libucrtd:debug_heap.obj
 0002:000049e8       ??_C@_0DA@HFBKENN@Error?3?5possible?5heap?5corruption@ 000000018006e9e8     libucrtd:debug_heap.obj
 0002:00004a20       ??_C@_1JM@MCMEPJEP@?$AAr?$AAe?$AAa?$AAl?$AAl?$AAo?$AAc?$AAa?$AAt?$AAi?$AAo?$AAn?$AA_?$AAi?$AAs@ 000000018006ea20     libucrtd:debug_heap.obj
 0002:00004ac0       ??_C@_1DM@LNOPKAIJ@?$AA_?$AA_?$AAa?$AAc?$AAr?$AAt?$AA_?$AAl?$AAa?$AAs?$AAt?$AA_?$AAb?$AAl?$AAo@ 000000018006eac0     libucrtd:debug_heap.obj
 0002:00004b00       ??_C@_1DO@HABCJBHO@?$AA_?$AA_?$AAa?$AAc?$AAr?$AAt?$AA_?$AAf?$AAi?$AAr?$AAs?$AAt?$AA_?$AAb?$AAl@ 000000018006eb00     libucrtd:debug_heap.obj
 0002:00004b40       ??_C@_1CC@CKEAHJPH@?$AAb?$AAl?$AAo?$AAc?$AAk?$AA?5?$AA?$CB?$AA?$DN?$AA?5?$AAn?$AAu?$AAl?$AAl?$AAp?$AAt@ 000000018006eb40     libucrtd:debug_heap.obj
 0002:00004b70       ??_C@_0EJ@HEIBCIMJ@The?5Block?5at?50x?$CFp?5was?5allocated@ 000000018006eb70     libucrtd:debug_heap.obj
 0002:00004bc0       ??_C@_0BL@KEIPLFAC@Client?5hook?5free?5failure?4?6@ 000000018006ebc0     libucrtd:debug_heap.obj
 0002:00004be0       ??_C@_1FA@KDNEBILF@?$AAi?$AAs?$AA_?$AAb?$AAl?$AAo?$AAc?$AAk?$AA_?$AAt?$AAy?$AAp?$AAe?$AA_?$AAv@ 000000018006ebe0     libucrtd:debug_heap.obj
 0002:00004c30       ??_C@_0KI@JGFOHMEB@HEAP?5CORRUPTION?5DETECTED?3?5befor@ 000000018006ec30     libucrtd:debug_heap.obj
 0002:00004ce0       ??_C@_0IK@PJCGLBOB@HEAP?5CORRUPTION?5DETECTED?3?5befor@ 000000018006ece0     libucrtd:debug_heap.obj
 0002:00004d70       ??_C@_0KE@MBMNHHHN@HEAP?5CORRUPTION?5DETECTED?3?5after@ 000000018006ed70     libucrtd:debug_heap.obj
 0002:00004e20       ??_C@_0IG@LEMBDCJK@HEAP?5CORRUPTION?5DETECTED?3?5after@ 000000018006ee20     libucrtd:debug_heap.obj
 0002:00004eb0       ??_C@_1OK@GFEOEJAF@?$AAh?$AAe?$AAa?$AAd?$AAe?$AAr?$AA?9?$AA?$DO?$AA_?$AAl?$AAi?$AAn?$AAe?$AA_?$AAn@ 000000018006eeb0     libucrtd:debug_heap.obj
 0002:00004fa0       ??_C@_1ME@GFALMLNA@?$AAh?$AAe?$AAa?$AAd?$AAe?$AAr?$AA?9?$AA?$DO?$AA_?$AAb?$AAl?$AAo?$AAc?$AAk?$AA_@ 000000018006efa0     libucrtd:debug_heap.obj
 0002:00005068       ??_C@_1DI@ILNOPEPI@?$AA_?$AA_?$AAa?$AAc?$AAr?$AAt?$AA_?$AAl?$AAa?$AAs?$AAt?$AA_?$AAb?$AAl?$AAo@ 000000018006f068     libucrtd:debug_heap.obj
 0002:000050a0       ??_C@_1DK@KEHFGDIJ@?$AA_?$AA_?$AAa?$AAc?$AAr?$AAt?$AA_?$AAf?$AAi?$AAr?$AAs?$AAt?$AA_?$AAb?$AAl@ 000000018006f0a0     libucrtd:debug_heap.obj
 0002:000050e0       ??_C@_1BG@MBKOGDLD@?$AA_?$AAm?$AAs?$AAi?$AAz?$AAe?$AA_?$AAd?$AAb?$AAg@ 000000018006f0e0     libucrtd:debug_heap.obj
 0002:000050f8       ??_C@_07OHKEFPKJ@DAMAGED@  000000018006f0f8     libucrtd:debug_heap.obj
 0002:00005100       ??_C@_0KA@IHNJJKPL@HEAP?5CORRUPTION?5DETECTED?3?5on?5to@ 000000018006f100     libucrtd:debug_heap.obj
 0002:000051a0       ??_C@_0IC@BBJIOOJH@HEAP?5CORRUPTION?5DETECTED?3?5on?5to@ 000000018006f1a0     libucrtd:debug_heap.obj
 0002:00005230       ??_C@_0EG@DGJMPDBH@?$CFhs?5located?5at?50x?$CFp?5is?5?$CFIu?5byte@ 000000018006f230     libucrtd:debug_heap.obj
 0002:00005278       ??_C@_0CI@JMLBEDHJ@?$CFhs?5located?5at?50x?$CFp?5is?5?$CFIu?5byte@ 000000018006f278     libucrtd:debug_heap.obj
 0002:000052a0       ??_C@_0EG@GPFHANHO@Cycle?5in?5block?5list?5detected?5wh@ 000000018006f2a0     libucrtd:debug_heap.obj
 0002:000052e8       ??_C@_0BJ@ELMAOCAJ@Heap?5validation?5failed?4?6@ 000000018006f2e8     libucrtd:debug_heap.obj
 0002:00005310       ??_C@_1IE@BBIFDGEB@?$AAn?$AAe?$AAw?$AA_?$AAb?$AAi?$AAt?$AAs?$AA?5?$AA?$DN?$AA?$DN?$AA?5?$AA_?$AAC?$AAR@ 000000018006f310     libucrtd:debug_heap.obj
 0002:00005398       ??_C@_1BO@GJFDNMNF@?$AA_?$AAC?$AAr?$AAt?$AAS?$AAe?$AAt?$AAD?$AAb?$AAg?$AAF?$AAl?$AAa?$AAg@ 000000018006f398     libucrtd:debug_heap.obj
 0002:000053b8       ??_C@_1CC@BBKMONGA@?$AAs?$AAt?$AAa?$AAt?$AAe?$AA?5?$AA?$CB?$AA?$DN?$AA?5?$AAn?$AAu?$AAl?$AAl?$AAp?$AAt@ 000000018006f3b8     libucrtd:debug_heap.obj
 0002:000053e0       ??_C@_1CE@NJJKELF@?$AA_?$AAC?$AAr?$AAt?$AAM?$AAe?$AAm?$AAC?$AAh?$AAe?$AAc?$AAk?$AAp?$AAo?$AAi@ 000000018006f3e0     libucrtd:debug_heap.obj
 0002:00005408       ??_C@_0DP@LEFMFBOD@Bad?5memory?5block?5found?5at?50x?$CFp?4@ 000000018006f408     libucrtd:debug_heap.obj
 0002:00005448       ??_C@_0CB@EAAIGELO@Bad?5memory?5block?5found?5at?50x?$CFp?4@ 000000018006f448     libucrtd:debug_heap.obj
 0002:0000546c       ??_C@_05MKKEDADM@?$CF?42X?5@ 000000018006f46c     libucrtd:debug_heap.obj
 0002:00005478       ??_C@_1CC@DIJAHFFJ@?$AAp?$AAr?$AAi?$AAn?$AAt?$AA_?$AAb?$AAl?$AAo?$AAc?$AAk?$AA_?$AAd?$AAa?$AAt@ 000000018006f478     libucrtd:debug_heap.obj
 0002:000054a0       ??_C@_1BI@KALLJECN@?$AA?$CI?$AA?$CK?$AA_?$AAe?$AAr?$AAr?$AAn?$AAo?$AA?$CI?$AA?$CJ?$AA?$CJ@ 000000018006f4a0     libucrtd:debug_heap.obj
 0002:000054b8       ??_C@_0BA@HJBKCELP@?5Data?3?5?$DM?$CFs?$DO?5?$CFs?6@ 000000018006f4b8     libucrtd:debug_heap.obj
 0002:000054c8       ??_C@_0BE@KCIPKCIA@Dumping?5objects?5?9?$DO?6@ 000000018006f4c8     libucrtd:debug_heap.obj
 0002:000054e0       ??_C@_0BE@OIEFNFL@?$CDFile?5Error?$CD?$CI?$CFd?$CJ?5?3?5@ 000000018006f4e0     libucrtd:debug_heap.obj
 0002:000054f8       ??_C@_0L@JMEFFCCJ@?$CFhs?$CI?$CFd?$CJ?5?3?5@ 000000018006f4f8     libucrtd:debug_heap.obj
 0002:00005504       ??_C@_06PKLGBFGM@?$HL?$CFld?$HN?5@ 000000018006f504     libucrtd:debug_heap.obj
 0002:00005510       ??_C@_0DD@GHNAAKBB@client?5block?5at?50x?$CFp?0?5subtype?5?$CF@ 000000018006f510     libucrtd:debug_heap.obj
 0002:00005548       ??_C@_0CH@FAGDDGPN@normal?5block?5at?50x?$CFp?0?5?$CFIu?5bytes@ 000000018006f548     libucrtd:debug_heap.obj
 0002:00005570       ??_C@_0DA@MDLBNIBM@crt?5block?5at?50x?$CFp?0?5subtype?5?$CFx?0?5@ 000000018006f570     libucrtd:debug_heap.obj
 0002:000055a0       ??_C@_0BH@GFGKJDCO@Object?5dump?5complete?4?6@ 000000018006f5a0     libucrtd:debug_heap.obj
 0002:000055b8       ??_C@_0BI@JBFPOEJA@Detected?5memory?5leaks?$CB?6@ 000000018006f5b8     libucrtd:debug_heap.obj
 0002:000055e8       ??_C@_1BA@GLMCNLEM@?$AAW?$AAa?$AAr?$AAn?$AAi?$AAn?$AAg@ 000000018006f5e8     libucrtd:dbgrpt.obj
 0002:000055f8       ??_C@_1M@ILHOPKA@?$AAE?$AAr?$AAr?$AAo?$AAr@ 000000018006f5f8     libucrtd:dbgrpt.obj
 0002:00005608       ??_C@_1CC@CGHMNGDG@?$AAA?$AAs?$AAs?$AAe?$AAr?$AAt?$AAi?$AAo?$AAn?$AA?5?$AAF?$AAa?$AAi?$AAl?$AAe@ 000000018006f608     libucrtd:dbgrpt.obj
 0002:00005640       ??_C@_1OG@PMPPFHAF@?$AA?6?$AA?6?$AAF?$AAo?$AAr?$AA?5?$AAi?$AAn?$AAf?$AAo?$AAr?$AAm?$AAa?$AAt?$AAi@ 000000018006f640     libucrtd:dbgrpt.obj
 0002:00005730       ??_C@_1MG@LJLILFFD@?$AAD?$AAe?$AAb?$AAu?$AAg?$AA?5?$AA?$CF?$AAl?$AAs?$AA?$CB?$AA?6?$AA?6?$AAP?$AAr?$AAo@ 000000018006f730     libucrtd:dbgrpt.obj
 0002:00005800       ??_C@_1MG@OODCADGL@?$AAD?$AAe?$AAb?$AAu?$AAg?$AA?5?$AA?$CF?$AAl?$AAs?$AA?$CB?$AA?6?$AA?6?$AAP?$AAr?$AAo@ 000000018006f800     libucrtd:dbgrpt.obj
 0002:000058c8       ??_C@_0BH@DNAGHKFM@?$DMprogram?5name?5unknown?$DO@ 000000018006f8c8     libucrtd:dbgrpt.obj
 0002:000058e0       ??_C@_1CO@EAEJAADC@?$AA?$DM?$AAp?$AAr?$AAo?$AAg?$AAr?$AAa?$AAm?$AA?5?$AAn?$AAa?$AAm?$AAe?$AA?5?$AAu@ 000000018006f8e0     libucrtd:dbgrpt.obj
 0002:00005910       ??_C@_1FO@GMJDLAJD@?$AAm?$AAi?$AAn?$AAk?$AAe?$AAr?$AAn?$AAe?$AAl?$AA?2?$AAc?$AAr?$AAt?$AAs?$AA?2@ 000000018006f910     libucrtd:dbgrpt.obj
 0002:00005970       ??_C@_1CM@EHMOGBJJ@?$AAc?$AAo?$AAm?$AAm?$AAo?$AAn?$AA_?$AAm?$AAe?$AAs?$AAs?$AAa?$AAg?$AAe?$AA_@ 000000018006f970     libucrtd:dbgrpt.obj
 0002:000059a0       ??_C@_1PE@ECNALGCA@?$AAt?$AAr?$AAa?$AAi?$AAt?$AAs?$AA?3?$AA?3?$AAt?$AAc?$AAs?$AAc?$AAp?$AAy?$AA_@ 000000018006f9a0     libucrtd:dbgrpt.obj
 0002:00005a98       ??_C@_1BK@PEDCIPMA@?$AAE?$AAx?$AAp?$AAr?$AAe?$AAs?$AAs?$AAi?$AAo?$AAn?$AA?3?$AA?5@ 000000018006fa98     libucrtd:dbgrpt.obj
 0002:00005ab4       ??_C@_15IABLJNFO@?$AA?6?$AA?6@ 000000018006fab4     libucrtd:dbgrpt.obj
 0002:00005ac0       ??_C@_1BA@GLLGCPCK@?$AA?6?$AAL?$AAi?$AAn?$AAe?$AA?3?$AA?5@ 000000018006fac0     libucrtd:dbgrpt.obj
 0002:00005ad0       ??_C@_1BA@LNHECFIM@?$AA?6?$AAF?$AAi?$AAl?$AAe?$AA?3?$AA?5@ 000000018006fad0     libucrtd:dbgrpt.obj
 0002:00005ae0       ??_C@_17LGKOMLJ@?$AA?4?$AA?4?$AA?4@ 000000018006fae0     libucrtd:dbgrpt.obj
 0002:00005ae8       ??_C@_1BE@CGCJKGHI@?$AA?6?$AAM?$AAo?$AAd?$AAu?$AAl?$AAe?$AA?3?$AA?5@ 000000018006fae8     libucrtd:dbgrpt.obj
 0002:00005b00       ??_C@_1JM@IBOIJEOO@?$AAw?$AAc?$AAs?$AAc?$AAp?$AAy?$AA_?$AAs?$AA?$CI?$AAm?$AAe?$AAs?$AAs?$AAa?$AAg@ 000000018006fb00     libucrtd:dbgrpt.obj
 0002:00005ba0       ??_C@_1FG@BBOLDHGF@?$AA_?$AAC?$AAr?$AAt?$AAD?$AAb?$AAg?$AAR?$AAe?$AAp?$AAo?$AAr?$AAt?$AA?3?$AA?5@ 000000018006fba0     libucrtd:dbgrpt.obj
 0002:00005c00       ??_C@_1EK@MBDPDCGA@?$AAM?$AAi?$AAc?$AAr?$AAo?$AAs?$AAo?$AAf?$AAt?$AA?5?$AAV?$AAi?$AAs?$AAu?$AAa@ 000000018006fc00     libucrtd:dbgrpt.obj
 0002:00005c90       ?standard_lookup_table_spectre@__crt_stdio_output@@3V?$spectre_mitigated_lookup_table@Ustate_transition_pair@__crt_stdio_output@@$0IA@@1@B 000000018006fc90     libucrtd:output.obj
 0002:00006090       ?format_validation_lookup_table_spectre@__crt_stdio_output@@3V?$spectre_mitigated_lookup_table@Ustate_transition_pair@__crt_stdio_output@@$0IA@@1@B 0000000180070090     libucrtd:output.obj
 0002:00006490       ??_C@_1BDG@MKBKGHOH@?$AA?$CI?$AA?5?$AA?$CI?$AA_?$AAS?$AAt?$AAr?$AAe?$AAa?$AAm?$AA?4?$AAi?$AAs?$AA_?$AAs@ 0000000180070490     libucrtd:output.obj
 0002:000065c8       ??_C@_1CE@JLIJLEKO@?$AAs?$AAt?$AAr?$AAe?$AAa?$AAm?$AA?5?$AA?$CB?$AA?$DN?$AA?5?$AAn?$AAu?$AAl?$AAl?$AAp@ 00000001800705c8     libucrtd:output.obj
 0002:000065f0       ??_C@_1GA@MOBAPGIO@?$AAm?$AAi?$AAn?$AAk?$AAe?$AAr?$AAn?$AAe?$AAl?$AA?2?$AAc?$AAr?$AAt?$AAs?$AA?2@ 00000001800705f0     libucrtd:output.obj
 0002:00006650       ??_C@_1CA@GELIJBMC@?$AAc?$AAo?$AAm?$AAm?$AAo?$AAn?$AA_?$AAv?$AAf?$AAp?$AAr?$AAi?$AAn?$AAt?$AAf@ 0000000180070650     libucrtd:output.obj
 0002:00006670       ??_C@_1CE@EAKLPBKK@?$AAf?$AAo?$AAr?$AAm?$AAa?$AAt?$AA?5?$AA?$CB?$AA?$DN?$AA?5?$AAn?$AAu?$AAl?$AAl?$AAp@ 0000000180070670     libucrtd:output.obj
 0002:00006698       ??_C@_1CA@PIMGHCEK@?$AAc?$AAo?$AAm?$AAm?$AAo?$AAn?$AA_?$AAv?$AAs?$AAp?$AAr?$AAi?$AAn?$AAt?$AAf@ 0000000180070698     libucrtd:output.obj
 0002:000066c0       ??_C@_1EO@EGEEFEFM@?$AAb?$AAu?$AAf?$AAf?$AAe?$AAr?$AA_?$AAc?$AAo?$AAu?$AAn?$AAt?$AA?5?$AA?$DN?$AA?$DN@ 00000001800706c0     libucrtd:output.obj
 0002:00006710       ??_C@_1CE@JEILLNB@?$AAc?$AAo?$AAm?$AAm?$AAo?$AAn?$AA_?$AAv?$AAs?$AAp?$AAr?$AAi?$AAn?$AAt?$AAf@ 0000000180070710     libucrtd:output.obj
 0002:00006740       ??_C@_1EM@OAFHAOLH@?$AAb?$AAu?$AAf?$AAf?$AAe?$AAr?$AA?5?$AA?$CB?$AA?$DN?$AA?5?$AAn?$AAu?$AAl?$AAl?$AAp@ 0000000180070740     libucrtd:output.obj
 0002:00006790       ??_C@_1DA@HPBFKMEB@?$AA?$CI?$AA?$CC?$AAB?$AAu?$AAf?$AAf?$AAe?$AAr?$AA?5?$AAt?$AAo?$AAo?$AA?5?$AAs?$AAm@ 0000000180070790     libucrtd:output.obj
 0002:000067c0       ??_C@_1CG@LHFJHFBB@?$AAc?$AAo?$AAm?$AAm?$AAo?$AAn?$AA_?$AAv?$AAs?$AAn?$AAp?$AAr?$AAi?$AAn?$AAt@ 00000001800707c0     libucrtd:output.obj
 0002:000067e8       ??_C@_1CM@JOIJBMEM@?$AA_?$AAf?$AAo?$AAr?$AAm?$AAa?$AAt?$AA_?$AAi?$AAt?$AA?5?$AA?$CB?$AA?$DN?$AA?5?$AAn@ 00000001800707e8     libucrtd:output.obj
 0002:00006820       ??_C@_1HA@DMAAKIJP@?$AAm?$AAi?$AAn?$AAk?$AAe?$AAr?$AAn?$AAe?$AAl?$AA?2?$AAc?$AAr?$AAt?$AAs?$AA?2@ 0000000180070820     libucrtd:output.obj
 0002:00006890       ??_C@_1EE@DMAIGNBG@?$AA?$CI?$AA?$CC?$AAI?$AAn?$AAc?$AAo?$AAr?$AAr?$AAe?$AAc?$AAt?$AA?5?$AAf?$AAo?$AAr@ 0000000180070890     libucrtd:output.obj
 0002:000068e0       ??_C@_1BLI@IKDKMDHI@?$AA_?$AA_?$AAc?$AAr?$AAt?$AA_?$AAs?$AAt?$AAd?$AAi?$AAo?$AA_?$AAo?$AAu?$AAt@ 00000001800708e0     libucrtd:output.obj
 0002:00006aa0       ??_C@_1BKA@DNADAJMC@?$AA_?$AA_?$AAc?$AAr?$AAt?$AA_?$AAs?$AAt?$AAd?$AAi?$AAo?$AA_?$AAo?$AAu?$AAt@ 0000000180070aa0     libucrtd:output.obj
 0002:00006c40       ??_C@_1BLI@EEAAPJD@?$AA_?$AA_?$AAc?$AAr?$AAt?$AA_?$AAs?$AAt?$AAd?$AAi?$AAo?$AA_?$AAo?$AAu?$AAt@ 0000000180070c40     libucrtd:output.obj
 0002:00006e00       ??_C@_1FG@OBJBDPAC@?$AA?$CI?$AA?$CC?$AAN?$AA?5?$AAl?$AAe?$AAn?$AAg?$AAt?$AAh?$AA?5?$AAm?$AAo?$AAd?$AAi@ 0000000180070e00     libucrtd:output.obj
 0002:00006e60       ??_C@_1EC@GJPNJDCN@?$AA_?$AAl?$AAe?$AAn?$AAg?$AAt?$AAh?$AA?5?$AA?$DN?$AA?$DN?$AA?5?$AAl?$AAe?$AAn?$AAg@ 0000000180070e60     libucrtd:output.obj
 0002:00006ea8       ??_C@_1DG@CEJKFDMO@?$AAs?$AAt?$AAa?$AAt?$AAe?$AA_?$AAc?$AAa?$AAs?$AAe?$AA_?$AAn?$AAo?$AAr?$AAm@ 0000000180070ea8     libucrtd:output.obj
 0002:00006ee0       ??_C@_1BMI@KBPJOJJI@?$AA_?$AA_?$AAc?$AAr?$AAt?$AA_?$AAs?$AAt?$AAd?$AAi?$AAo?$AA_?$AAo?$AAu?$AAt@ 0000000180070ee0     libucrtd:output.obj
 0002:000070b0       ??_C@_1BMM@PGHHMNDM@?$AA_?$AA_?$AAc?$AAr?$AAt?$AA_?$AAs?$AAt?$AAd?$AAi?$AAo?$AA_?$AAo?$AAu?$AAt@ 00000001800710b0     libucrtd:output.obj
 0002:00007280       ??_C@_1CI@DDKMNCPP@?$AA_?$AAc?$AAo?$AAn?$AAt?$AAe?$AAx?$AAt?$AA?5?$AA?$CB?$AA?$DN?$AA?5?$AAn?$AAu?$AAl@ 0000000180071280     libucrtd:output.obj
 0002:000072b0       ??_C@_1HK@IIPGOADH@?$AA_?$AA_?$AAc?$AAr?$AAt?$AA_?$AAs?$AAt?$AAd?$AAi?$AAo?$AA_?$AAo?$AAu?$AAt@ 00000001800712b0     libucrtd:output.obj
 0002:00007330       ??_C@_1BLA@MEDMHIOH@?$AA_?$AA_?$AAc?$AAr?$AAt?$AA_?$AAs?$AAt?$AAd?$AAi?$AAo?$AA_?$AAo?$AAu?$AAt@ 0000000180071330     libucrtd:output.obj
 0002:000074e0       ??_C@_1BLE@LCKPBJON@?$AA_?$AA_?$AAc?$AAr?$AAt?$AA_?$AAs?$AAt?$AAd?$AAi?$AAo?$AA_?$AAo?$AAu?$AAt@ 00000001800714e0     libucrtd:output.obj
 0002:000076a0       ??_C@_1HE@IACOMEJF@?$AA_?$AA_?$AAc?$AAr?$AAt?$AA_?$AAs?$AAt?$AAd?$AAi?$AAo?$AA_?$AAo?$AAu?$AAt@ 00000001800716a0     libucrtd:output.obj
 0002:00007720       ??_C@_1GC@BNMHNGKM@?$AA_?$AAs?$AAt?$AAa?$AAt?$AAe?$AA?5?$AA?$DN?$AA?$DN?$AA?5?$AAs?$AAt?$AAa?$AAt?$AAe@ 0000000180071720     libucrtd:output.obj
 0002:00007790       ??_C@_1BMI@DNMDMAAN@?$AA_?$AA_?$AAc?$AAr?$AAt?$AA_?$AAs?$AAt?$AAd?$AAi?$AAo?$AA_?$AAo?$AAu?$AAt@ 0000000180071790     libucrtd:output.obj
 0002:00007960       ??_C@_1BMM@JHGFKAND@?$AA_?$AA_?$AAc?$AAr?$AAt?$AA_?$AAs?$AAt?$AAd?$AAi?$AAo?$AA_?$AAo?$AAu?$AAt@ 0000000180071960     libucrtd:output.obj
 0002:00007b30       ??_C@_1CA@ONEGMNAN@?$AA_?$AAs?$AAt?$AAr?$AAe?$AAa?$AAm?$AA?4?$AAv?$AAa?$AAl?$AAi?$AAd?$AA?$CI?$AA?$CJ@ 0000000180071b30     libucrtd:output.obj
 0002:00007b50       ??_C@_1HK@MPBCDOK@?$AA_?$AA_?$AAc?$AAr?$AAt?$AA_?$AAs?$AAt?$AAd?$AAi?$AAo?$AA_?$AAo?$AAu?$AAt@ 0000000180071b50     libucrtd:output.obj
 0002:00007bd0       ??_C@_1BEC@NDOOKIMC@?$AA_?$AA_?$AAc?$AAr?$AAt?$AA_?$AAs?$AAt?$AAd?$AAi?$AAo?$AA_?$AAo?$AAu?$AAt@ 0000000180071bd0     libucrtd:output.obj
 0002:00007d20       ??_C@_1EK@PNGFDECN@?$AA?$CI?$AA?$CC?$AA?8?$AAn?$AA?8?$AA?5?$AAf?$AAo?$AAr?$AAm?$AAa?$AAt?$AA?5?$AAs?$AAp@ 0000000180071d20     libucrtd:output.obj
 0002:00007d70       ??_C@_1EO@GHKFGFKL@?$AA?$CI?$AA?$CC?$AAI?$AAn?$AAv?$AAa?$AAl?$AAi?$AAd?$AA?5?$AAi?$AAn?$AAt?$AAe?$AAg@ 0000000180071d70     libucrtd:output.obj
 0002:00007dc0       ??_C@_1BDG@KOLEFKPF@?$AA_?$AA_?$AAc?$AAr?$AAt?$AA_?$AAs?$AAt?$AAd?$AAi?$AAo?$AA_?$AAo?$AAu?$AAt@ 0000000180071dc0     libucrtd:output.obj
 0002:00007f00       ??_C@_1BMA@IHIBOLMD@?$AA_?$AA_?$AAc?$AAr?$AAt?$AA_?$AAs?$AAt?$AAd?$AAi?$AAo?$AA_?$AAo?$AAu?$AAt@ 0000000180071f00     libucrtd:output.obj
 0002:000080c0       ??_C@_1BKI@CJEIGDAI@?$AA_?$AA_?$AAc?$AAr?$AAt?$AA_?$AAs?$AAt?$AAd?$AAi?$AAo?$AA_?$AAo?$AAu?$AAt@ 00000001800720c0     libucrtd:output.obj
 0002:00008270       ??_C@_1BMA@PGOJAHFP@?$AA_?$AA_?$AAc?$AAr?$AAt?$AA_?$AAs?$AAt?$AAd?$AAi?$AAo?$AA_?$AAo?$AAu?$AAt@ 0000000180072270     libucrtd:output.obj
 0002:00008430       ??_C@_1O@CEDCILHN@?$AA?$CI?$AAn?$AAu?$AAl?$AAl?$AA?$CJ@ 0000000180072430     libucrtd:output.obj
 0002:00008440       ??_C@_06OJHGLDPL@?$CInull?$CJ@ 0000000180072440     libucrtd:output.obj
 0002:00008448       ??_C@_1CK@LGDCECDH@?$AA_?$AAf?$AAo?$AAr?$AAm?$AAa?$AAt?$AA_?$AAc?$AAh?$AAa?$AAr?$AA?5?$AA?$CB?$AA?$DN@ 0000000180072448     libucrtd:output.obj
 0002:00008480       ??_C@_1BMM@MBMBCJIF@?$AA_?$AA_?$AAc?$AAr?$AAt?$AA_?$AAs?$AAt?$AAd?$AAi?$AAo?$AA_?$AAo?$AAu?$AAt@ 0000000180072480     libucrtd:output.obj
 0002:00008650       ??_C@_1BLE@IFBJPNFE@?$AA_?$AA_?$AAc?$AAr?$AAt?$AA_?$AAs?$AAt?$AAd?$AAi?$AAo?$AA_?$AAo?$AAu?$AAt@ 0000000180072650     libucrtd:output.obj
 0002:00008810       ??_C@_1BMA@FANDDEHK@?$AA_?$AA_?$AAc?$AAr?$AAt?$AA_?$AAs?$AAt?$AAd?$AAi?$AAo?$AA_?$AAo?$AAu?$AAt@ 0000000180072810     libucrtd:output.obj
 0002:000089d0       ??_C@_1BMM@KANDEEGK@?$AA_?$AA_?$AAc?$AAr?$AAt?$AA_?$AAs?$AAt?$AAd?$AAi?$AAo?$AA_?$AAo?$AAu?$AAt@ 00000001800729d0     libucrtd:output.obj
 0002:00008ba0       ??_C@_0DI@KIFBHMNO@minkernel?2crts?2ucrt?2inc?2corecrt@ 0000000180072ba0     libucrtd:output.obj
 0002:00008be0       ??_C@_1BMK@JGIBNIA@?$AA_?$AA_?$AAc?$AAr?$AAt?$AA_?$AAs?$AAt?$AAd?$AAi?$AAo?$AA_?$AAo?$AAu?$AAt@ 0000000180072be0     libucrtd:output.obj
 0002:00008db0       ??_C@_1BLC@INKIGOCN@?$AA_?$AA_?$AAc?$AAr?$AAt?$AA_?$AAs?$AAt?$AAd?$AAi?$AAo?$AA_?$AAo?$AAu?$AAt@ 0000000180072db0     libucrtd:output.obj
 0002:00008f70       ??_C@_1BNK@KHNJGCCP@?$AA_?$AA_?$AAc?$AAr?$AAt?$AA_?$AAs?$AAt?$AAd?$AAi?$AAo?$AA_?$AAo?$AAu?$AAt@ 0000000180072f70     libucrtd:output.obj
 0002:00009150       ??_C@_1BNO@OHFFMOOJ@?$AA_?$AA_?$AAc?$AAr?$AAt?$AA_?$AAs?$AAt?$AAd?$AAi?$AAo?$AA_?$AAo?$AAu?$AAt@ 0000000180073150     libucrtd:output.obj
 0002:00009330       ??_C@_1BMC@FAGJFBLI@?$AA_?$AA_?$AAc?$AAr?$AAt?$AA_?$AAs?$AAt?$AAd?$AAi?$AAo?$AA_?$AAo?$AAu?$AAt@ 0000000180073330     libucrtd:output.obj
 0002:00009500       ??_C@_1BMG@CGPDIFDK@?$AA_?$AA_?$AAc?$AAr?$AAt?$AA_?$AAs?$AAt?$AAd?$AAi?$AAo?$AA_?$AAo?$AAu?$AAt@ 0000000180073500     libucrtd:output.obj
 0002:000096d0       ??_C@_1BNC@OHPDPPJK@?$AA_?$AA_?$AAc?$AAr?$AAt?$AA_?$AAs?$AAt?$AAd?$AAi?$AAo?$AA_?$AAo?$AAu?$AAt@ 00000001800736d0     libucrtd:output.obj
 0002:000098b0       ??_C@_1BLK@FOLFMPJH@?$AA_?$AA_?$AAc?$AAr?$AAt?$AA_?$AAs?$AAt?$AAd?$AAi?$AAo?$AA_?$AAo?$AAu?$AAt@ 00000001800738b0     libucrtd:output.obj
 0002:00009a70       ??_C@_1BNO@NAODCKFA@?$AA_?$AA_?$AAc?$AAr?$AAt?$AA_?$AAs?$AAt?$AAd?$AAi?$AAo?$AA_?$AAo?$AAu?$AAt@ 0000000180073a70     libucrtd:output.obj
 0002:00009c50       ??_C@_1BMG@BBEFGBID@?$AA_?$AA_?$AAc?$AAr?$AAt?$AA_?$AAs?$AAt?$AAd?$AAi?$AAo?$AA_?$AAo?$AAu?$AAt@ 0000000180073c50     libucrtd:output.obj
 0002:00009e20       ??_C@_1BNC@JPKLPOHO@?$AA_?$AA_?$AAc?$AAr?$AAt?$AA_?$AAs?$AAt?$AAd?$AAi?$AAo?$AA_?$AAo?$AAu?$AAt@ 0000000180073e20     libucrtd:output.obj
 0002:0000a000       ??_C@_1FE@LHBLIKM@?$AAA?$AAs?$AAs?$AAe?$AAr?$AAt?$AAi?$AAo?$AAn?$AA?5?$AAf?$AAa?$AAi?$AAl?$AAe@ 0000000180074000     libucrtd:assert.obj
 0002:0000a058       ??_C@_0BC@LAIDCHCH@Assertion?5failed?$CB@ 0000000180074058     libucrtd:assert.obj
 0002:0000a070       ??_C@_1CE@OJBNHDMO@?$AAA?$AAs?$AAs?$AAe?$AAr?$AAt?$AAi?$AAo?$AAn?$AA?5?$AAf?$AAa?$AAi?$AAl?$AAe@ 0000000180074070     libucrtd:assert.obj
 0002:0000a098       ??_C@_1BE@PHKBBGE@?$AAP?$AAr?$AAo?$AAg?$AAr?$AAa?$AAm?$AA?3?$AA?5@ 0000000180074098     libucrtd:assert.obj
 0002:0000a0b0       ??_C@_1O@HEMHKNDC@?$AAF?$AAi?$AAl?$AAe?$AA?3?$AA?5@ 00000001800740b0     libucrtd:assert.obj
 0002:0000a0c0       ??_C@_1O@KCAFKHJE@?$AAL?$AAi?$AAn?$AAe?$AA?3?$AA?5@ 00000001800740c0     libucrtd:assert.obj
 0002:0000a0d0       ??_C@_1OA@EGMLFBHJ@?$AAF?$AAo?$AAr?$AA?5?$AAi?$AAn?$AAf?$AAo?$AAr?$AAm?$AAa?$AAt?$AAi?$AAo?$AAn@ 00000001800740d0     libucrtd:assert.obj
 0002:0000a1b0       ??_C@_1HK@POCJMFGK@?$AA?$CI?$AAP?$AAr?$AAe?$AAs?$AAs?$AA?5?$AAR?$AAe?$AAt?$AAr?$AAy?$AA?5?$AAt?$AAo@ 00000001800741b0     libucrtd:assert.obj
 0002:0000a22c       ??_C@_01EEMJAFIK@?6@       000000018007422c     libucrtd:assert.obj
 0002:0000a230       ??_C@_13LBAGMAIH@?$AA?6@   0000000180074230     libucrtd:assert.obj
 0002:0000a240       ??_C@_1GE@PMLOPPED@?$AAm?$AAi?$AAn?$AAk?$AAe?$AAr?$AAn?$AAe?$AAl?$AA?2?$AAc?$AAr?$AAt?$AAs?$AA?2@ 0000000180074240     libucrtd:assert.obj
 0002:0000a2b0       ??_C@_1FE@LPBNNEBB@?$AAc?$AAo?$AAm?$AAm?$AAo?$AAn?$AA_?$AAa?$AAs?$AAs?$AAe?$AAr?$AAt?$AA_?$AAt@ 00000001800742b0     libucrtd:assert.obj
 0002:0000a310       ??_C@_1KC@PIMENJIN@?$AAt?$AAr?$AAa?$AAi?$AAt?$AAs?$AA?3?$AA?3?$AAt?$AAc?$AAs?$AAc?$AAp?$AAy?$AA_@ 0000000180074310     libucrtd:assert.obj
 0002:0000a3c0       ??_C@_1KM@HGCBPADM@?$AAt?$AAr?$AAa?$AAi?$AAt?$AAs?$AA?3?$AA?3?$AAt?$AAc?$AAs?$AAc?$AAa?$AAt?$AA_@ 00000001800743c0     libucrtd:assert.obj
 0002:0000a470       ??_C@_1KK@KDENILFB@?$AAt?$AAr?$AAa?$AAi?$AAt?$AAs?$AA?3?$AA?3?$AAt?$AAc?$AAs?$AAc?$AAa?$AAt?$AA_@ 0000000180074470     libucrtd:assert.obj
 0002:0000a520       ??_C@_1BCM@OLNPCNDL@?$AAm?$AAe?$AAm?$AAc?$AAp?$AAy?$AA_?$AAs?$AA?$CI?$AA?5?$AAp?$AAc?$AAh?$AAP?$AAr@ 0000000180074520     libucrtd:assert.obj
 0002:0000a650       ??_C@_1HM@LGKHMJCC@?$AAt?$AAr?$AAa?$AAi?$AAt?$AAs?$AA?3?$AA?3?$AAt?$AAc?$AAs?$AAc?$AAa?$AAt?$AA_@ 0000000180074650     libucrtd:assert.obj
 0002:0000a6d0       ??_C@_1JO@KJEGDHLC@?$AAt?$AAr?$AAa?$AAi?$AAt?$AAs?$AA?3?$AA?3?$AAt?$AAc?$AAs?$AAc?$AAa?$AAt?$AA_@ 00000001800746d0     libucrtd:assert.obj
 0002:0000a770       ??_C@_1KE@NJCNOBGA@?$AAt?$AAr?$AAa?$AAi?$AAt?$AAs?$AA?3?$AA?3?$AAt?$AAc?$AAs?$AAc?$AAa?$AAt?$AA_@ 0000000180074770     libucrtd:assert.obj
 0002:0000a820       ??_C@_1LC@HKLLCKBM@?$AAt?$AAr?$AAa?$AAi?$AAt?$AAs?$AA?3?$AA?3?$AAt?$AAc?$AAs?$AAn?$AAc?$AAa?$AAt@ 0000000180074820     libucrtd:assert.obj
 0002:0000a8e0       ??_C@_1KI@JBNHIIKF@?$AAt?$AAr?$AAa?$AAi?$AAt?$AAs?$AA?3?$AA?3?$AAt?$AAc?$AAs?$AAc?$AAa?$AAt?$AA_@ 00000001800748e0     libucrtd:assert.obj
 0002:0000a990       ??_C@_1IK@KKBPPOFO@?$AAt?$AAr?$AAa?$AAi?$AAt?$AAs?$AA?3?$AA?3?$AAt?$AAc?$AAs?$AAc?$AAa?$AAt?$AA_@ 0000000180074990     libucrtd:assert.obj
 0002:0000aa20       ??_C@_1LO@BFIEBOKI@?$AAt?$AAr?$AAa?$AAi?$AAt?$AAs?$AA?3?$AA?3?$AAt?$AAc?$AAs?$AAn?$AAc?$AAa?$AAt@ 0000000180074a20     libucrtd:assert.obj
 0002:0000aae0       ??_C@_1KE@OEANDPDB@?$AAt?$AAr?$AAa?$AAi?$AAt?$AAs?$AA?3?$AA?3?$AAt?$AAc?$AAs?$AAn?$AAc?$AAa?$AAt@ 0000000180074ae0     libucrtd:assert.obj
 0002:0000ab90       ??_C@_1LG@LMABGFBP@?$AAt?$AAr?$AAa?$AAi?$AAt?$AAs?$AA?3?$AA?3?$AAt?$AAc?$AAs?$AAc?$AAa?$AAt?$AA_@ 0000000180074b90     libucrtd:assert.obj
 0002:0000ac50       ??_C@_1IA@JPAKIPAA@?$AAt?$AAr?$AAa?$AAi?$AAt?$AAs?$AA?3?$AA?3?$AAt?$AAc?$AAs?$AAc?$AAa?$AAt?$AA_@ 0000000180074c50     libucrtd:assert.obj
 0002:0000acd0       ??_C@_1KE@PADDJOL@?$AAt?$AAr?$AAa?$AAi?$AAt?$AAs?$AA?3?$AA?3?$AAt?$AAc?$AAs?$AAc?$AAa?$AAt?$AA_@ 0000000180074cd0     libucrtd:assert.obj
 0002:0000ad80       ??_C@_1BAK@NPHNFBPH@?$AAt?$AAr?$AAa?$AAi?$AAt?$AAs?$AA?3?$AA?3?$AAi?$AAt?$AAo?$AAt?$AA_?$AAs?$AA?$CI@ 0000000180074d80     libucrtd:assert.obj
 0002:0000ae90       ??_C@_1LA@JOKMAPHG@?$AAt?$AAr?$AAa?$AAi?$AAt?$AAs?$AA?3?$AA?3?$AAt?$AAc?$AAs?$AAc?$AAa?$AAt?$AA_@ 0000000180074e90     libucrtd:assert.obj
 0002:0000af40       ??_C@_1LA@IFFOJJCK@?$AAt?$AAr?$AAa?$AAi?$AAt?$AAs?$AA?3?$AA?3?$AAt?$AAc?$AAs?$AAn?$AAc?$AAa?$AAt@ 0000000180074f40     libucrtd:assert.obj
 0002:0000aff0       ??_C@_1KG@MFCBNPOK@?$AAt?$AAr?$AAa?$AAi?$AAt?$AAs?$AA?3?$AA?3?$AAt?$AAc?$AAs?$AAc?$AAa?$AAt?$AA_@ 0000000180074ff0     libucrtd:assert.obj
 0002:0000b0a0       ??_C@_1IC@EDHOAOJ@?$AAt?$AAr?$AAa?$AAi?$AAt?$AAs?$AA?3?$AA?3?$AAt?$AAc?$AAs?$AAc?$AAa?$AAt?$AA_@ 00000001800750a0     libucrtd:assert.obj
 0002:0000b130       ??_C@_1KE@NALOKOIG@?$AAt?$AAr?$AAa?$AAi?$AAt?$AAs?$AA?3?$AA?3?$AAt?$AAc?$AAs?$AAc?$AAa?$AAt?$AA_@ 0000000180075130     libucrtd:assert.obj
 0002:0000b1e0       ??_C@_1KE@GGOFBC@?$AAt?$AAr?$AAa?$AAi?$AAt?$AAs?$AA?3?$AA?3?$AAt?$AAc?$AAs?$AAc?$AAa?$AAt?$AA_@ 00000001800751e0     libucrtd:assert.obj
 0002:0000b4e0       ??_C@_05KGFAIMPG@sqrtf@    00000001800754e0     libucrtd:sqrtf.obj
 0002:0000b4f0       ??_C@_1GI@BNKDKMPA@?$AAm?$AAi?$AAn?$AAk?$AAe?$AAr?$AAn?$AAe?$AAl?$AA?2?$AAc?$AAr?$AAt?$AAs?$AA?2@ 00000001800754f0     libucrtd:setlocale.obj
 0002:0000b558       ??_C@_1CA@DEKPAMPG@?$AAc?$AAa?$AAl?$AAl?$AA_?$AAw?$AAs?$AAe?$AAt?$AAl?$AAo?$AAc?$AAa?$AAl?$AAe@ 0000000180075558     libucrtd:setlocale.obj
 0002:0000b580       ??_C@_1HC@ODOEFNJK@?$AAm?$AAb?$AAs?$AAt?$AAo?$AAw?$AAc?$AAs?$AA_?$AAs?$AA?$CI?$AA?$CG?$AAs?$AAi?$AAz@ 0000000180075580     libucrtd:setlocale.obj
 0002:0000b5f8       ??_C@_0DE@PCFEELDP@minkernel?2crts?2ucrt?2src?2appcrt?2@ 00000001800755f8     libucrtd:setlocale.obj
 0002:0000b630       ??_C@_1JE@MHNHEPNK@?$AAm?$AAb?$AAs?$AAt?$AAo?$AAw?$AAc?$AAs?$AA_?$AAs?$AA?$CI?$AAn?$AAu?$AAl?$AAl@ 0000000180075630     libucrtd:setlocale.obj
 0002:0000b6d0       ??_C@_1IE@HOKOLPME@?$AAs?$AAe?$AAt?$AAl?$AAo?$AAc?$AAa?$AAl?$AAe?$AA?3?$AA?3?$AA?$DM?$AAl?$AAa?$AAm@ 00000001800756d0     libucrtd:setlocale.obj
 0002:0000b760       ??_C@_1HC@PEEAAELA@?$AA_?$AAw?$AAc?$AAs?$AAt?$AAo?$AAm?$AAb?$AAs?$AA_?$AAs?$AA_?$AAl?$AA?$CI?$AA?$CG@ 0000000180075760     libucrtd:setlocale.obj
 0002:0000b7e0       ??_C@_1JG@HLMJFODK@?$AA_?$AAw?$AAc?$AAs?$AAt?$AAo?$AAm?$AAb?$AAs?$AA_?$AAs?$AA_?$AAl?$AA?$CI?$AAn@ 00000001800757e0     libucrtd:setlocale.obj
 0002:0000b880       ??_C@_1BKK@KDHKGOLM@?$AA?$CI?$AAp?$AAt?$AAl?$AAo?$AAc?$AAi?$AA?9?$AA?$DO?$AAl?$AAc?$AA_?$AAc?$AAa?$AAt@ 0000000180075880     libucrtd:setlocale.obj
 0002:0000ba30       ??_C@_1GC@MIDGGPKO@?$AAm?$AAi?$AAn?$AAk?$AAe?$AAr?$AAn?$AAe?$AAl?$AA?2?$AAc?$AAr?$AAt?$AAs?$AA?2@ 0000000180075a30     libucrtd:wcsdup.obj
 0002:0000ba98       ??_C@_1BI@JDKFAFNF@?$AA_?$AAw?$AAc?$AAs?$AAd?$AAu?$AAp?$AA_?$AAd?$AAb?$AAg@ 0000000180075a98     libucrtd:wcsdup.obj
 0002:0000bab0       ??_C@_1FG@LKKABMLN@?$AAw?$AAc?$AAs?$AAc?$AAp?$AAy?$AA_?$AAs?$AA?$CI?$AAm?$AAe?$AAm?$AAo?$AAr?$AAy@ 0000000180075ab0     libucrtd:wcsdup.obj
 0002:0000bb10       __newctype                 0000000180075b10     libucrtd:ctype.obj
 0002:0000be10       __newclmap                 0000000180075e10     libucrtd:ctype.obj
 0002:0000bf90       __newcumap                 0000000180075f90     libucrtd:ctype.obj
 0002:0000c110       _wctype                    0000000180076110     libucrtd:ctype.obj
 0002:0000c318       ??_C@_0DE@PKCHMIOF@minkernel?2crts?2ucrt?2src?2appcrt?2@ 0000000180076318     libucrtd:initctype.obj
 0002:0000c350       ??_C@_1GI@DPHPBMAL@?$AAm?$AAi?$AAn?$AAk?$AAe?$AAr?$AAn?$AAe?$AAl?$AA?2?$AAc?$AAr?$AAt?$AAs?$AA?2@ 0000000180076350     libucrtd:initctype.obj
 0002:0000c3b8       ??_C@_1DG@NMBGBDM@?$AAp?$AAl?$AAo?$AAc?$AAi?$AA?9?$AA?$DO?$AAc?$AAt?$AAy?$AAp?$AAe?$AA1?$AA_?$AAr@ 00000001800763b8     libucrtd:initctype.obj
 0002:0000c3f0       ??_C@_1CE@JMFACANE@?$AAr?$AAe?$AAs?$AAu?$AAl?$AAt?$AA?5?$AA?$CB?$AA?$DN?$AA?5?$AAn?$AAu?$AAl?$AAl?$AAp@ 00000001800763f0     libucrtd:rand_s.obj
 0002:0000c420       ??_C@_1GC@KMMBNIEG@?$AAm?$AAi?$AAn?$AAk?$AAe?$AAr?$AAn?$AAe?$AAl?$AA?2?$AAc?$AAr?$AAt?$AAs?$AA?2@ 0000000180076420     libucrtd:rand_s.obj
 0002:0000c488       ??_C@_1O@IJGPPOGF@?$AAr?$AAa?$AAn?$AAd?$AA_?$AAs@ 0000000180076488     libucrtd:rand_s.obj
 0002:0000c498       ??_C@_0CP@GDJHIDC@minkernel?2crts?2ucrt?2src?2appcrt?2@ 0000000180076498     libucrtd:_file.obj
 0002:0000c4c8       ??_C@_1DC@OGOLMDEL@?$AAp?$AAu?$AAb?$AAl?$AAi?$AAc?$AA_?$AAs?$AAt?$AAr?$AAe?$AAa?$AAm?$AA?5?$AA?$CB@ 00000001800764c8     libucrtd:_file.obj
 0002:0000c500       ??_C@_1FO@IEGKHABE@?$AAm?$AAi?$AAn?$AAk?$AAe?$AAr?$AAn?$AAe?$AAl?$AA?2?$AAc?$AAr?$AAt?$AAs?$AA?2@ 0000000180076500     libucrtd:_file.obj
 0002:0000c560       ??_C@_1DI@PJGMCDLC@?$AA_?$AAg?$AAe?$AAt?$AA_?$AAs?$AAt?$AAr?$AAe?$AAa?$AAm?$AA_?$AAb?$AAu?$AAf@ 0000000180076560     libucrtd:_file.obj
 0002:0000c598       ??_C@_1BO@MHPFFFJJ@?$AAs?$AAt?$AAr?$AAe?$AAa?$AAm?$AA?4?$AAv?$AAa?$AAl?$AAi?$AAd?$AA?$CI?$AA?$CJ@ 0000000180076598     libucrtd:fclose.obj
 0002:0000c5c0       ??_C@_1GA@DKNOMDCL@?$AAm?$AAi?$AAn?$AAk?$AAe?$AAr?$AAn?$AAe?$AAl?$AA?2?$AAc?$AAr?$AAt?$AAs?$AA?2@ 00000001800765c0     libucrtd:fclose.obj
 0002:0000c620       ??_C@_1O@EGMJNCOI@?$AAf?$AAc?$AAl?$AAo?$AAs?$AAe@ 0000000180076620     libucrtd:fclose.obj
 0002:0000c630       ??_C@_1BO@JINCABEC@?$AA_?$AAf?$AAc?$AAl?$AAo?$AAs?$AAe?$AA_?$AAn?$AAo?$AAl?$AAo?$AAc?$AAk@ 0000000180076630     libucrtd:fclose.obj
 0002:0000c650       ??_C@_1FO@HEEKIEFN@?$AAm?$AAi?$AAn?$AAk?$AAe?$AAr?$AAn?$AAe?$AAl?$AA?2?$AAc?$AAr?$AAt?$AAs?$AA?2@ 0000000180076650     libucrtd:fgetc.obj
 0002:0000c6b0       ??_C@_1BM@ODJEACKA@?$AA_?$AAf?$AAg?$AAe?$AAt?$AAc?$AA_?$AAn?$AAo?$AAl?$AAo?$AAc?$AAk@ 00000001800766b0     libucrtd:fgetc.obj
 0002:0000c6d0       ??_C@_1M@FBFFFGJE@?$AAf?$AAg?$AAe?$AAt?$AAc@ 00000001800766d0     libucrtd:fgetc.obj
 0002:0000c6e0       ??_C@_1GC@KIBACKPA@?$AAm?$AAi?$AAn?$AAk?$AAe?$AAr?$AAn?$AAe?$AAl?$AA?2?$AAc?$AAr?$AAt?$AAs?$AA?2@ 00000001800766e0     libucrtd:fgetpos.obj
 0002:0000c748       ??_C@_1BA@PDKPGILH@?$AAf?$AAg?$AAe?$AAt?$AAp?$AAo?$AAs@ 0000000180076748     libucrtd:fgetpos.obj
 0002:0000c758       ??_C@_1CI@HCABHFJ@?$AAp?$AAo?$AAs?$AAi?$AAt?$AAi?$AAo?$AAn?$AA?5?$AA?$CB?$AA?$DN?$AA?5?$AAn?$AAu?$AAl@ 0000000180076758     libucrtd:fgetpos.obj
 0002:0000c780       ??_C@_1FO@FNOAOMLP@?$AAm?$AAi?$AAn?$AAk?$AAe?$AAr?$AAn?$AAe?$AAl?$AA?2?$AAc?$AAr?$AAt?$AAs?$AA?2@ 0000000180076780     libucrtd:fputc.obj
 0002:0000c7e0       ??_C@_1M@OIJMPNCO@?$AAf?$AAp?$AAu?$AAt?$AAc@ 00000001800767e0     libucrtd:fputc.obj
 0002:0000c7f0       ??_C@_1FO@CIJKACCM@?$AAm?$AAi?$AAn?$AAk?$AAe?$AAr?$AAn?$AAe?$AAl?$AA?2?$AAc?$AAr?$AAt?$AAs?$AA?2@ 00000001800767f0     libucrtd:fread.obj
 0002:0000c850       ??_C@_1BA@CMLCEIGG@?$AAf?$AAr?$AAe?$AAa?$AAd?$AA_?$AAs@ 0000000180076850     libucrtd:fread.obj
 0002:0000c860       ??_C@_1CE@MCCHPLBM@?$AAb?$AAu?$AAf?$AAf?$AAe?$AAr?$AA?5?$AA?$CB?$AA?$DN?$AA?5?$AAn?$AAu?$AAl?$AAl?$AAp@ 0000000180076860     libucrtd:fread.obj
 0002:0000c888       ??_C@_1CA@IDPOGFL@?$AA_?$AAf?$AAr?$AAe?$AAa?$AAd?$AA_?$AAn?$AAo?$AAl?$AAo?$AAc?$AAk?$AA_?$AAs@ 0000000180076888     libucrtd:fread.obj
 0002:0000c8b0       ??_C@_1FG@KLKDPCLL@?$AAe?$AAl?$AAe?$AAm?$AAe?$AAn?$AAt?$AA_?$AAc?$AAo?$AAu?$AAn?$AAt?$AA?5?$AA?$DM@ 00000001800768b0     libucrtd:fread.obj
 0002:0000c910       ??_C@_1LG@DCNDJCHK@?$AA?$CI?$AA?$CC?$AAI?$AAn?$AAc?$AAo?$AAn?$AAs?$AAi?$AAs?$AAt?$AAe?$AAn?$AAt?$AA?5@ 0000000180076910     libucrtd:fread.obj
 0002:0000c9c8       ??_C@_1DA@DKEFLDMG@?$AA?$CI?$AA?$CC?$AAb?$AAu?$AAf?$AAf?$AAe?$AAr?$AA?5?$AAt?$AAo?$AAo?$AA?5?$AAs?$AAm@ 00000001800769c8     libucrtd:fread.obj
 0002:0000ca00       ??_C@_1GC@FNEGPDLB@?$AAm?$AAi?$AAn?$AAk?$AAe?$AAr?$AAn?$AAe?$AAl?$AA?2?$AAc?$AAr?$AAt?$AAs?$AA?2@ 0000000180076a00     libucrtd:fsetpos.obj
 0002:0000ca68       ??_C@_1BA@IMLBNLMA@?$AAf?$AAs?$AAe?$AAt?$AAp?$AAo?$AAs@ 0000000180076a68     libucrtd:fsetpos.obj
 0002:0000ca80       ??_C@_1FO@KMPAKEKH@?$AAm?$AAi?$AAn?$AAk?$AAe?$AAr?$AAn?$AAe?$AAl?$AA?2?$AAc?$AAr?$AAt?$AAs?$AA?2@ 0000000180076a80     libucrtd:fseek.obj
 0002:0000cae0       ??_C@_1BK@HEPGDNON@?$AAc?$AAo?$AAm?$AAm?$AAo?$AAn?$AA_?$AAf?$AAs?$AAe?$AAe?$AAk@ 0000000180076ae0     libucrtd:fseek.obj
 0002:0000cb00       ??_C@_1HO@BJGCGJL@?$AAw?$AAh?$AAe?$AAn?$AAc?$AAe?$AA?5?$AA?$DN?$AA?$DN?$AA?5?$AAS?$AAE?$AAE?$AAK?$AA_@ 0000000180076b00     libucrtd:fseek.obj
 0002:0000cb80       ??_C@_1GA@JFCHAOOC@?$AAm?$AAi?$AAn?$AAk?$AAe?$AAr?$AAn?$AAe?$AAl?$AA?2?$AAc?$AAr?$AAt?$AAs?$AA?2@ 0000000180076b80     libucrtd:fwrite.obj
 0002:0000cbe0       ??_C@_1O@KLNKIMAP@?$AAf?$AAw?$AAr?$AAi?$AAt?$AAe@ 0000000180076be0     libucrtd:fwrite.obj
 0002:0000cbf0       ??_C@_1BO@JGPKCBCE@?$AA_?$AAf?$AAw?$AAr?$AAi?$AAt?$AAe?$AA_?$AAn?$AAo?$AAl?$AAo?$AAc?$AAk@ 0000000180076bf0     libucrtd:fwrite.obj
 0002:0000cc10       ??_C@_1JG@PCJFJNAC@?$AA?$CI?$AA?$CC?$AAF?$AAl?$AAu?$AAs?$AAh?$AA?5?$AAb?$AAe?$AAt?$AAw?$AAe?$AAe?$AAn@ 0000000180076c10     libucrtd:fwrite.obj
 0002:0000cca8       ??_C@_0DB@BJFCCEBD@minkernel?2crts?2ucrt?2src?2appcrt?2@ 0000000180076ca8     libucrtd:setvbuf.obj
 0002:0000cce0       ??_C@_1GC@NAMEPLDD@?$AAm?$AAi?$AAn?$AAk?$AAe?$AAr?$AAn?$AAe?$AAl?$AA?2?$AAc?$AAr?$AAt?$AAs?$AA?2@ 0000000180076ce0     libucrtd:setvbuf.obj
 0002:0000cd48       ??_C@_1BA@OGODIODK@?$AAs?$AAe?$AAt?$AAv?$AAb?$AAu?$AAf@ 0000000180076d48     libucrtd:setvbuf.obj
 0002:0000cd60       ??_C@_1GG@CBGCKJPC@?$AAt?$AAy?$AAp?$AAe?$AA?5?$AA?$DN?$AA?$DN?$AA?5?$AA_?$AAI?$AAO?$AAN?$AAB?$AAF?$AA?5@ 0000000180076d60     libucrtd:setvbuf.obj
 0002:0000cdd0       ??_C@_1HK@PBPJKDDM@?$AA2?$AA?5?$AA?$DM?$AA?$DN?$AA?5?$AAb?$AAu?$AAf?$AAf?$AAe?$AAr?$AA_?$AAs?$AAi?$AAz@ 0000000180076dd0     libucrtd:setvbuf.obj
 0002:0000ce50       ??_C@_1GA@JPJEOEOF@?$AAm?$AAi?$AAn?$AAk?$AAe?$AAr?$AAn?$AAe?$AAl?$AA?2?$AAc?$AAr?$AAt?$AAs?$AA?2@ 0000000180076e50     libucrtd:ungetc.obj
 0002:0000ceb0       ??_C@_1O@JDPLECOK@?$AAu?$AAn?$AAg?$AAe?$AAt?$AAc@ 0000000180076eb0     libucrtd:ungetc.obj
 0002:0000cec0       ??_C@_1BO@OLMLKKEA@?$AA_?$AAu?$AAn?$AAg?$AAe?$AAt?$AAc?$AA_?$AAn?$AAo?$AAl?$AAo?$AAc?$AAk@ 0000000180076ec0     libucrtd:ungetc.obj
 0002:0000ed00       ?large_power_data@?1??multiply_by_power_of_ten@__crt_strtox@@YA_NAEAUbig_integer@2@I@Z@4QBIB 0000000180078d00     libucrtd:strtod.obj
 0002:0000f610       ?large_power_indices@?1??multiply_by_power_of_ten@__crt_strtox@@YA_NAEAUbig_integer@2@I@Z@4QBUunpack_index@?1??12@YA_N0I@Z@B 0000000180079610     libucrtd:strtod.obj
 0002:0000f6a8       ?small_powers_of_ten@?1??multiply_by_power_of_ten@__crt_strtox@@YA_NAEAUbig_integer@2@I@Z@4QBIB 00000001800796a8     libucrtd:strtod.obj
 0002:0000f6d0       ??_C@_1DI@GICAMMFM@?$AA?$CI?$AA?$CC?$AAD?$AAi?$AAv?$AAi?$AAs?$AAi?$AAo?$AAn?$AA?5?$AAb?$AAy?$AA?5?$AAz@ 00000001800796d0     libucrtd:strtod.obj
 0002:0000f710       ??_C@_1GO@BFGDDONN@?$AAm?$AAi?$AAn?$AAk?$AAe?$AAr?$AAn?$AAe?$AAl?$AA?2?$AAc?$AAr?$AAt?$AAs?$AA?2@ 0000000180079710     libucrtd:strtod.obj
 0002:0000f780       ??_C@_1GE@DPGDJKLM@?$AAm?$AAi?$AAn?$AAk?$AAe?$AAr?$AAn?$AAe?$AAl?$AA?2?$AAc?$AAr?$AAt?$AAs?$AA?2@ 0000000180079780     libucrtd:strtod.obj
 0002:0000f7e8       ??_C@_1CE@BLLJFLOH@?$AAs?$AAt?$AAr?$AAi?$AAn?$AAg?$AA?5?$AA?$CB?$AA?$DN?$AA?5?$AAn?$AAu?$AAl?$AAl?$AAp@ 00000001800797e8     libucrtd:strtod.obj
 0002:0000f810       ??_C@_1CM@GJENOOEJ@?$AAc?$AA?5?$AA?$DN?$AA?$DN?$AA?5?$AA?8?$AA?2?$AA0?$AA?8?$AA?5?$AA?$HM?$AA?$HM?$AA?5?$AA?$CK?$AA_@ 0000000180079810     libucrtd:strtod.obj
 0002:0000f840       ??_C@_1HA@CONLANFI@?$AA_?$AA_?$AAc?$AAr?$AAt?$AA_?$AAs?$AAt?$AAr?$AAt?$AAo?$AAx?$AA?3?$AA?3?$AAc@ 0000000180079840     libucrtd:strtod.obj
 0002:0000f8b0       ??_C@_1BM@PNEBBBDO@?$AA_?$AAp?$AA?5?$AA?$CB?$AA?$DN?$AA?5?$AAn?$AAu?$AAl?$AAl?$AAp?$AAt?$AAr@ 00000001800798b0     libucrtd:strtod.obj
 0002:0000f8d0       ??_C@_1HG@FCDBLOEG@?$AA_?$AA_?$AAc?$AAr?$AAt?$AA_?$AAs?$AAt?$AAr?$AAt?$AAo?$AAx?$AA?3?$AA?3?$AAc@ 00000001800798d0     libucrtd:strtod.obj
 0002:0000f950       ??_C@_1GK@MNHIDABG@?$AA_?$AA_?$AAc?$AAr?$AAt?$AA_?$AAs?$AAt?$AAr?$AAt?$AAo?$AAx?$AA?3?$AA?3?$AAc@ 0000000180079950     libucrtd:strtod.obj
 0002:0000f9c0       ??_C@_1HA@MKKIHBHP@?$AA_?$AA_?$AAc?$AAr?$AAt?$AA_?$AAs?$AAt?$AAr?$AAt?$AAo?$AAx?$AA?3?$AA?3?$AAc@ 00000001800799c0     libucrtd:strtod.obj
 0002:0000fa30       ??_C@_1DA@LLLMNMKI@?$AAa?$AAb?$AAo?$AAr?$AAt?$AA?$CI?$AA?$CJ?$AA?5?$AAh?$AAa?$AAs?$AA?5?$AAb?$AAe?$AAe@ 0000000180079a30     libucrtd:abort.obj
 0002:0000fab0       ??_C@_0DI@DNFGFCIK@minkernel?2crts?2ucrt?2inc?2corecrt@ 0000000180079ab0     libucrtd:strftime.obj
 0002:0000faf0       __acrt_exception_action_table 0000000180079af0     libucrtd:exception_filter.obj
 0002:0000fbb0       __acrt_signal_action_table_count 0000000180079bb0     libucrtd:exception_filter.obj
 0002:0000fbb8       __acrt_signal_action_first_fpe_index 0000000180079bb8     libucrtd:exception_filter.obj
 0002:0000fbc0       __acrt_signal_action_fpe_count 0000000180079bc0     libucrtd:exception_filter.obj
 0002:0000fbc8       ??_C@_1BI@BGOHAHKC@?$AAm?$AAs?$AAc?$AAo?$AAr?$AAe?$AAe?$AA?4?$AAd?$AAl?$AAl@ 0000000180079bc8     libucrtd:exit.obj
 0002:0000fbe0       ??_C@_0P@MIGLKIOC@CorExitProcess@ 0000000180079be0     libucrtd:exit.obj
 0002:0000fbf0       ??_C@_0DI@KNDIGDEP@minkernel?2crts?2ucrt?2src?2appcrt?2@ 0000000180079bf0     libucrtd:argv_parsing.obj
 0002:0000fc30       ??_C@_1JO@PGBIJBAM@?$AAm?$AAo?$AAd?$AAe?$AA?5?$AA?$DN?$AA?$DN?$AA?5?$AA_?$AAc?$AAr?$AAt?$AA_?$AAa?$AAr@ 0000000180079c30     libucrtd:argv_parsing.obj
 0002:0000fcd0       ??_C@_1HA@JMLCANEE@?$AAm?$AAi?$AAn?$AAk?$AAe?$AAr?$AAn?$AAe?$AAl?$AA?2?$AAc?$AAr?$AAt?$AAs?$AA?2@ 0000000180079cd0     libucrtd:argv_parsing.obj
 0002:0000fd40       ??_C@_1CM@LHOJELIC@?$AAc?$AAo?$AAm?$AAm?$AAo?$AAn?$AA_?$AAc?$AAo?$AAn?$AAf?$AAi?$AAg?$AAu?$AAr@ 0000000180079d40     libucrtd:argv_parsing.obj
 0002:0000fd70       ??_C@_0EG@LEHKHOEH@minkernel?2crts?2ucrt?2src?2desktop@ 0000000180079d70     libucrtd:environment_initialization.obj
 0002:0000fdc0       ??_C@_1IM@IMOFFPLG@?$AAm?$AAi?$AAn?$AAk?$AAe?$AAr?$AAn?$AAe?$AAl?$AA?2?$AAc?$AAr?$AAt?$AAs?$AA?2@ 0000000180079dc0     libucrtd:environment_initialization.obj
 0002:0000fe50       ??_C@_1CG@MNNNBNAK@?$AAc?$AAr?$AAe?$AAa?$AAt?$AAe?$AA_?$AAe?$AAn?$AAv?$AAi?$AAr?$AAo?$AAn?$AAm@ 0000000180079e50     libucrtd:environment_initialization.obj
 0002:0000fe80       ??_C@_1HI@OOPIFFGA@?$AAt?$AAr?$AAa?$AAi?$AAt?$AAs?$AA?3?$AA?3?$AAt?$AAc?$AAs?$AAc?$AAp?$AAy?$AA_@ 0000000180079e80     libucrtd:environment_initialization.obj
 0002:0000ff20       ??_C@_0DC@NBHMIIKL@minkernel?2crts?2ucrt?2src?2appcrt?2@ 0000000180079f20     libucrtd:onexit.obj
 0002:00010060       ??_C@_1GI@BBAEIKL@?$AA?$CI?$AA?$CI?$AAd?$AAe?$AAs?$AAt?$AAi?$AAn?$AAa?$AAt?$AAi?$AAo?$AAn?$AA?$CJ?$AA?$CJ@ 000000018007a060     libucrtd:strcpy_s.obj
 0002:000100d0       ??_C@_1HI@PBJPCEBC@?$AAm?$AAi?$AAn?$AAk?$AAe?$AAr?$AAn?$AAe?$AAl?$AA?2?$AAc?$AAr?$AAt?$AAs?$AA?2@ 000000018007a0d0     libucrtd:strcpy_s.obj
 0002:00010148       ??_C@_1CA@FHIAGDFH@?$AAc?$AAo?$AAm?$AAm?$AAo?$AAn?$AA_?$AAt?$AAc?$AAs?$AAc?$AAp?$AAy?$AA_?$AAs@ 000000018007a148     libucrtd:strcpy_s.obj
 0002:00010168       ??_C@_1CK@EIOKGPJL@?$AA?$CI?$AA?$CI?$AA?$CI?$AAs?$AAo?$AAu?$AAr?$AAc?$AAe?$AA?$CJ?$AA?$CJ?$AA?$CJ?$AA?5?$AA?$CB?$AA?$DN@ 000000018007a168     libucrtd:strcpy_s.obj
 0002:00010198       ??_C@_1CI@HCPHDDLE@?$AAB?$AAu?$AAf?$AAf?$AAe?$AAr?$AA?5?$AAi?$AAs?$AA?5?$AAt?$AAo?$AAo?$AA?5?$AAs@ 000000018007a198     libucrtd:strcpy_s.obj
 0002:000101c0       ??_C@_1DM@MADKGDLO@?$AA?$CI?$AAL?$AA?$CC?$AAB?$AAu?$AAf?$AAf?$AAe?$AAr?$AA?5?$AAi?$AAs?$AA?5?$AAt?$AAo@ 000000018007a1c0     libucrtd:strcpy_s.obj
 0002:00010200       ??_C@_1EO@MLJCKPIB@?$AAb?$AAa?$AAs?$AAe?$AA?5?$AA?$DN?$AA?$DN?$AA?5?$AA0?$AA?5?$AA?$HM?$AA?$HM?$AA?5?$AA?$CI?$AA2@ 000000018007a200     libucrtd:atox.obj
 0002:00010250       ??_C@_1DI@BANODKFL@?$AA_?$AA_?$AAc?$AAr?$AAt?$AA_?$AAs?$AAt?$AAr?$AAt?$AAo?$AAx?$AA?3?$AA?3?$AAp@ 000000018007a250     libucrtd:atox.obj
 0002:00010288       ??_C@_0DM@DKIFNNOL@minkernel?2crts?2ucrt?2src?2appcrt?2@ 000000018007a288     libucrtd:per_thread_data.obj
 0002:000102c8       ??_C@_1CI@JELMFMDH@?$AAc?$AA?5?$AA?$DO?$AA?$DN?$AA?5?$AA?9?$AA1?$AA?5?$AA?$CG?$AA?$CG?$AA?5?$AAc?$AA?5?$AA?$DM?$AA?$DN@ 000000018007a2c8     libucrtd:isctype.obj
 0002:000102f0       ??_C@_1GG@KPBGDFHJ@?$AAm?$AAi?$AAn?$AAk?$AAe?$AAr?$AAn?$AAe?$AAl?$AA?2?$AAc?$AAr?$AAt?$AAs?$AA?2@ 000000018007a2f0     libucrtd:isctype.obj
 0002:00010360       ??_C@_1FO@GEKPJHID@?$AAm?$AAi?$AAn?$AAk?$AAe?$AAr?$AAn?$AAe?$AAl?$AA?2?$AAc?$AAr?$AAt?$AAs?$AA?2@ 000000018007a360     libucrtd:expand.obj
 0002:000103c0       ??_C@_1BK@JMCGJOCC@?$AA_?$AAe?$AAx?$AAp?$AAa?$AAn?$AAd?$AA_?$AAb?$AAa?$AAs?$AAe@ 000000018007a3c0     libucrtd:expand.obj
 0002:00010460       __lc_category              000000018007a460     libucrtd:wsetlocale.obj
 0002:000104f0       ??_C@_1O@GIFLHMA@?$AAL?$AAC?$AA_?$AAA?$AAL?$AAL@ 000000018007a4f0     libucrtd:wsetlocale.obj
 0002:00010500       ??_C@_1BG@PPOMIBNJ@?$AAL?$AAC?$AA_?$AAC?$AAO?$AAL?$AAL?$AAA?$AAT?$AAE@ 000000018007a500     libucrtd:wsetlocale.obj
 0002:00010518       ??_C@_1BC@FFJGAPJM@?$AAL?$AAC?$AA_?$AAC?$AAT?$AAY?$AAP?$AAE@ 000000018007a518     libucrtd:wsetlocale.obj
 0002:00010530       ??_C@_1BI@PCKFNJFB@?$AAL?$AAC?$AA_?$AAM?$AAO?$AAN?$AAE?$AAT?$AAA?$AAR?$AAY@ 000000018007a530     libucrtd:wsetlocale.obj
 0002:00010548       ??_C@_1BG@ENIEDKID@?$AAL?$AAC?$AA_?$AAN?$AAU?$AAM?$AAE?$AAR?$AAI?$AAC@ 000000018007a548     libucrtd:wsetlocale.obj
 0002:00010560       ??_C@_1BA@HAAOMIIG@?$AAL?$AAC?$AA_?$AAT?$AAI?$AAM?$AAE@ 000000018007a560     libucrtd:wsetlocale.obj
 0002:00010570       ??_C@_1GK@DPKNLBIE@?$AAm?$AAi?$AAn?$AAk?$AAe?$AAr?$AAn?$AAe?$AAl?$AA?2?$AAc?$AAr?$AAt?$AAs?$AA?2@ 000000018007a570     libucrtd:wsetlocale.obj
 0002:000105e0       ??_C@_0DF@MKMHJGEJ@minkernel?2crts?2ucrt?2src?2appcrt?2@ 000000018007a5e0     libucrtd:wsetlocale.obj
 0002:00010620       ??_C@_1FG@OHLFEKMC@?$AAL?$AAC?$AA_?$AAM?$AAI?$AAN?$AA?5?$AA?$DM?$AA?$DN?$AA?5?$AA_?$AAc?$AAa?$AAt?$AAe@ 000000018007a620     libucrtd:wsetlocale.obj
 0002:00010678       ??_C@_1BI@KJNPAEHL@?$AA_?$AAw?$AAs?$AAe?$AAt?$AAl?$AAo?$AAc?$AAa?$AAl?$AAe@ 000000018007a678     libucrtd:wsetlocale.obj
 0002:00010690       ??_C@_15NBPDDFIP@?$AA?$DN?$AA?$DL@ 000000018007a690     libucrtd:wsetlocale.obj
 0002:00010698       ??_C@_13PJJBFPED@?$AA?$DL@ 000000018007a698     libucrtd:wsetlocale.obj
 0002:000106a0       ??_C@_1CG@DKJCBBPP@?$AA_?$AAw?$AAs?$AAe?$AAt?$AAl?$AAo?$AAc?$AAa?$AAl?$AAe?$AA_?$AAn?$AAo?$AAl@ 000000018007a6a0     libucrtd:wsetlocale.obj
 0002:000106d0       ??_C@_1IG@NGDCPCDE@?$AAw?$AAc?$AAs?$AAn?$AAc?$AAp?$AAy?$AA_?$AAs?$AA?$CI?$AAl?$AAc?$AAt?$AAe?$AAm@ 000000018007a6d0     libucrtd:wsetlocale.obj
 0002:00010758       ??_C@_1CI@ODOPEMNJ@?$AA_?$AAw?$AAs?$AAe?$AAt?$AAl?$AAo?$AAc?$AAa?$AAl?$AAe?$AA_?$AAs?$AAe?$AAt@ 000000018007a758     libucrtd:wsetlocale.obj
 0002:00010780       ??_C@_1EM@MHOCNIAA@?$AAw?$AAc?$AAs?$AAc?$AAp?$AAy?$AA_?$AAs?$AA?$CI?$AAp?$AAc?$AAh?$AA_?$AAc?$AAa@ 000000018007a780     libucrtd:wsetlocale.obj
 0002:000107cc       ??_C@_13NMPKAAJP@?$AA?$DN@ 000000018007a7cc     libucrtd:wsetlocale.obj
 0002:000107d0       ??_C@_1CI@LKOPFFBD@?$AA_?$AAw?$AAs?$AAe?$AAt?$AAl?$AAo?$AAc?$AAa?$AAl?$AAe?$AA_?$AAg?$AAe?$AAt@ 000000018007a7d0     libucrtd:wsetlocale.obj
 0002:000107f8       ??_C@_1DC@HMLJMODP@?$AAw?$AAc?$AAs?$AAc?$AAa?$AAt?$AA_?$AAs?$AA?$CI?$AAp?$AAc?$AAh?$AA?0?$AA?5?$AAc@ 000000018007a7f8     libucrtd:wsetlocale.obj
 0002:00010830       ??_C@_1CK@ENLABMHL@?$AAp?$AAa?$AAr?$AAs?$AAe?$AA_?$AAb?$AAc?$AAp?$AA4?$AA7?$AA_?$AAl?$AAa?$AAn@ 000000018007a830     libucrtd:wsetlocale.obj
 0002:00010860       ??_C@_1NM@HLCCHHMI@?$AAw?$AAc?$AAs?$AAn?$AAc?$AAp?$AAy?$AA_?$AAs?$AA?$CI?$AAn?$AAa?$AAm?$AAe?$AAs@ 000000018007a860     libucrtd:wsetlocale.obj
 0002:00010940       ??_C@_1OE@CBMMNIKI@?$AAw?$AAc?$AAs?$AAn?$AAc?$AAp?$AAy?$AA_?$AAs?$AA?$CI?$AAn?$AAa?$AAm?$AAe?$AAs@ 000000018007a940     libucrtd:wsetlocale.obj
 0002:00010a28       ??_C@_1CG@EJAKMGFL@?$AAp?$AAa?$AAr?$AAs?$AAe?$AA_?$AAb?$AAc?$AAp?$AA4?$AA7?$AA_?$AAs?$AAc?$AAr@ 000000018007aa28     libucrtd:wsetlocale.obj
 0002:00010a50       ??_C@_1LM@BMOGFEFE@?$AAw?$AAc?$AAs?$AAn?$AAc?$AAa?$AAt?$AA_?$AAs?$AA?$CI?$AAn?$AAa?$AAm?$AAe?$AAs@ 000000018007aa50     libucrtd:wsetlocale.obj
 0002:00010b10       ??_C@_1OE@EBFAEEFC@?$AAw?$AAc?$AAs?$AAn?$AAc?$AAa?$AAt?$AA_?$AAs?$AA?$CI?$AAn?$AAa?$AAm?$AAe?$AAs@ 000000018007ab10     libucrtd:wsetlocale.obj
 0002:00010bf8       ??_C@_1CG@DHJLMPNE@?$AAp?$AAa?$AAr?$AAs?$AAe?$AA_?$AAb?$AAc?$AAp?$AA4?$AA7?$AA_?$AAr?$AAe?$AAg@ 000000018007abf8     libucrtd:wsetlocale.obj
 0002:00010c20       ??_C@_1NI@HCNCOMAB@?$AAw?$AAc?$AAs?$AAn?$AAc?$AAp?$AAy?$AA_?$AAs?$AA?$CI?$AAn?$AAa?$AAm?$AAe?$AAs@ 000000018007ac20     libucrtd:wsetlocale.obj
 0002:00010cf8       ??_C@_1CM@BFJANLBJ@?$AAp?$AAa?$AAr?$AAs?$AAe?$AA_?$AAb?$AAc?$AAp?$AA4?$AA7?$AA_?$AAc?$AAo?$AAd@ 000000018007acf8     libucrtd:wsetlocale.obj
 0002:00010d30       ??_C@_1NM@EHBAOOJF@?$AAw?$AAc?$AAs?$AAn?$AAc?$AAp?$AAy?$AA_?$AAs?$AA?$CI?$AAn?$AAa?$AAm?$AAe?$AAs@ 000000018007ad30     libucrtd:wsetlocale.obj
 0002:00010e10       ??_C@_17EFJLDFDO@?$AA?9?$AA_?$AA?4@ 000000018007ae10     libucrtd:wsetlocale.obj
 0002:00010e20       ??_C@_1IC@GOFECMPC@?$AA_?$AAe?$AAx?$AAp?$AAa?$AAn?$AAd?$AAl?$AAo?$AAc?$AAa?$AAl?$AAe?$AA_?$AAl@ 000000018007ae20     libucrtd:wsetlocale.obj
 0002:00010eb0       ??_C@_1BCI@NFIGLKLE@?$AAw?$AAc?$AAs?$AAn?$AAc?$AAp?$AAy?$AA_?$AAs?$AA?$CI?$AAl?$AAo?$AAc?$AAa?$AAl@ 000000018007aeb0     libucrtd:wsetlocale.obj
 0002:00010fe0       ??_C@_1IE@NLIFNJDL@?$AA_?$AAe?$AAx?$AAp?$AAa?$AAn?$AAd?$AAl?$AAo?$AAc?$AAa?$AAl?$AAe?$AA_?$AAl@ 000000018007afe0     libucrtd:wsetlocale.obj
 0002:00011070       ??_C@_1BDA@BKILNJJG@?$AAw?$AAc?$AAs?$AAn?$AAc?$AAp?$AAy?$AA_?$AAs?$AA?$CI?$AA_?$AAp?$AAs?$AAe?$AAt@ 000000018007b070     libucrtd:wsetlocale.obj
 0002:000111a0       ??_C@_1GI@FBIHHKPD@?$AA_?$AAe?$AAx?$AAp?$AAa?$AAn?$AAd?$AAl?$AAo?$AAc?$AAa?$AAl?$AAe?$AA_?$AAl@ 000000018007b1a0     libucrtd:wsetlocale.obj
 0002:00011210       ??_C@_1BCM@CLIFPJEI@?$AAw?$AAc?$AAs?$AAn?$AAc?$AAp?$AAy?$AA_?$AAs?$AA?$CI?$AA_?$AAp?$AAs?$AAe?$AAt@ 000000018007b210     libucrtd:wsetlocale.obj
 0002:00011340       ??_C@_1JE@NMNMNJCJ@?$AA_?$AAe?$AAx?$AAp?$AAa?$AAn?$AAd?$AAl?$AAo?$AAc?$AAa?$AAl?$AAe?$AA_?$AAl@ 000000018007b340     libucrtd:wsetlocale.obj
 0002:000113e0       ??_C@_1LM@FAJKEGBG@?$AAw?$AAc?$AAs?$AAn?$AAc?$AAp?$AAy?$AA_?$AAs?$AA?$CI?$AA_?$AAl?$AAo?$AAc?$AAa@ 000000018007b3e0     libucrtd:wsetlocale.obj
 0002:000114a0       ??_C@_1BM@OIIBLEFG@?$AA_?$AAe?$AAx?$AAp?$AAa?$AAn?$AAd?$AAl?$AAo?$AAc?$AAa?$AAl?$AAe@ 000000018007b4a0     libucrtd:wsetlocale.obj
 0002:000114c0       ??_C@_1EI@OCINLCHN@?$AAw?$AAc?$AAs?$AAc?$AAp?$AAy?$AA_?$AAs?$AA?$CI?$AAo?$AAu?$AAt?$AAp?$AAu?$AAt@ 000000018007b4c0     libucrtd:wsetlocale.obj
 0002:00011508       ??_C@_13FHBKNHDA@?$AAC@    000000018007b508     libucrtd:wsetlocale.obj
 0002:00011510       ??_C@_1IG@MKDIEKFD@?$AAw?$AAc?$AAs?$AAn?$AAc?$AAp?$AAy?$AA_?$AAs?$AA?$CI?$AAc?$AAa?$AAc?$AAh?$AAe@ 000000018007b510     libucrtd:wsetlocale.obj
 0002:000115a0       ??_C@_1IC@FCCDBGLL@?$AAw?$AAc?$AAs?$AAn?$AAc?$AAp?$AAy?$AA_?$AAs?$AA?$CI?$AAc?$AAa?$AAc?$AAh?$AAe@ 000000018007b5a0     libucrtd:wsetlocale.obj
 0002:00011630       ??_C@_1FA@HOOAAHFF@?$AAw?$AAc?$AAs?$AAc?$AAp?$AAy?$AA_?$AAs?$AA?$CI?$AAo?$AAu?$AAt?$AAp?$AAu?$AAt@ 000000018007b630     libucrtd:wsetlocale.obj
 0002:00011680       ??_C@_1BC@LEOKFFML@?$AA_?$AAw?$AAc?$AAs?$AAc?$AAa?$AAt?$AAs@ 000000018007b680     libucrtd:wsetlocale.obj
 0002:000116a0       ??_C@_1CAG@PIBCFPMG@?$AAw?$AAc?$AAs?$AAc?$AAa?$AAt?$AA_?$AAs?$AA?$CI?$AAo?$AAu?$AAt?$AAs?$AAt?$AAr@ 000000018007b6a0     libucrtd:wsetlocale.obj
 0002:000118a8       ??_C@_1BK@GNCHCGCN@?$AA_?$AA_?$AAl?$AAc?$AA_?$AAw?$AAc?$AAs?$AAt?$AAo?$AAl?$AAc@ 000000018007b8a8     libucrtd:wsetlocale.obj
 0002:000118d0       ??_C@_1MI@MGHKCMFH@?$AAw?$AAc?$AAs?$AAn?$AAc?$AAp?$AAy?$AA_?$AAs?$AA?$CI?$AAn?$AAa?$AAm?$AAe?$AAs@ 000000018007b8d0     libucrtd:wsetlocale.obj
 0002:00011998       ??_C@_17MBJJLFDM@?$AA_?$AA?4?$AA?0@ 000000018007b998     libucrtd:wsetlocale.obj
 0002:000119a0       ??_C@_1LO@GGCCDNLJ@?$AAw?$AAc?$AAs?$AAn?$AAc?$AAp?$AAy?$AA_?$AAs?$AA?$CI?$AAn?$AAa?$AAm?$AAe?$AAs@ 000000018007b9a0     libucrtd:wsetlocale.obj
 0002:00011a60       ??_C@_1LK@JOIOCOID@?$AAw?$AAc?$AAs?$AAn?$AAc?$AAp?$AAy?$AA_?$AAs?$AA?$CI?$AAn?$AAa?$AAm?$AAe?$AAs@ 000000018007ba60     libucrtd:wsetlocale.obj
 0002:00011b20       ??_C@_1LO@OJICFEP@?$AAw?$AAc?$AAs?$AAn?$AAc?$AAp?$AAy?$AA_?$AAs?$AA?$CI?$AAn?$AAa?$AAm?$AAe?$AAs@ 000000018007bb20     libucrtd:wsetlocale.obj
 0002:00011be0       ??_C@_1BK@HEBMGPEK@?$AA_?$AA_?$AAl?$AAc?$AA_?$AAl?$AAc?$AAt?$AAo?$AAw?$AAc?$AAs@ 000000018007bbe0     libucrtd:wsetlocale.obj
 0002:00011c00       ??_C@_1GM@FOFMGOEK@?$AAw?$AAc?$AAs?$AAc?$AAp?$AAy?$AA_?$AAs?$AA?$CI?$AAl?$AAo?$AAc?$AAa?$AAl?$AAe@ 000000018007bc00     libucrtd:wsetlocale.obj
 0002:00011c6c       ??_C@_13ENNFDPBH@?$AA_@    000000018007bc6c     libucrtd:wsetlocale.obj
 0002:00011c70       ??_C@_13JOFGPIOO@?$AA?4@   000000018007bc70     libucrtd:wsetlocale.obj
 0002:00011c78       ??_C@_1DA@BBIOOKDN@?$AA_?$AA_?$AAa?$AAc?$AAr?$AAt?$AA_?$AAc?$AAo?$AAp?$AAy?$AA_?$AAl?$AAo?$AAc@ 000000018007bc78     libucrtd:wsetlocale.obj
 0002:00011cb0       ??_C@_1GI@HBNMCKGD@?$AAw?$AAc?$AAs?$AAn?$AAc?$AAp?$AAy?$AA_?$AAs?$AA?$CI?$AAl?$AAo?$AAc?$AAa?$AAl@ 000000018007bcb0     libucrtd:wsetlocale.obj
 0002:00011d20       __lc_time_c                000000018007bd20     libucrtd:nlsdata.obj
 0002:00011fe0       ??_C@_03KOEHGMDN@Sun@      000000018007bfe0     libucrtd:nlsdata.obj
 0002:00011fe4       ??_C@_03PDAGKDH@Mon@       000000018007bfe4     libucrtd:nlsdata.obj
 0002:00011fe8       ??_C@_03NAGEINEP@Tue@      000000018007bfe8     libucrtd:nlsdata.obj
 0002:00011fec       ??_C@_03MHOMLAJA@Wed@      000000018007bfec     libucrtd:nlsdata.obj
 0002:00011ff0       ??_C@_03IOFIKPDN@Thu@      000000018007bff0     libucrtd:nlsdata.obj
 0002:00011ff4       ??_C@_03IDIOELNC@Fri@      000000018007bff4     libucrtd:nlsdata.obj
 0002:00011ff8       ??_C@_03FEFJNEK@Sat@       000000018007bff8     libucrtd:nlsdata.obj
 0002:00011ffc       ??_C@_06OOPIFAJ@Sunday@    000000018007bffc     libucrtd:nlsdata.obj
 0002:00012004       ??_C@_06JLEDEDGH@Monday@   000000018007c004     libucrtd:nlsdata.obj
 0002:00012010       ??_C@_07BAAGCFCM@Tuesday@  000000018007c010     libucrtd:nlsdata.obj
 0002:00012018       ??_C@_09DLIGFAKA@Wednesday@ 000000018007c018     libucrtd:nlsdata.obj
 0002:00012028       ??_C@_08HACCIKIA@Thursday@ 000000018007c028     libucrtd:nlsdata.obj
 0002:00012034       ??_C@_06JECMNKMI@Friday@   000000018007c034     libucrtd:nlsdata.obj
 0002:00012040       ??_C@_08INBOOONO@Saturday@ 000000018007c040     libucrtd:nlsdata.obj
 0002:0001204c       ??_C@_03JIHJHPIE@Jan@      000000018007c04c     libucrtd:nlsdata.obj
 0002:00012050       ??_C@_03HJBDCHOM@Feb@      000000018007c050     libucrtd:nlsdata.obj
 0002:00012054       ??_C@_03ODNJBKGA@Mar@      000000018007c054     libucrtd:nlsdata.obj
 0002:00012058       ??_C@_03LEOLGMJP@Apr@      000000018007c058     libucrtd:nlsdata.obj
 0002:0001205c       ??_C@_03CNMDKL@May@        000000018007c05c     libucrtd:nlsdata.obj
 0002:00012060       ??_C@_03IDFGHECI@Jun@      000000018007c060     libucrtd:nlsdata.obj
 0002:00012064       ??_C@_03LBGABGKK@Jul@      000000018007c064     libucrtd:nlsdata.obj
 0002:00012068       ??_C@_03IFJFEIGA@Aug@      000000018007c068     libucrtd:nlsdata.obj
 0002:0001206c       ??_C@_03GGCAPAJC@Sep@      000000018007c06c     libucrtd:nlsdata.obj
 0002:00012070       ??_C@_03BMAOKBAD@Oct@      000000018007c070     libucrtd:nlsdata.obj
 0002:00012074       ??_C@_03JPJOFNIA@Nov@      000000018007c074     libucrtd:nlsdata.obj
 0002:00012078       ??_C@_03MKABNOCG@Dec@      000000018007c078     libucrtd:nlsdata.obj
 0002:00012080       ??_C@_07CGJPFGJA@January@  000000018007c080     libucrtd:nlsdata.obj
 0002:00012088       ??_C@_08GNJGEPFN@February@ 000000018007c088     libucrtd:nlsdata.obj
 0002:00012094       ??_C@_05HPCKOFNC@March@    000000018007c094     libucrtd:nlsdata.obj
 0002:0001209c       ??_C@_05DMJDNLEJ@April@    000000018007c09c     libucrtd:nlsdata.obj
 0002:000120a4       ??_C@_04CNLMGBGM@June@     000000018007c0a4     libucrtd:nlsdata.obj
 0002:000120ac       ??_C@_04MIEPOIFP@July@     000000018007c0ac     libucrtd:nlsdata.obj
 0002:000120b4       ??_C@_06LBBHFDDG@August@   000000018007c0b4     libucrtd:nlsdata.obj
 0002:000120c0       ??_C@_09BHHEALKD@September@ 000000018007c0c0     libucrtd:nlsdata.obj
 0002:000120d0       ??_C@_07JJNFCEND@October@  000000018007c0d0     libucrtd:nlsdata.obj
 0002:000120d8       ??_C@_08HCHEGEOA@November@ 000000018007c0d8     libucrtd:nlsdata.obj
 0002:000120e8       ??_C@_08EDHMEBNP@December@ 000000018007c0e8     libucrtd:nlsdata.obj
 0002:000120f4       ??_C@_02DEDBPAFC@AM@       000000018007c0f4     libucrtd:nlsdata.obj
 0002:000120f8       ??_C@_02CJNFDJBF@PM@       000000018007c0f8     libucrtd:nlsdata.obj
 0002:00012100       ??_C@_08BPBNCDIB@MM?1dd?1yy@ 000000018007c100     libucrtd:nlsdata.obj
 0002:00012110       ??_C@_0BE@CKGJFCPC@dddd?0?5MMMM?5dd?0?5yyyy@ 000000018007c110     libucrtd:nlsdata.obj
 0002:00012128       ??_C@_08JCCMCCIL@HH?3mm?3ss@ 000000018007c128     libucrtd:nlsdata.obj
 0002:00012138       ??_C@_17MBGCMIPB@?$AAS?$AAu?$AAn@ 000000018007c138     libucrtd:nlsdata.obj
 0002:00012140       ??_C@_17KBOMKBF@?$AAM?$AAo?$AAn@ 000000018007c140     libucrtd:nlsdata.obj
 0002:00012148       ??_C@_17BMKGEGOJ@?$AAT?$AAu?$AAe@ 000000018007c148     libucrtd:nlsdata.obj
 0002:00012150       ??_C@_17CJEDCEPE@?$AAW?$AAe?$AAd@ 000000018007c150     libucrtd:nlsdata.obj
 0002:00012158       ??_C@_17PDPHAADD@?$AAT?$AAh?$AAu@ 000000018007c158     libucrtd:nlsdata.obj
 0002:00012160       ??_C@_17HFOLPPLP@?$AAF?$AAr?$AAi@ 000000018007c160     libucrtd:nlsdata.obj
 0002:00012168       ??_C@_17GGIBDPIH@?$AAS?$AAa?$AAt@ 000000018007c168     libucrtd:nlsdata.obj
 0002:00012170       ??_C@_1O@IHNHDHPB@?$AAS?$AAu?$AAn?$AAd?$AAa?$AAy@ 000000018007c170     libucrtd:nlsdata.obj
 0002:00012180       ??_C@_1O@MMNBFLIA@?$AAM?$AAo?$AAn?$AAd?$AAa?$AAy@ 000000018007c180     libucrtd:nlsdata.obj
 0002:00012190       ??_C@_1BA@ENFBFFEK@?$AAT?$AAu?$AAe?$AAs?$AAd?$AAa?$AAy@ 000000018007c190     libucrtd:nlsdata.obj
 0002:000121a0       ??_C@_1BE@EBOGMDOH@?$AAW?$AAe?$AAd?$AAn?$AAe?$AAs?$AAd?$AAa?$AAy@ 000000018007c1a0     libucrtd:nlsdata.obj
 0002:000121b8       ??_C@_1BC@HHMNLIHE@?$AAT?$AAh?$AAu?$AAr?$AAs?$AAd?$AAa?$AAy@ 000000018007c1b8     libucrtd:nlsdata.obj
 0002:000121d0       ??_C@_1O@PDICJHAG@?$AAF?$AAr?$AAi?$AAd?$AAa?$AAy@ 000000018007c1d0     libucrtd:nlsdata.obj
 0002:000121e0       ??_C@_1BC@ENMNNPAJ@?$AAS?$AAa?$AAt?$AAu?$AAr?$AAd?$AAa?$AAy@ 000000018007c1e0     libucrtd:nlsdata.obj
 0002:000121f8       ??_C@_17DKNBKCHM@?$AAJ?$AAa?$AAn@ 000000018007c1f8     libucrtd:nlsdata.obj
 0002:00012200       ??_C@_17LMDJEKJN@?$AAF?$AAe?$AAb@ 000000018007c200     libucrtd:nlsdata.obj
 0002:00012208       ??_C@_17CKNLEDEC@?$AAM?$AAa?$AAr@ 000000018007c208     libucrtd:nlsdata.obj
 0002:00012210       ??_C@_17LFPOIHDD@?$AAA?$AAp?$AAr@ 000000018007c210     libucrtd:nlsdata.obj
 0002:00012218       ??_C@_17PNNKMEED@?$AAM?$AAa?$AAy@ 000000018007c218     libucrtd:nlsdata.obj
 0002:00012220       ??_C@_17KCJGOCPB@?$AAJ?$AAu?$AAn@ 000000018007c220     libucrtd:nlsdata.obj
 0002:00012228       ??_C@_17IJPCKHK@?$AAJ?$AAu?$AAl@ 000000018007c228     libucrtd:nlsdata.obj
 0002:00012230       ??_C@_17ICPELBCN@?$AAA?$AAu?$AAg@ 000000018007c230     libucrtd:nlsdata.obj
 0002:00012238       ??_C@_17HCHCOKMG@?$AAS?$AAe?$AAp@ 000000018007c238     libucrtd:nlsdata.obj
 0002:00012240       ??_C@_17FNLKOI@?$AAO?$AAc?$AAt@ 000000018007c240     libucrtd:nlsdata.obj
 0002:00012248       ??_C@_17BBDMLCIG@?$AAN?$AAo?$AAv@ 000000018007c248     libucrtd:nlsdata.obj
 0002:00012250       ??_C@_17EGKACKIF@?$AAD?$AAe?$AAc@ 000000018007c250     libucrtd:nlsdata.obj
 0002:00012258       ??_C@_1BA@EFMEIEBA@?$AAJ?$AAa?$AAn?$AAu?$AAa?$AAr?$AAy@ 000000018007c258     libucrtd:nlsdata.obj
 0002:00012268       ??_C@_1BC@JGDDFFAM@?$AAF?$AAe?$AAb?$AAr?$AAu?$AAa?$AAr?$AAy@ 000000018007c268     libucrtd:nlsdata.obj
 0002:00012280       ??_C@_1M@IKEENEDF@?$AAM?$AAa?$AAr?$AAc?$AAh@ 000000018007c280     libucrtd:nlsdata.obj
 0002:00012290       ??_C@_1M@GJNLMHFD@?$AAA?$AAp?$AAr?$AAi?$AAl@ 000000018007c290     libucrtd:nlsdata.obj
 0002:000122a0       ??_C@_19EPFLPGAP@?$AAJ?$AAu?$AAn?$AAe@ 000000018007c2a0     libucrtd:nlsdata.obj
 0002:000122b0       ??_C@_19BIFMLPCD@?$AAJ?$AAu?$AAl?$AAy@ 000000018007c2b0     libucrtd:nlsdata.obj
 0002:000122c0       ??_C@_1O@PAHLKOAC@?$AAA?$AAu?$AAg?$AAu?$AAs?$AAt@ 000000018007c2c0     libucrtd:nlsdata.obj
 0002:000122d0       ??_C@_1BE@DKAAMBJL@?$AAS?$AAe?$AAp?$AAt?$AAe?$AAm?$AAb?$AAe?$AAr@ 000000018007c2d0     libucrtd:nlsdata.obj
 0002:000122e8       ??_C@_1BA@EPANDLNG@?$AAO?$AAc?$AAt?$AAo?$AAb?$AAe?$AAr@ 000000018007c2e8     libucrtd:nlsdata.obj
 0002:000122f8       ??_C@_1BC@BGLIFPF@?$AAN?$AAo?$AAv?$AAe?$AAm?$AAb?$AAe?$AAr@ 000000018007c2f8     libucrtd:nlsdata.obj
 0002:00012310       ??_C@_1BC@FEMKIFH@?$AAD?$AAe?$AAc?$AAe?$AAm?$AAb?$AAe?$AAr@ 000000018007c310     libucrtd:nlsdata.obj
 0002:00012324       ??_C@_15ODEHAHHF@?$AAA?$AAM@ 000000018007c324     libucrtd:nlsdata.obj
 0002:0001232c       ??_C@_15CLMNNGEL@?$AAP?$AAM@ 000000018007c32c     libucrtd:nlsdata.obj
 0002:00012338       ??_C@_1BC@IEBCMHCM@?$AAM?$AAM?$AA?1?$AAd?$AAd?$AA?1?$AAy?$AAy@ 000000018007c338     libucrtd:nlsdata.obj
 0002:00012350       ??_C@_1CI@KNAKOEBC@?$AAd?$AAd?$AAd?$AAd?$AA?0?$AA?5?$AAM?$AAM?$AAM?$AAM?$AA?5?$AAd?$AAd?$AA?0?$AA?5@ 000000018007c350     libucrtd:nlsdata.obj
 0002:00012378       ??_C@_1BC@GDGBMEMK@?$AAH?$AAH?$AA?3?$AAm?$AAm?$AA?3?$AAs?$AAs@ 000000018007c378     libucrtd:nlsdata.obj
 0002:00012390       ??_C@_1M@BMHNFIME@?$AAe?$AAn?$AA?9?$AAU?$AAS@ 000000018007c390     libucrtd:nlsdata.obj
 0002:000123a0       ??_C@_1GA@LFAOKOOP@?$AAm?$AAi?$AAn?$AAk?$AAe?$AAr?$AAn?$AAe?$AAl?$AA?2?$AAc?$AAr?$AAt?$AAs?$AA?2@ 000000018007c3a0     libucrtd:dbgrptt.obj
 0002:00012400       ??_C@_1CA@KHJHLKA@?$AA_?$AAV?$AAC?$AAr?$AAt?$AAD?$AAb?$AAg?$AAR?$AAe?$AAp?$AAo?$AAr?$AAt?$AAA@ 000000018007c400     libucrtd:dbgrptt.obj
 0002:00012420       ??_C@_1FA@JPHJBHEM@?$AA_?$AAi?$AAt?$AAo?$AAa?$AA_?$AAs?$AA?$CI?$AAn?$AAL?$AAi?$AAn?$AAe?$AA?0?$AA?5@ 000000018007c420     libucrtd:dbgrptt.obj
 0002:00012470       ??_C@_0CG@BNGLOCEO@Second?5Chance?5Assertion?5Failed?3@ 000000018007c470     libucrtd:dbgrptt.obj
 0002:00012498       ??_C@_0P@DFJNDPOP@?$DMfile?5unknown?$DO@ 000000018007c498     libucrtd:dbgrptt.obj
 0002:000124a8       ??_C@_07BHGABMGB@?0?5Line?5@ 000000018007c4a8     libucrtd:dbgrptt.obj
 0002:000124b0       ??_C@_1JI@GAALPGBM@?$AAs?$AAt?$AAr?$AAc?$AAp?$AAy?$AA_?$AAs?$AA?$CI?$AAs?$AAz?$AAU?$AAs?$AAe?$AAr@ 000000018007c4b0     libucrtd:dbgrptt.obj
 0002:00012548       ??_C@_0CL@EACFGMNB@_CrtDbgReport?3?5String?5too?5long?5@ 000000018007c548     libucrtd:dbgrptt.obj
 0002:00012580       ??_C@_1KK@GIGAEDMO@?$AAs?$AAt?$AAr?$AAc?$AAp?$AAy?$AA_?$AAs?$AA?$CI?$AAs?$AAz?$AAL?$AAi?$AAn?$AAe@ 000000018007c580     libucrtd:dbgrptt.obj
 0002:00012630       ??_C@_0BD@CAENFOHP@Assertion?5failed?3?5@ 000000018007c630     libucrtd:dbgrptt.obj
 0002:00012650       ??_C@_1FK@NPGBPOFO@?$AAs?$AAt?$AAr?$AAc?$AAa?$AAt?$AA_?$AAs?$AA?$CI?$AAs?$AAz?$AAL?$AAi?$AAn?$AAe@ 000000018007c650     libucrtd:dbgrptt.obj
 0002:000126b0       ??_C@_1EI@CACDLAFK@?$AAs?$AAt?$AAr?$AAc?$AAa?$AAt?$AA_?$AAs?$AA?$CI?$AAs?$AAz?$AAL?$AAi?$AAn?$AAe@ 000000018007c6b0     libucrtd:dbgrptt.obj
 0002:000126f8       ??_C@_01LIIJDEN@?$AN@      000000018007c6f8     libucrtd:dbgrptt.obj
 0002:00012700       ??_C@_1EI@LDHJEDO@?$AAs?$AAt?$AAr?$AAc?$AAa?$AAt?$AA_?$AAs?$AA?$CI?$AAs?$AAz?$AAL?$AAi?$AAn?$AAe@ 000000018007c700     libucrtd:dbgrptt.obj
 0002:00012748       ??_C@_0M@IPILFDFN@?$CFs?$CI?$CFd?$CJ?5?3?5?$CFs@ 000000018007c748     libucrtd:dbgrptt.obj
 0002:00012760       ??_C@_1JG@CPKCIOEE@?$AAs?$AAt?$AAr?$AAc?$AAp?$AAy?$AA_?$AAs?$AA?$CI?$AAs?$AAz?$AAO?$AAu?$AAt?$AAM@ 000000018007c760     libucrtd:dbgrptt.obj
 0002:00012800       ??_C@_1FI@IBIOIHEG@?$AAs?$AAt?$AAr?$AAc?$AAp?$AAy?$AA_?$AAs?$AA?$CI?$AAs?$AAz?$AAO?$AAu?$AAt?$AAM@ 000000018007c800     libucrtd:dbgrptt.obj
 0002:00012860       ??_C@_1IM@OOKIFKOH@?$AAe?$AA?5?$AA?$DN?$AA?5?$AAm?$AAb?$AAs?$AAt?$AAo?$AAw?$AAc?$AAs?$AA_?$AAs?$AA?$CI@ 000000018007c860     libucrtd:dbgrptt.obj
 0002:000128f0       ??_C@_1MC@IGEECMDB@?$AAw?$AAc?$AAs?$AAc?$AAp?$AAy?$AA_?$AAs?$AA?$CI?$AAs?$AAz?$AAO?$AAu?$AAt?$AAM@ 000000018007c8f0     libucrtd:dbgrptt.obj
 0002:000129c0       ??_C@_1HO@PJOFIKFE@?$AA_?$AAC?$AAr?$AAt?$AAD?$AAb?$AAg?$AAR?$AAe?$AAp?$AAo?$AAr?$AAt?$AA?3?$AA?5@ 000000018007c9c0     libucrtd:dbgrptt.obj
 0002:00012a40       ??_C@_1CA@HPALHDOD@?$AA_?$AAV?$AAC?$AAr?$AAt?$AAD?$AAb?$AAg?$AAR?$AAe?$AAp?$AAo?$AAr?$AAt?$AAW@ 000000018007ca40     libucrtd:dbgrptt.obj
 0002:00012a60       ??_C@_1FA@CNLLOMHI@?$AA_?$AAi?$AAt?$AAo?$AAw?$AA_?$AAs?$AA?$CI?$AAn?$AAL?$AAi?$AAn?$AAe?$AA?0?$AA?5@ 000000018007ca60     libucrtd:dbgrptt.obj
 0002:00012ab0       ??_C@_1EM@MJFLEDMB@?$AAS?$AAe?$AAc?$AAo?$AAn?$AAd?$AA?5?$AAC?$AAh?$AAa?$AAn?$AAc?$AAe?$AA?5?$AAA@ 000000018007cab0     libucrtd:dbgrptt.obj
 0002:00012b00       ??_C@_1BO@OCHMLCAG@?$AA?$DM?$AAf?$AAi?$AAl?$AAe?$AA?5?$AAu?$AAn?$AAk?$AAn?$AAo?$AAw?$AAn?$AA?$DO@ 000000018007cb00     libucrtd:dbgrptt.obj
 0002:00012b20       ??_C@_1BA@ELMMDCFC@?$AA?0?$AA?5?$AAL?$AAi?$AAn?$AAe?$AA?5@ 000000018007cb20     libucrtd:dbgrptt.obj
 0002:00012b30       ??_C@_1JK@KHFABAEO@?$AAw?$AAc?$AAs?$AAc?$AAp?$AAy?$AA_?$AAs?$AA?$CI?$AAs?$AAz?$AAU?$AAs?$AAe?$AAr@ 000000018007cb30     libucrtd:dbgrptt.obj
 0002:00012bd0       ??_C@_1KO@DGAHENCH@?$AAw?$AAc?$AAs?$AAc?$AAp?$AAy?$AA_?$AAs?$AA?$CI?$AAs?$AAz?$AAL?$AAi?$AAn?$AAe@ 000000018007cbd0     libucrtd:dbgrptt.obj
 0002:00012c80       ??_C@_1CG@FFFGGODN@?$AAA?$AAs?$AAs?$AAe?$AAr?$AAt?$AAi?$AAo?$AAn?$AA?5?$AAf?$AAa?$AAi?$AAl?$AAe@ 000000018007cc80     libucrtd:dbgrptt.obj
 0002:00012cb0       ??_C@_1FK@HPADHBBD@?$AAw?$AAc?$AAs?$AAc?$AAa?$AAt?$AA_?$AAs?$AA?$CI?$AAs?$AAz?$AAL?$AAi?$AAn?$AAe@ 000000018007ccb0     libucrtd:dbgrptt.obj
 0002:00012d10       ??_C@_1EK@NMDFGHMF@?$AAw?$AAc?$AAs?$AAc?$AAa?$AAt?$AA_?$AAs?$AA?$CI?$AAs?$AAz?$AAL?$AAi?$AAn?$AAe@ 000000018007cd10     libucrtd:dbgrptt.obj
 0002:00012d5c       ??_C@_13CMNBPIDO@?$AA?$AN@ 000000018007cd5c     libucrtd:dbgrptt.obj
 0002:00012d60       ??_C@_1EK@PHCBEDKB@?$AAw?$AAc?$AAs?$AAc?$AAa?$AAt?$AA_?$AAs?$AA?$CI?$AAs?$AAz?$AAL?$AAi?$AAn?$AAe@ 000000018007cd60     libucrtd:dbgrptt.obj
 0002:00012db0       ??_C@_1BM@GIBPMLNL@?$AA?$CF?$AAl?$AAs?$AA?$CI?$AA?$CF?$AAd?$AA?$CJ?$AA?5?$AA?3?$AA?5?$AA?$CF?$AAl?$AAs@ 000000018007cdb0     libucrtd:dbgrptt.obj
 0002:00012dd0       ??_C@_1JI@EACPGHID@?$AAw?$AAc?$AAs?$AAc?$AAp?$AAy?$AA_?$AAs?$AA?$CI?$AAs?$AAz?$AAO?$AAu?$AAt?$AAM@ 000000018007cdd0     libucrtd:dbgrptt.obj
 0002:00012e70       ??_C@_1FI@DBAIJPJE@?$AAw?$AAc?$AAs?$AAc?$AAp?$AAy?$AA_?$AAs?$AA?$CI?$AAs?$AAz?$AAO?$AAu?$AAt?$AAM@ 000000018007ce70     libucrtd:dbgrptt.obj
 0002:00012ed0       ??_C@_1IK@LEBMBAP@?$AAw?$AAc?$AAs?$AAt?$AAo?$AAm?$AAb?$AAs?$AA_?$AAs?$AA?$CI?$AAn?$AAu?$AAl?$AAl@ 000000018007ced0     libucrtd:dbgrptt.obj
 0002:00012f60       ??_C@_1MA@LBAMNNOB@?$AAs?$AAt?$AAr?$AAc?$AAp?$AAy?$AA_?$AAs?$AA?$CI?$AAs?$AAz?$AAO?$AAu?$AAt?$AAM@ 000000018007cf60     libucrtd:dbgrptt.obj
 0002:00013020       ??_C@_0DP@GNPEPHJD@_CrtDbgReport?3?5String?5too?5long?5@ 000000018007d020     libucrtd:dbgrptt.obj
 0002:00013060       ??_C@_1IE@CPGKIAGP@?$AAw?$AAc?$AAs?$AAt?$AAo?$AAm?$AAb?$AAs?$AA_?$AAs?$AA?$CI?$AA?$CG?$AAr?$AAe?$AAt@ 000000018007d060     libucrtd:dbgrptt.obj
 0002:000130e8       ??_C@_1DA@NBILLKNO@?$AAl?$AAo?$AAc?$AAa?$AAl?$AA_?$AAa?$AAc?$AAt?$AAi?$AAo?$AAn?$AA?5?$AA?$CB?$AA?$DN@ 000000018007d0e8     libucrtd:signal.obj
 0002:00013120       ??_C@_1FO@CCGDPEKE@?$AAm?$AAi?$AAn?$AAk?$AAe?$AAr?$AAn?$AAe?$AAl?$AA?2?$AAc?$AAr?$AAt?$AAs?$AA?2@ 000000018007d120     libucrtd:signal.obj
 0002:00013180       ??_C@_1M@DMJEIKHL@?$AAr?$AAa?$AAi?$AAs?$AAe@ 000000018007d180     libucrtd:signal.obj
 0002:00013190       ??_C@_1DO@MLNEDKGB@?$AA?$CI?$AA?$CC?$AAI?$AAn?$AAv?$AAa?$AAl?$AAi?$AAd?$AA?5?$AAs?$AAi?$AAg?$AAn?$AAa@ 000000018007d190     libucrtd:signal.obj
 0002:000131d0       _FInf_C                    000000018007d1d0     libucrtd:_values.obj
 0002:000131d8       _FNan_C                    000000018007d1d8     libucrtd:_values.obj
 0002:000131e0       ??_C@_1BBC@DECGKMGJ@?$AA_?$AAl?$AAo?$AAc?$AA_?$AAu?$AAp?$AAd?$AAa?$AAt?$AAe?$AA?4?$AAG?$AAe?$AAt@ 000000018007d1e0     libucrtd:mbtowc.obj
 0002:00013300       ??_C@_1GE@CGIHMDEJ@?$AAm?$AAi?$AAn?$AAk?$AAe?$AAr?$AAn?$AAe?$AAl?$AA?2?$AAc?$AAr?$AAt?$AAs?$AA?2@ 000000018007d300     libucrtd:mbtowc.obj
 0002:00013370       ??_C@_1HA@KNBGJAIN@?$AAU?$AAT?$AAF?$AA?9?$AA8?$AA?5?$AAi?$AAs?$AAn?$AA?8?$AAt?$AA?5?$AAs?$AAu?$AAp@ 000000018007d370     libucrtd:mbtowc.obj
 0002:000133e0       ??_C@_1BBA@EIIJPPL@?$AA_?$AAl?$AAo?$AAc?$AA_?$AAu?$AAp?$AAd?$AAa?$AAt?$AAe?$AA?4?$AAG?$AAe?$AAt@ 000000018007d3e0     libucrtd:mbtowc.obj
 0002:000134f0       ??_C@_1IE@CDCHDACI@?$AA_?$AAl?$AAo?$AAc?$AA_?$AAu?$AAp?$AAd?$AAa?$AAt?$AAe?$AA?4?$AAG?$AAe?$AAt@ 000000018007d4f0     libucrtd:mbtowc.obj
 0002:00013578       ??_C@_1DK@NBNOAGKB@?$AAd?$AAe?$AAs?$AAt?$AAi?$AAn?$AAa?$AAt?$AAi?$AAo?$AAn?$AA_?$AAc?$AAo?$AAu@ 000000018007d578     libucrtd:wctomb.obj
 0002:000135c0       ??_C@_1GE@FCCEPHFG@?$AAm?$AAi?$AAn?$AAk?$AAe?$AAr?$AAn?$AAe?$AAl?$AA?2?$AAc?$AAr?$AAt?$AAs?$AA?2@ 000000018007d5c0     libucrtd:wctomb.obj
 0002:00013628       ??_C@_1BI@IEADNOHF@?$AA_?$AAw?$AAc?$AAt?$AAo?$AAm?$AAb?$AA_?$AAs?$AA_?$AAl@ 000000018007d628     libucrtd:wctomb.obj
 0002:00013640       ??_C@_1CM@ENFEGCNE@?$AAd?$AAe?$AAs?$AAt?$AAi?$AAn?$AAa?$AAt?$AAi?$AAo?$AAn?$AA_?$AAc?$AAo?$AAu@ 000000018007d640     libucrtd:wctomb.obj
 0002:00013720       ??_C@_03OEIAHPBN@INF@      000000018007d720     libucrtd:cvt.obj
 0002:00013724       ??_C@_03OJHLLCGB@inf@      000000018007d724     libucrtd:cvt.obj
 0002:00013728       ??_C@_03LKNCIKJB@NAN@      000000018007d728     libucrtd:cvt.obj
 0002:0001372c       ??_C@_03LHCJEHON@nan@      000000018007d72c     libucrtd:cvt.obj
 0002:00013730       ??_C@_09OFJJIMPC@NAN?$CISNAN?$CJ@ 000000018007d730     libucrtd:cvt.obj
 0002:00013740       ??_C@_09IPFBKMDL@nan?$CIsnan?$CJ@ 000000018007d740     libucrtd:cvt.obj
 0002:00013750       ??_C@_08IKHNHAJ@NAN?$CIIND?$CJ@ 000000018007d750     libucrtd:cvt.obj
 0002:00013760       ??_C@_08OFCDMILK@nan?$CIind?$CJ@ 000000018007d760     libucrtd:cvt.obj
 0002:00013770       ??_C@_1FO@GKAKAPLI@?$AAm?$AAi?$AAn?$AAk?$AAe?$AAr?$AAn?$AAe?$AAl?$AA?2?$AAc?$AAr?$AAt?$AAs?$AA?2@ 000000018007d770     libucrtd:cvt.obj
 0002:000137d0       ??_C@_1DE@EHGIGIDK@?$AAf?$AAp?$AA_?$AAf?$AAo?$AAr?$AAm?$AAa?$AAt?$AA_?$AAn?$AAa?$AAn?$AA_?$AAo@ 000000018007d7d0     libucrtd:cvt.obj
 0002:00013810       ??_C@_1LI@PCMLJPCO@?$AAs?$AAt?$AAr?$AAc?$AAp?$AAy?$AA_?$AAs?$AA?$CI?$AA?5?$AAr?$AAe?$AAs?$AAu?$AAl@ 000000018007d810     libucrtd:cvt.obj
 0002:000138d0       ??_C@_1KO@LJHOFBCD@?$AAr?$AAe?$AAs?$AAu?$AAl?$AAt?$AA_?$AAb?$AAu?$AAf?$AAf?$AAe?$AAr?$AA_?$AAc@ 000000018007d8d0     libucrtd:cvt.obj
 0002:00013980       ??_C@_1CK@BOLHOMFO@?$AAf?$AAp?$AA_?$AAf?$AAo?$AAr?$AAm?$AAa?$AAt?$AA_?$AAe?$AA_?$AAi?$AAn?$AAt@ 000000018007d980     libucrtd:cvt.obj
 0002:000139b0       ??_C@_1BBE@LHDOMEDC@?$AAs?$AAt?$AAr?$AAc?$AAp?$AAy?$AA_?$AAs?$AA?$CI?$AA?5?$AAp?$AA?0?$AA?5?$AAr?$AAe@ 000000018007d9b0     libucrtd:cvt.obj
 0002:00013ac4       ??_C@_05KLBDPFGC@e?$CL000@ 000000018007dac4     libucrtd:cvt.obj
 0002:00013ad0       ??_C@_1IC@FILKPBAB@?$AAr?$AAe?$AAs?$AAu?$AAl?$AAt?$AA_?$AAb?$AAu?$AAf?$AAf?$AAe?$AAr?$AA_?$AAc@ 000000018007dad0     libucrtd:cvt.obj
 0002:00013b58       ??_C@_1BI@PNBDLNBB@?$AAf?$AAp?$AA_?$AAf?$AAo?$AAr?$AAm?$AAa?$AAt?$AA_?$AAa@ 000000018007db58     libucrtd:cvt.obj
 0002:00013b70       ??_C@_1DC@MGKAFPFD@?$AAr?$AAe?$AAs?$AAu?$AAl?$AAt?$AA_?$AAb?$AAu?$AAf?$AAf?$AAe?$AAr?$AA?5?$AA?$CB@ 000000018007db70     libucrtd:cvt.obj
 0002:00013ba8       ??_C@_1CC@LDAHJAKK@?$AA_?$AA_?$AAa?$AAc?$AAr?$AAt?$AA_?$AAf?$AAp?$AA_?$AAf?$AAo?$AAr?$AAm?$AAa@ 000000018007dba8     libucrtd:cvt.obj
 0002:00013bd0       ??_C@_1DA@NMLJJOCO@?$AAr?$AAe?$AAs?$AAu?$AAl?$AAt?$AA_?$AAb?$AAu?$AAf?$AAf?$AAe?$AAr?$AA_?$AAc@ 000000018007dbd0     libucrtd:cvt.obj
 0002:00013c00       ??_C@_1DE@MNOPBCOK@?$AAs?$AAc?$AAr?$AAa?$AAt?$AAc?$AAh?$AA_?$AAb?$AAu?$AAf?$AAf?$AAe?$AAr?$AA?5@ 000000018007dc00     libucrtd:cvt.obj
 0002:00013c38       ??_C@_1DC@CKBKNFKH@?$AAs?$AAc?$AAr?$AAa?$AAt?$AAc?$AAh?$AA_?$AAb?$AAu?$AAf?$AAf?$AAe?$AAr?$AA_@ 000000018007dc38     libucrtd:cvt.obj
 0002:00013c70       ??_C@_1EI@JAHBOGIM@?$AA?$CI?$AA?$CC?$AAU?$AAn?$AAs?$AAu?$AAp?$AAp?$AAo?$AAr?$AAt?$AAe?$AAd?$AA?5?$AAf@ 000000018007dc70     libucrtd:cvt.obj
 0002:00013cc0       ??_C@_1GA@KCAHHNGP@?$AAm?$AAi?$AAn?$AAk?$AAe?$AAr?$AAn?$AAe?$AAl?$AA?2?$AAc?$AAr?$AAt?$AAs?$AA?2@ 000000018007dcc0     libucrtd:fileno.obj
 0002:00013d20       ??_C@_1BA@JGHIEKKM@?$AA_?$AAf?$AAi?$AAl?$AAe?$AAn?$AAo@ 000000018007dd20     libucrtd:fileno.obj
 0002:00013d30       ??_C@_1GC@GBMDABED@?$AAm?$AAi?$AAn?$AAk?$AAe?$AAr?$AAn?$AAe?$AAl?$AA?2?$AAc?$AAr?$AAt?$AAs?$AA?2@ 000000018007dd30     libucrtd:_sftbuf.obj
 0002:00013d98       ??_C@_0DB@EPIHMFLB@minkernel?2crts?2ucrt?2src?2appcrt?2@ 000000018007dd98     libucrtd:_sftbuf.obj
 0002:00013dd0       ??_C@_1IC@DCNEKBE@?$AAm?$AAi?$AAn?$AAk?$AAe?$AAr?$AAn?$AAe?$AAl?$AA?2?$AAc?$AAr?$AAt?$AAs?$AA?2@ 000000018007ddd0     libucrtd:report_runtime_error.obj
 0002:00013e58       ??_C@_1DI@BLFJHKKP@?$AA_?$AA_?$AAa?$AAc?$AAr?$AAt?$AA_?$AAr?$AAe?$AAp?$AAo?$AAr?$AAt?$AA_?$AAr@ 000000018007de58     libucrtd:report_runtime_error.obj
 0002:00013e90       ??_C@_1LE@MHPGJGKE@?$AAw?$AAc?$AAs?$AAc?$AAp?$AAy?$AA_?$AAs?$AA?$CI?$AAo?$AAu?$AAt?$AAm?$AAs?$AAg@ 000000018007de90     libucrtd:report_runtime_error.obj
 0002:00013f48       ??_C@_1DE@JNGNBFGO@?$AAR?$AAu?$AAn?$AAt?$AAi?$AAm?$AAe?$AA?5?$AAE?$AAr?$AAr?$AAo?$AAr?$AA?$CB?$AA?6@ 000000018007df48     libucrtd:report_runtime_error.obj
 0002:00013f80       ??_C@_1HK@FJJNAABO@?$AAw?$AAc?$AAs?$AAc?$AAp?$AAy?$AA_?$AAs?$AA?$CI?$AAp?$AAr?$AAo?$AAg?$AAn?$AAa@ 000000018007df80     libucrtd:report_runtime_error.obj
 0002:00014000       ??_C@_1HI@FLHKGEBE@?$AAw?$AAc?$AAs?$AAn?$AAc?$AAp?$AAy?$AA_?$AAs?$AA?$CI?$AAp?$AAc?$AAh?$AA?0?$AA?5@ 000000018007e000     libucrtd:report_runtime_error.obj
 0002:00014080       ??_C@_1IG@MNNKBLBI@?$AAw?$AAc?$AAs?$AAc?$AAa?$AAt?$AA_?$AAs?$AA?$CI?$AAo?$AAu?$AAt?$AAm?$AAs?$AAg@ 000000018007e080     libucrtd:report_runtime_error.obj
 0002:00014110       ??_C@_1IG@DFBBBDAN@?$AAw?$AAc?$AAs?$AAc?$AAa?$AAt?$AA_?$AAs?$AA?$CI?$AAo?$AAu?$AAt?$AAm?$AAs?$AAg@ 000000018007e110     libucrtd:report_runtime_error.obj
 0002:000141a0       ??_C@_1GA@HBEFGMHK@?$AAm?$AAi?$AAn?$AAk?$AAe?$AAr?$AAn?$AAe?$AAl?$AA?2?$AAc?$AAr?$AAt?$AAs?$AA?2@ 000000018007e1a0     libucrtd:xtoa.obj
 0002:00014200       ??_C@_1BM@HMPEMLNP@?$AAc?$AAo?$AAm?$AAm?$AAo?$AAn?$AA_?$AAx?$AAt?$AAo?$AAx?$AA_?$AAs@ 000000018007e200     libucrtd:xtoa.obj
 0002:00014220       ??_C@_1CC@ONIJBMJF@?$AAb?$AAu?$AAf?$AAf?$AAe?$AAr?$AA_?$AAc?$AAo?$AAu?$AAn?$AAt?$AA?5?$AA?$DO?$AA?5@ 000000018007e220     libucrtd:xtoa.obj
 0002:00014250       ??_C@_1HA@JFIOFNKD@?$AAb?$AAu?$AAf?$AAf?$AAe?$AAr?$AA_?$AAc?$AAo?$AAu?$AAn?$AAt?$AA?5?$AA?$DO?$AA?5@ 000000018007e250     libucrtd:xtoa.obj
 0002:000142c0       ??_C@_1DE@PCJGDBBD@?$AA2?$AA?5?$AA?$DM?$AA?$DN?$AA?5?$AAr?$AAa?$AAd?$AAi?$AAx?$AA?5?$AA?$CG?$AA?$CG?$AA?5?$AAr@ 000000018007e2c0     libucrtd:xtoa.obj
 0002:000142f8       ??_C@_1CM@LONILNIJ@?$AAl?$AAe?$AAn?$AAg?$AAt?$AAh?$AA?5?$AA?$DM?$AA?5?$AAb?$AAu?$AAf?$AAf?$AAe?$AAr@ 000000018007e2f8     libucrtd:xtoa.obj
 0002:00014328       ??_C@_1BI@OLPLFKOE@?$AAc?$AAo?$AAm?$AAm?$AAo?$AAn?$AA_?$AAx?$AAt?$AAo?$AAx@ 000000018007e328     libucrtd:xtoa.obj
 0002:00014340       ??_C@_1DE@BCNCAIK@?$AA?$CI?$AA?$CC?$AAI?$AAn?$AAv?$AAa?$AAl?$AAi?$AAd?$AA?5?$AAe?$AAr?$AAr?$AAo?$AAr@ 000000018007e340     libucrtd:set_error_mode.obj
 0002:00014380       ??_C@_1GO@EBFPMMIJ@?$AAm?$AAi?$AAn?$AAk?$AAe?$AAr?$AAn?$AAe?$AAl?$AA?2?$AAc?$AAr?$AAt?$AAs?$AA?2@ 000000018007e380     libucrtd:set_error_mode.obj
 0002:000143f0       ??_C@_1CA@LFDHAMEM@?$AA_?$AAs?$AAe?$AAt?$AA_?$AAe?$AAr?$AAr?$AAo?$AAr?$AA_?$AAm?$AAo?$AAd?$AAe@ 000000018007e3f0     libucrtd:set_error_mode.obj
 0002:00014410       ??_C@_1CA@EOJJMFA@?$AAc?$AAo?$AAm?$AAm?$AAo?$AAn?$AA_?$AAt?$AAc?$AAs?$AAc?$AAa?$AAt?$AA_?$AAs@ 000000018007e410     libucrtd:wcscat_s.obj
 0002:00014430       ??_C@_1DM@FHLMIEG@?$AAS?$AAt?$AAr?$AAi?$AAn?$AAg?$AA?5?$AAi?$AAs?$AA?5?$AAn?$AAo?$AAt?$AA?5?$AAn@ 000000018007e430     libucrtd:wcscat_s.obj
 0002:00014470       ??_C@_1FA@MJKDNFFB@?$AA?$CI?$AAL?$AA?$CC?$AAS?$AAt?$AAr?$AAi?$AAn?$AAg?$AA?5?$AAi?$AAs?$AA?5?$AAn?$AAo@ 000000018007e470     libucrtd:wcscat_s.obj
 0002:000144c0       ??_C@_1CC@HELMJGIF@?$AAc?$AAo?$AAm?$AAm?$AAo?$AAn?$AA_?$AAt?$AAc?$AAs?$AAn?$AAc?$AAa?$AAt?$AA_@ 000000018007e4c0     libucrtd:wcsncat_s.obj
 0002:00014660       ??_C@_04LAGPAAHP@sinf@     000000018007e660     libucrtd:sincos_special.obj
 0002:00014668       ??_C@_04OBBKPIAC@cosf@     000000018007e668     libucrtd:sincos_special.obj
 0002:00014670       __Lcosfarray               000000018007e670     libucrtd:lsincosf_array.obj
 0002:000146a0       __Lsinfarray               000000018007e6a0     libucrtd:lsincosf_array.obj
 0002:000146c0       __L_2_by_pi_bits           000000018007e6c0     libucrtd:l2_by_pi_bits.obj
 0002:000148b0       ??_C@_1EA@JGEFHKEI@?$AAa?$AAp?$AAi?$AA?9?$AAm?$AAs?$AA?9?$AAw?$AAi?$AAn?$AA?9?$AAc?$AAo?$AAr?$AAe@ 000000018007e8b0     libucrtd:winapi_thunks.obj
 0002:000148f0       ??_C@_1DI@IJCEHOCB@?$AAa?$AAp?$AAi?$AA?9?$AAm?$AAs?$AA?9?$AAw?$AAi?$AAn?$AA?9?$AAc?$AAo?$AAr?$AAe@ 000000018007e8f0     libucrtd:winapi_thunks.obj
 0002:00014930       ??_C@_1EI@MPIAOHOC@?$AAa?$AAp?$AAi?$AA?9?$AAm?$AAs?$AA?9?$AAw?$AAi?$AAn?$AA?9?$AAc?$AAo?$AAr?$AAe@ 000000018007e930     libucrtd:winapi_thunks.obj
 0002:00014980       ??_C@_1FK@FPHCKFIE@?$AAa?$AAp?$AAi?$AA?9?$AAm?$AAs?$AA?9?$AAw?$AAi?$AAn?$AA?9?$AAc?$AAo?$AAr?$AAe@ 000000018007e980     libucrtd:winapi_thunks.obj
 0002:000149e0       ??_C@_1EM@DILCGIIO@?$AAa?$AAp?$AAi?$AA?9?$AAm?$AAs?$AA?9?$AAw?$AAi?$AAn?$AA?9?$AAc?$AAo?$AAr?$AAe@ 000000018007e9e0     libucrtd:winapi_thunks.obj
 0002:00014a30       ??_C@_1DM@LNCGDDPN@?$AAa?$AAp?$AAi?$AA?9?$AAm?$AAs?$AA?9?$AAw?$AAi?$AAn?$AA?9?$AAc?$AAo?$AAr?$AAe@ 000000018007ea30     libucrtd:winapi_thunks.obj
 0002:00014a70       ??_C@_1DO@FPAPJEMD@?$AAa?$AAp?$AAi?$AA?9?$AAm?$AAs?$AA?9?$AAw?$AAi?$AAn?$AA?9?$AAc?$AAo?$AAr?$AAe@ 000000018007ea70     libucrtd:winapi_thunks.obj
 0002:00014ab0       ??_C@_1DK@NDHNAHIO@?$AAa?$AAp?$AAi?$AA?9?$AAm?$AAs?$AA?9?$AAw?$AAi?$AAn?$AA?9?$AAc?$AAo?$AAr?$AAe@ 000000018007eab0     libucrtd:winapi_thunks.obj
 0002:00014af0       ??_C@_1DM@KGHDGBCM@?$AAa?$AAp?$AAi?$AA?9?$AAm?$AAs?$AA?9?$AAw?$AAi?$AAn?$AA?9?$AAc?$AAo?$AAr?$AAe@ 000000018007eaf0     libucrtd:winapi_thunks.obj
 0002:00014b30       ??_C@_1EO@IJIOEFOH@?$AAa?$AAp?$AAi?$AA?9?$AAm?$AAs?$AA?9?$AAw?$AAi?$AAn?$AA?9?$AAr?$AAt?$AAc?$AAo@ 000000018007eb30     libucrtd:winapi_thunks.obj
 0002:00014b80       ??_C@_1FG@HHGEKANL@?$AAa?$AAp?$AAi?$AA?9?$AAm?$AAs?$AA?9?$AAw?$AAi?$AAn?$AA?9?$AAs?$AAe?$AAc?$AAu@ 000000018007eb80     libucrtd:winapi_thunks.obj
 0002:00014be0       ??_C@_1EG@DBIOJECG@?$AAe?$AAx?$AAt?$AA?9?$AAm?$AAs?$AA?9?$AAw?$AAi?$AAn?$AA?9?$AAn?$AAt?$AAu?$AAs@ 000000018007ebe0     libucrtd:winapi_thunks.obj
 0002:00014c30       ??_C@_1EO@FIHMJCLF@?$AAe?$AAx?$AAt?$AA?9?$AAm?$AAs?$AA?9?$AAw?$AAi?$AAn?$AA?9?$AAn?$AAt?$AAu?$AAs@ 000000018007ec30     libucrtd:winapi_thunks.obj
 0002:00014c80       ??_C@_1BC@DNHGCMLG@?$AAa?$AAd?$AAv?$AAa?$AAp?$AAi?$AA3?$AA2@ 000000018007ec80     libucrtd:winapi_thunks.obj
 0002:00014c98       ??_C@_1M@OAIMIKLP@?$AAn?$AAt?$AAd?$AAl?$AAl@ 000000018007ec98     libucrtd:winapi_thunks.obj
 0002:00014cb0       ??_C@_1EG@DPGNFKGC@?$AAa?$AAp?$AAi?$AA?9?$AAm?$AAs?$AA?9?$AAw?$AAi?$AAn?$AA?9?$AAa?$AAp?$AAp?$AAm@ 000000018007ecb0     libucrtd:winapi_thunks.obj
 0002:00014cf8       ??_C@_1O@BCCLBEOE@?$AAu?$AAs?$AAe?$AAr?$AA3?$AA2@ 000000018007ecf8     libucrtd:winapi_thunks.obj
 0002:00014d08       ??_C@_1BA@IAIFMGEF@?$AAe?$AAx?$AAt?$AA?9?$AAm?$AAs?$AA?9@ 000000018007ed08     libucrtd:winapi_thunks.obj
 0002:00014d20       ??_C@_1HE@OILMBOBA@?$AAm?$AAi?$AAn?$AAk?$AAe?$AAr?$AAn?$AAe?$AAl?$AA?2?$AAc?$AAr?$AAt?$AAs?$AA?2@ 000000018007ed20     libucrtd:winapi_thunks.obj
 0002:00014d98       ??_C@_0BA@FHFNEAED@AreFileApisANSI@ 000000018007ed98     libucrtd:winapi_thunks.obj
 0002:00014db0       ??_C@_0BA@IHGNDAEB@CompareStringEx@ 000000018007edb0     libucrtd:winapi_thunks.obj
 0002:00014dc8       ??_C@_0BE@LJANKFHF@EnumSystemLocalesEx@ 000000018007edc8     libucrtd:winapi_thunks.obj
 0002:00014e08       ??_C@_0BA@HNOPNCHB@GetActiveWindow@ 000000018007ee08     libucrtd:winapi_thunks.obj
 0002:00014e20       ??_C@_0BA@EPCJIIPD@GetDateFormatEx@ 000000018007ee20     libucrtd:winapi_thunks.obj
 0002:00014e38       ??_C@_0BD@HHGDFDBJ@GetLastActivePopup@ 000000018007ee38     libucrtd:winapi_thunks.obj
 0002:00014e58       ??_C@_0BA@ONOKGCMP@GetLocaleInfoEx@ 000000018007ee58     libucrtd:winapi_thunks.obj
 0002:00014e70       ??_C@_0BI@DFKBFLJE@GetProcessWindowStation@ 000000018007ee70     libucrtd:winapi_thunks.obj
 0002:00014e90       ??_C@_0BA@CIJJKCJJ@GetTimeFormatEx@ 000000018007ee90     libucrtd:winapi_thunks.obj
 0002:00014ea8       ??_C@_0BJ@PBCCBIPI@GetUserDefaultLocaleName@ 000000018007eea8     libucrtd:winapi_thunks.obj
 0002:00014ed0       ??_C@_0BK@DEKFELLI@GetUserObjectInformationW@ 000000018007eed0     libucrtd:winapi_thunks.obj
 0002:00014f00       ??_C@_0BC@CELBKLLA@IsValidLocaleName@ 000000018007ef00     libucrtd:winapi_thunks.obj
 0002:00014f20       ??_C@_0O@KKBNKAPF@LCMapStringEx@ 000000018007ef20     libucrtd:winapi_thunks.obj
 0002:00014f38       ??_C@_0BB@CDHDDLLP@LCIDToLocaleName@ 000000018007ef38     libucrtd:winapi_thunks.obj
 0002:00014f58       ??_C@_0BB@HBDEELFH@LocaleNameToLCID@ 000000018007ef58     libucrtd:winapi_thunks.obj
 0002:00014f78       ??_C@_0M@CHKKJDAI@MessageBoxA@ 000000018007ef78     libucrtd:winapi_thunks.obj
 0002:00014f90       ??_C@_0M@DLDCCGNP@MessageBoxW@ 000000018007ef90     libucrtd:winapi_thunks.obj
 0002:00014fa0       ??_C@_0CF@OJOFEIGO@AppPolicyGetProcessTerminationM@ 000000018007efa0     libucrtd:winapi_thunks.obj
 0002:00014fd0       ??_C@_0CE@OICFMIKE@AppPolicyGetShowDeveloperDiagno@ 000000018007efd0     libucrtd:winapi_thunks.obj
 0002:00014ff8       ??_C@_0BL@ODDJNEDA@AppPolicyGetWindowingModel@ 000000018007eff8     libucrtd:winapi_thunks.obj
 0002:00015020       ??_C@_0BC@JEAENNKH@SystemFunction036@ 000000018007f020     libucrtd:winapi_thunks.obj
 0002:00015038       ??_C@_1BK@FPAMLIDG@?$AAs?$AA?5?$AA?$CB?$AA?$DN?$AA?5?$AAn?$AAu?$AAl?$AAl?$AAp?$AAt?$AAr@ 000000018007f038     libucrtd:mbstowcs.obj
 0002:00015060       ??_C@_1GI@KABMHNPH@?$AAm?$AAi?$AAn?$AAk?$AAe?$AAr?$AAn?$AAe?$AAl?$AA?2?$AAc?$AAr?$AAt?$AAs?$AA?2@ 000000018007f060     libucrtd:mbstowcs.obj
 0002:000150c8       ??_C@_1CG@JEHFHLNG@?$AA_?$AAm?$AAb?$AAs?$AAt?$AAo?$AAw?$AAc?$AAs?$AA_?$AAl?$AA_?$AAh?$AAe?$AAl@ 000000018007f0c8     libucrtd:mbstowcs.obj
 0002:000150f0       ??_C@_1JM@MEKBACIG@?$AA?$CI?$AAp?$AAw?$AAc?$AAs?$AA?5?$AA?$DN?$AA?$DN?$AA?5?$AAn?$AAu?$AAl?$AAl?$AAp?$AAt@ 000000018007f0f0     libucrtd:mbstowcs.obj
 0002:00015190       ??_C@_1BM@PHENIGHD@?$AA_?$AAm?$AAb?$AAs?$AAt?$AAo?$AAw?$AAc?$AAs?$AA_?$AAs?$AA_?$AAl@ 000000018007f190     libucrtd:mbstowcs.obj
 0002:000151b0       ??_C@_1CM@LLECFMFH@?$AAb?$AAu?$AAf?$AAf?$AAe?$AAr?$AAS?$AAi?$AAz?$AAe?$AA?5?$AA?$DM?$AA?$DN?$AA?5?$AAI@ 000000018007f1b0     libucrtd:mbstowcs.obj
 0002:000151e0       ??_C@_1CO@JNPEPJAL@?$AAr?$AAe?$AAt?$AAs?$AAi?$AAz?$AAe?$AA?5?$AA?$DM?$AA?$DN?$AA?5?$AAs?$AAi?$AAz?$AAe@ 000000018007f1e0     libucrtd:mbstowcs.obj
 0002:00015238       ??_C@_1CA@NOKNKDIG@?$AAp?$AAw?$AAc?$AAs?$AA?5?$AA?$CB?$AA?$DN?$AA?5?$AAn?$AAu?$AAl?$AAl?$AAp?$AAt?$AAr@ 000000018007f238     libucrtd:wcstombs.obj
 0002:00015260       ??_C@_1GI@EEJDEALP@?$AAm?$AAi?$AAn?$AAk?$AAe?$AAr?$AAn?$AAe?$AAl?$AA?2?$AAc?$AAr?$AAt?$AAs?$AA?2@ 000000018007f260     libucrtd:wcstombs.obj
 0002:000152c8       ??_C@_1CG@LLJCAOHF@?$AA_?$AAw?$AAc?$AAs?$AAt?$AAo?$AAm?$AAb?$AAs?$AA_?$AAl?$AA_?$AAh?$AAe?$AAl@ 000000018007f2c8     libucrtd:wcstombs.obj
 0002:000152f0       ??_C@_1JI@DFNKFCLG@?$AA?$CI?$AAd?$AAs?$AAt?$AA?5?$AA?$CB?$AA?$DN?$AA?5?$AAn?$AAu?$AAl?$AAl?$AAp?$AAt?$AAr@ 000000018007f2f0     libucrtd:wcstombs.obj
 0002:00015388       ??_C@_1BM@BDMCLLDL@?$AA_?$AAw?$AAc?$AAs?$AAt?$AAo?$AAm?$AAb?$AAs?$AA_?$AAs?$AA_?$AAl@ 000000018007f388     libucrtd:wcstombs.obj
 0002:000153a8       ??_C@_1CM@KEOGBFLI@?$AAs?$AAi?$AAz?$AAe?$AAI?$AAn?$AAB?$AAy?$AAt?$AAe?$AAs?$AA?5?$AA?$DO?$AA?5?$AAr@ 000000018007f3a8     libucrtd:wcstombs.obj
 0002:000153d8       ??_C@_0DJ@JBBOOIAE@minkernel?2crts?2ucrt?2src?2appcrt?2@ 000000018007f3d8     libucrtd:getlocaleinfoa.obj
 0002:00015420       ??_C@_1HC@KAIIOBKJ@?$AAm?$AAi?$AAn?$AAk?$AAe?$AAr?$AAn?$AAe?$AAl?$AA?2?$AAc?$AAr?$AAt?$AAs?$AA?2@ 000000018007f420     libucrtd:getlocaleinfoa.obj
 0002:00015498       ??_C@_1CM@LGLMFNOK@?$AA_?$AA_?$AAa?$AAc?$AAr?$AAt?$AA_?$AAG?$AAe?$AAt?$AAL?$AAo?$AAc?$AAa?$AAl@ 000000018007f498     libucrtd:getlocaleinfoa.obj
 0002:000154d0       ??_C@_1IM@HJPPDDKJ@?$AAs?$AAt?$AAr?$AAn?$AAc?$AAp?$AAy?$AA_?$AAs?$AA?$CI?$AA?$CK?$AAc?$AAh?$AAa?$AAr@ 000000018007f4d0     libucrtd:getlocaleinfoa.obj
 0002:00015560       ??_C@_0DJ@HCPJODDK@minkernel?2crts?2ucrt?2src?2appcrt?2@ 000000018007f560     libucrtd:getstringtypea.obj
 0002:000155a0       ??_C@_0DH@IKPCBLP@minkernel?2crts?2ucrt?2src?2appcrt?2@ 000000018007f5a0     libucrtd:lcmapstringa.obj
 0002:000155e0       ??_C@_1GE@GPOPIOIG@?$AAm?$AAi?$AAn?$AAk?$AAe?$AAr?$AAn?$AAe?$AAl?$AA?2?$AAc?$AAr?$AAt?$AAs?$AA?2@ 000000018007f5e0     libucrtd:_freebuf.obj
 0002:00015650       ??_C@_1JE@ECKHFIFP@?$AA?$CI?$AA?$CC?$AAI?$AAn?$AAv?$AAa?$AAl?$AAi?$AAd?$AA?5?$AAf?$AAi?$AAl?$AAe?$AA?5@ 000000018007f650     libucrtd:close.obj
 0002:000156f0       ??_C@_1FO@IPDGALOE@?$AAm?$AAi?$AAn?$AAk?$AAe?$AAr?$AAn?$AAe?$AAl?$AA?2?$AAc?$AAr?$AAt?$AAs?$AA?2@ 000000018007f6f0     libucrtd:close.obj
 0002:00015750       ??_C@_1FO@LPCLHKGE@?$AA?$CI?$AAf?$AAh?$AA?5?$AA?$DO?$AA?$DN?$AA?5?$AA0?$AA?5?$AA?$CG?$AA?$CG?$AA?5?$AA?$CI?$AAu?$AAn@ 000000018007f750     libucrtd:close.obj
 0002:000157b0       ??_C@_1O@EDEJGJBM@?$AA_?$AAc?$AAl?$AAo?$AAs?$AAe@ 000000018007f7b0     libucrtd:close.obj
 0002:000157c0       ??_C@_1CM@OKGMMMDH@?$AA?$CI?$AA_?$AAo?$AAs?$AAf?$AAi?$AAl?$AAe?$AA?$CI?$AAf?$AAh?$AA?$CJ?$AA?5?$AA?$CG?$AA?5@ 000000018007f7c0     libucrtd:close.obj
 0002:000157f0       ??_C@_1GA@MPOOLHCO@?$AAm?$AAi?$AAn?$AAk?$AAe?$AAr?$AAn?$AAe?$AAl?$AA?2?$AAc?$AAr?$AAt?$AAs?$AA?2@ 000000018007f7f0     libucrtd:commit.obj
 0002:00015850       ??_C@_1BA@FLNMBBIM@?$AA_?$AAc?$AAo?$AAm?$AAm?$AAi?$AAt@ 000000018007f850     libucrtd:commit.obj
 0002:00015860       ??_C@_1FO@CAMPMGCN@?$AAm?$AAi?$AAn?$AAk?$AAe?$AAr?$AAn?$AAe?$AAl?$AA?2?$AAc?$AAr?$AAt?$AAs?$AA?2@ 000000018007f860     libucrtd:write.obj
 0002:000158c0       ??_C@_1O@KOFKDHPL@?$AA_?$AAw?$AAr?$AAi?$AAt?$AAe@ 000000018007f8c0     libucrtd:write.obj
 0002:000158d0       ??_C@_1CK@MMEFCHHN@?$AA?$CB?$AA_?$AAd?$AAb?$AAc?$AAs?$AAB?$AAu?$AAf?$AAf?$AAe?$AAr?$AAU?$AAs?$AAe@ 000000018007f8d0     libucrtd:write.obj
 0002:00015900       ??_C@_1EG@LICJGLJJ@?$AA1?$AA?5?$AA?$DM?$AA?5?$AAm?$AAb?$AA_?$AAl?$AAe?$AAn?$AA?5?$AA?$CG?$AA?$CG?$AA?5?$AAm@ 000000018007f900     libucrtd:write.obj
 0002:00015950       ??_C@_1FC@NFILPJB@?$AAm?$AAb?$AA_?$AAb?$AAu?$AAf?$AA_?$AAu?$AAs?$AAe?$AAd?$AA?5?$AA?$CL?$AA?5?$AAb@ 000000018007f950     libucrtd:write.obj
 0002:000159b0       ??_C@_1FC@HEJOPHLA@?$AAa?$AAv?$AAa?$AAi?$AAl?$AAa?$AAb?$AAl?$AAe?$AA_?$AAb?$AAy?$AAt?$AAe?$AAs@ 000000018007f9b0     libucrtd:write.obj
 0002:00015a08       ??_C@_1DI@CNMHHHLG@?$AAi?$AAs?$AAl?$AAe?$AAa?$AAd?$AAb?$AAy?$AAt?$AAe?$AA?$CI?$AA_?$AAd?$AAb?$AAc@ 000000018007fa08     libucrtd:write.obj
 0002:00015a40       ??_C@_1BM@NCANHCIP@?$AA_?$AAw?$AAr?$AAi?$AAt?$AAe?$AA_?$AAn?$AAo?$AAl?$AAo?$AAc?$AAk@ 000000018007fa40     libucrtd:write.obj
 0002:00015a60       ??_C@_1CK@CPEAGIIP@?$AAb?$AAu?$AAf?$AAf?$AAe?$AAr?$AA_?$AAs?$AAi?$AAz?$AAe?$AA?5?$AA?$CF?$AA?5?$AA2@ 000000018007fa60     libucrtd:write.obj
 0002:00015a90       ??_C@_1GC@MGNADOPH@?$AAm?$AAi?$AAn?$AAk?$AAe?$AAr?$AAn?$AAe?$AAl?$AA?2?$AAc?$AAr?$AAt?$AAs?$AA?2@ 000000018007fa90     libucrtd:_filbuf.obj
 0002:00015af8       ??_C@_1DM@MPDNIFLF@?$AAc?$AAo?$AAm?$AAm?$AAo?$AAn?$AA_?$AAr?$AAe?$AAf?$AAi?$AAl?$AAl?$AA_?$AAa@ 000000018007faf8     libucrtd:_filbuf.obj
 0002:00015b38       ??_C@_1CO@LBNDLIPC@?$AAs?$AAt?$AAr?$AAe?$AAa?$AAm?$AA?4?$AAp?$AAu?$AAb?$AAl?$AAi?$AAc?$AA_?$AAs@ 000000018007fb38     libucrtd:ftell.obj
 0002:00015b70       ??_C@_1FO@JHBALIAM@?$AAm?$AAi?$AAn?$AAk?$AAe?$AAr?$AAn?$AAe?$AAl?$AA?2?$AAc?$AAr?$AAt?$AAs?$AA?2@ 000000018007fb70     libucrtd:ftell.obj
 0002:00015bd0       ??_C@_1CI@MOKEPKDC@?$AAc?$AAo?$AAm?$AAm?$AAo?$AAn?$AA_?$AAf?$AAt?$AAe?$AAl?$AAl?$AA_?$AAn?$AAo@ 000000018007fbd0     libucrtd:ftell.obj
 0002:00015c00       ??_C@_1GM@EDHJGDLB@?$AA?$CI?$AAb?$AAu?$AAf?$AAf?$AAe?$AAr?$AA_?$AAl?$AAa?$AAs?$AAt?$AA?5?$AA?9?$AA?5@ 000000018007fc00     libucrtd:ftell.obj
 0002:00015c70       ??_C@_1BK@CMPCEPOF@?$AAc?$AAo?$AAm?$AAm?$AAo?$AAn?$AA_?$AAf?$AAt?$AAe?$AAl?$AAl@ 000000018007fc70     libucrtd:ftell.obj
 0002:00015c90       ??_C@_1GC@DFIGBGJI@?$AAm?$AAi?$AAn?$AAk?$AAe?$AAr?$AAn?$AAe?$AAl?$AA?2?$AAc?$AAr?$AAt?$AAs?$AA?2@ 000000018007fc90     libucrtd:_flsbuf.obj
 0002:00015d00       ??_C@_1HO@MLMGPAFH@?$AA?$CI?$AA?$CC?$AAi?$AAn?$AAc?$AAo?$AAn?$AAs?$AAi?$AAs?$AAt?$AAe?$AAn?$AAt?$AA?5@ 000000018007fd00     libucrtd:_flsbuf.obj
 0002:00015d80       ??_C@_1FK@MGHFJLAL@?$AAf?$AAh?$AA?5?$AA?$DO?$AA?$DN?$AA?5?$AA0?$AA?5?$AA?$CG?$AA?$CG?$AA?5?$AA?$CI?$AAu?$AAn?$AAs@ 000000018007fd80     libucrtd:read.obj
 0002:00015de0       ??_C@_1FM@PHKGHLIO@?$AAm?$AAi?$AAn?$AAk?$AAe?$AAr?$AAn?$AAe?$AAl?$AA?2?$AAc?$AAr?$AAt?$AAs?$AA?2@ 000000018007fde0     libucrtd:read.obj
 0002:00015e40       ??_C@_1M@NHJOLLDM@?$AA_?$AAr?$AAe?$AAa?$AAd@ 000000018007fe40     libucrtd:read.obj
 0002:00015e50       ??_C@_1CI@ILOIOBLM@?$AA_?$AAo?$AAs?$AAf?$AAi?$AAl?$AAe?$AA?$CI?$AAf?$AAh?$AA?$CJ?$AA?5?$AA?$CG?$AA?5?$AAF@ 000000018007fe50     libucrtd:read.obj
 0002:00015e78       ??_C@_1CO@OPEPDLLF@?$AAb?$AAu?$AAf?$AAf?$AAe?$AAr?$AA_?$AAs?$AAi?$AAz?$AAe?$AA?5?$AA?$DM?$AA?$DN?$AA?5@ 000000018007fe78     libucrtd:read.obj
 0002:00015ea8       ??_C@_1BK@JJBHNDKJ@?$AA_?$AAr?$AAe?$AAa?$AAd?$AA_?$AAn?$AAo?$AAl?$AAo?$AAc?$AAk@ 000000018007fea8     libucrtd:read.obj
 0002:00015ec8       ??_C@_1DM@JEAHBMKI@?$AAr?$AAe?$AAs?$AAu?$AAl?$AAt?$AA_?$AAb?$AAu?$AAf?$AAf?$AAe?$AAr?$AA_?$AAs@ 000000018007fec8     libucrtd:read.obj
 0002:00015f08       ??_C@_1DI@CDGOMPDO@?$AAr?$AAe?$AAs?$AAu?$AAl?$AAt?$AA_?$AAb?$AAu?$AAf?$AAf?$AAe?$AAr?$AA_?$AAs@ 000000018007ff08     libucrtd:read.obj
 0002:00015f40       ??_C@_0CO@JFNFJHLC@minkernel?2crts?2ucrt?2src?2appcrt?2@ 000000018007ff40     libucrtd:read.obj
 0002:00015f70       ??_C@_1DM@HGBOAKPP@?$AA?$CI?$AAr?$AAe?$AAs?$AAu?$AAl?$AAt?$AA_?$AAb?$AAu?$AAf?$AAf?$AAe?$AAr?$AA_@ 000000018007ff70     libucrtd:read.obj
 0002:00015fb0       ??_C@_1FO@KIIHJNFN@?$AAm?$AAi?$AAn?$AAk?$AAe?$AAr?$AAn?$AAe?$AAl?$AA?2?$AAc?$AAr?$AAt?$AAs?$AA?2@ 000000018007ffb0     libucrtd:lseek.obj
 0002:00016010       ??_C@_1BK@JOMBNFIM@?$AAc?$AAo?$AAm?$AAm?$AAo?$AAn?$AA_?$AAl?$AAs?$AAe?$AAe?$AAk@ 0000000180080010     libucrtd:lseek.obj
 0002:00016030       ??_C@_1DM@LMLOLGJ@?$AA?$CI?$AA?$CC?$AAI?$AAn?$AAv?$AAa?$AAl?$AAi?$AAd?$AA?5?$AAf?$AAi?$AAl?$AAe?$AA?5@ 0000000180080030     libucrtd:lseek.obj
 0002:00016070       ??_C@_1GC@DLDMJFMI@?$AAm?$AAi?$AAn?$AAk?$AAe?$AAr?$AAn?$AAe?$AAl?$AA?2?$AAc?$AAr?$AAt?$AAs?$AA?2@ 0000000180080070     libucrtd:_getbuf.obj
 0002:000160d8       ??_C@_0DB@LKJPMJPL@minkernel?2crts?2ucrt?2src?2appcrt?2@ 00000001800800d8     libucrtd:_getbuf.obj
 0002:00016110       __log_256_lead             0000000180080110     libucrtd:log_256_lead_tail_table.obj
 0002:00016920       __log_256_tail             0000000180080920     libucrtd:log_256_lead_tail_table.obj
 0002:00017130       __two_to_jby64_head_table  0000000180081130     libucrtd:two_to_jby64_head_tail_table.obj
 0002:00017330       __two_to_jby64_tail_table  0000000180081330     libucrtd:two_to_jby64_head_tail_table.obj
 0002:00017530       ??_C@_04MBFDLNIM@powf@     0000000180081530     libucrtd:pow_special.obj
 0002:00017538       ??_C@_03JGHBODFD@pow@      0000000180081538     libucrtd:pow_special.obj
 0002:0001753c       ??_C@_05HGHHAHAP@log10@    000000018008153c     libucrtd:fpexcept.obj
 0002:00017550       __two_to_jby64_table       0000000180081550     libucrtd:two_to_jby64_table.obj
 0002:00017750       __log_F_inv_qword          0000000180081750     libucrtd:log_f_inv_qword_table.obj
 0002:00017f60       ??_C@_1BO@JGGHCINF@?$AAl?$AAh?$AAs?$AA?5?$AA?$CB?$AA?$DN?$AA?5?$AAn?$AAu?$AAl?$AAl?$AAp?$AAt?$AAr@ 0000000180081f60     libucrtd:wcsicmp.obj
 0002:00017f80       ??_C@_1GE@FNNJGCGI@?$AAm?$AAi?$AAn?$AAk?$AAe?$AAr?$AAn?$AAe?$AAl?$AA?2?$AAc?$AAr?$AAt?$AAs?$AA?2@ 0000000180081f80     libucrtd:wcsicmp.obj
 0002:00017fe8       ??_C@_1BG@EELGPCPD@?$AA_?$AAw?$AAc?$AAs?$AAi?$AAc?$AAm?$AAp?$AA_?$AAl@ 0000000180081fe8     libucrtd:wcsicmp.obj
 0002:00018000       ??_C@_1BO@FHLPEAOG@?$AAr?$AAh?$AAs?$AA?5?$AA?$CB?$AA?$DN?$AA?5?$AAn?$AAu?$AAl?$AAl?$AAp?$AAt?$AAr@ 0000000180082000     libucrtd:wcsicmp.obj
 0002:00018020       ??_C@_1BC@NHIBDOMC@?$AA_?$AAw?$AAc?$AAs?$AAi?$AAc?$AAm?$AAp@ 0000000180082020     libucrtd:wcsicmp.obj
 0002:00018040       ??_C@_1FO@NMANMHOD@?$AAc?$AAa?$AAc?$AAh?$AAe?$AAd?$AA_?$AAs?$AAt?$AAa?$AAt?$AAe?$AA?5?$AA?$DN?$AA?$DN@ 0000000180082040     libucrtd:win_policies.obj
 0002:000180a0       ??_C@_1HC@GHLNKBJK@?$AAm?$AAi?$AAn?$AAk?$AAe?$AAr?$AAn?$AAe?$AAl?$AA?2?$AAc?$AAr?$AAt?$AAs?$AA?2@ 00000001800820a0     libucrtd:win_policies.obj
 0002:00018120       ??_C@_1HE@CEMHPOHH@?$AAm?$AAi?$AAn?$AAk?$AAe?$AAr?$AAn?$AAe?$AAl?$AA?2?$AAc?$AAr?$AAt?$AAs?$AA?2@ 0000000180082120     libucrtd:argv_wildcards.obj
 0002:00018198       ??_C@_1DK@IBFFOJGB@?$AAc?$AAo?$AAm?$AAm?$AAo?$AAn?$AA_?$AAe?$AAx?$AAp?$AAa?$AAn?$AAd?$AA_?$AAa@ 0000000180082198     libucrtd:argv_wildcards.obj
 0002:000181e0       ??_C@_1MC@FLPKOFON@?$AAt?$AAr?$AAa?$AAi?$AAt?$AAs?$AA?3?$AA?3?$AAt?$AAc?$AAs?$AAn?$AAc?$AAp?$AAy@ 00000001800821e0     libucrtd:argv_wildcards.obj
 0002:000182a8       ??_C@_0DK@FPFMIIJB@minkernel?2crts?2ucrt?2src?2appcrt?2@ 00000001800822a8     libucrtd:argv_wildcards.obj
 0002:000182f0       ??_C@_1EA@KOCCBLAD@?$AAc?$AAo?$AAp?$AAy?$AA_?$AAa?$AAn?$AAd?$AA_?$AAa?$AAd?$AAd?$AA_?$AAa?$AAr@ 00000001800822f0     libucrtd:argv_wildcards.obj
 0002:00018330       ??_C@_1KM@GDJIGAGL@?$AAt?$AAr?$AAa?$AAi?$AAt?$AAs?$AA?3?$AA?3?$AAt?$AAc?$AAs?$AAn?$AAc?$AAp?$AAy@ 0000000180082330     libucrtd:argv_wildcards.obj
 0002:000183e0       ??_C@_1PI@FGFLAGCC@?$AAt?$AAr?$AAa?$AAi?$AAt?$AAs?$AA?3?$AA?3?$AAt?$AAc?$AAs?$AAn?$AAc?$AAp?$AAy@ 00000001800823e0     libucrtd:argv_wildcards.obj
 0002:000184f8       ??_C@_1M@HPNHIDJI@?$AAj?$AAa?$AA?9?$AAJ?$AAP@ 00000001800824f8     libucrtd:mbctype.obj
 0002:00018508       ??_C@_1M@BIBDDEMK@?$AAz?$AAh?$AA?9?$AAC?$AAN@ 0000000180082508     libucrtd:mbctype.obj
 0002:00018518       ??_C@_1M@JLOOOEGK@?$AAk?$AAo?$AA?9?$AAK?$AAR@ 0000000180082518     libucrtd:mbctype.obj
 0002:00018528       ??_C@_1M@CLNBBOPM@?$AAz?$AAh?$AA?9?$AAT?$AAW@ 0000000180082528     libucrtd:mbctype.obj
 0002:00018538       ??_C@_0DE@HGDKNBFD@minkernel?2crts?2ucrt?2src?2appcrt?2@ 0000000180082538     libucrtd:mbctype.obj
 0002:00018570       ??_C@_0ED@BLPEHJAI@minkernel?2crts?2ucrt?2src?2desktop@ 0000000180082570     libucrtd:get_environment_from_os.obj
 0002:000185c0       ??_C@_1BKC@NBNHJIDM@?$AA?$CI?$AAp?$AAt?$AAl?$AAo?$AAc?$AAi?$AA?9?$AA?$DO?$AAl?$AAc?$AA_?$AAc?$AAa?$AAt@ 00000001800825c0     libucrtd:locale_refcounting.obj
 0002:00018770       ??_C@_1HK@HCNMEOLA@?$AAm?$AAi?$AAn?$AAk?$AAe?$AAr?$AAn?$AAe?$AAl?$AA?2?$AAc?$AAr?$AAt?$AAs?$AA?2@ 0000000180082770     libucrtd:locale_refcounting.obj
 0002:000187f0       ??_C@_0DC@GMDOHFAP@minkernel?2crts?2ucrt?2src?2appcrt?2@ 00000001800827f0     libucrtd:initmon.obj
 0002:00018828       ??_C@_1DM@GKAPAMDO@?$AAp?$AAl?$AAo?$AAc?$AAi?$AA?9?$AA?$DO?$AAl?$AAc?$AAo?$AAn?$AAv?$AA_?$AAm?$AAo@ 0000000180082828     libucrtd:initmon.obj
 0002:00018870       ??_C@_1GE@IEFGCKMH@?$AAm?$AAi?$AAn?$AAk?$AAe?$AAr?$AAn?$AAe?$AAl?$AA?2?$AAc?$AAr?$AAt?$AAs?$AA?2@ 0000000180082870     libucrtd:initmon.obj
 0002:000188d8       ??_C@_0DC@KHILMDMC@minkernel?2crts?2ucrt?2src?2appcrt?2@ 00000001800828d8     libucrtd:initnum.obj
 0002:00018910       ??_C@_1DM@IFKAINNE@?$AAp?$AAl?$AAo?$AAc?$AAi?$AA?9?$AA?$DO?$AAl?$AAc?$AAo?$AAn?$AAv?$AA_?$AAn?$AAu@ 0000000180082910     libucrtd:initnum.obj
 0002:00018950       ??_C@_1GE@GOIFKKDC@?$AAm?$AAi?$AAn?$AAk?$AAe?$AAr?$AAn?$AAe?$AAl?$AA?2?$AAc?$AAr?$AAt?$AAs?$AA?2@ 0000000180082950     libucrtd:initnum.obj
 0002:000189b8       ??_C@_0DD@MPFICDAE@minkernel?2crts?2ucrt?2src?2appcrt?2@ 00000001800829b8     libucrtd:inittime.obj
 0002:000189f0       ??_C@_1HK@HACABKKK@?$AA?$CI?$AA?$CC?$AAl?$AAc?$AA_?$AAt?$AAi?$AAm?$AAe?$AA_?$AAc?$AAu?$AAr?$AAr?$AA?5@ 00000001800829f0     libucrtd:inittime.obj
 0002:00018a70       ??_C@_1GG@BFOOANHJ@?$AAm?$AAi?$AAn?$AAk?$AAe?$AAr?$AAn?$AAe?$AAl?$AA?2?$AAc?$AAr?$AAt?$AAs?$AA?2@ 0000000180082a70     libucrtd:inittime.obj
 0002:00018ad8       ??_C@_1CC@CHNFGJIC@?$AAc?$AAo?$AAm?$AAm?$AAo?$AAn?$AA_?$AAt?$AAc?$AAs?$AAn?$AAc?$AAp?$AAy?$AA_@ 0000000180082ad8     libucrtd:wcsncpy_s.obj
 0002:00018b00       __acrt_rg_language         0000000180082b00     libucrtd:get_qualified_locale.obj
 0002:00018f10       __acrt_rg_language_count   0000000180082f10     libucrtd:get_qualified_locale.obj
 0002:00018f20       __acrt_rg_country          0000000180082f20     libucrtd:get_qualified_locale.obj
 0002:00019090       __acrt_rg_country_count    0000000180083090     libucrtd:get_qualified_locale.obj
 0002:00019098       ??_C@_1BC@LLOKLNP@?$AAa?$AAm?$AAe?$AAr?$AAi?$AAc?$AAa?$AAn@ 0000000180083098     libucrtd:get_qualified_locale.obj
 0002:000190b0       ??_C@_1CC@HEIGCDGG@?$AAa?$AAm?$AAe?$AAr?$AAi?$AAc?$AAa?$AAn?$AA?5?$AAe?$AAn?$AAg?$AAl?$AAi?$AAs@ 00000001800830b0     libucrtd:get_qualified_locale.obj
 0002:000190d8       ??_C@_1CC@IHCNOMIN@?$AAa?$AAm?$AAe?$AAr?$AAi?$AAc?$AAa?$AAn?$AA?9?$AAe?$AAn?$AAg?$AAl?$AAi?$AAs@ 00000001800830d8     libucrtd:get_qualified_locale.obj
 0002:00019100       ??_C@_1BG@GKAGPCGG@?$AAa?$AAu?$AAs?$AAt?$AAr?$AAa?$AAl?$AAi?$AAa?$AAn@ 0000000180083100     libucrtd:get_qualified_locale.obj
 0002:00019118       ??_C@_1BA@GMENCENF@?$AAb?$AAe?$AAl?$AAg?$AAi?$AAa?$AAn@ 0000000180083118     libucrtd:get_qualified_locale.obj
 0002:00019128       ??_C@_1BC@PJMIIAAN@?$AAc?$AAa?$AAn?$AAa?$AAd?$AAi?$AAa?$AAn@ 0000000180083128     libucrtd:get_qualified_locale.obj
 0002:00019140       ??_C@_17NOIMNFBF@?$AAc?$AAh?$AAh@ 0000000180083140     libucrtd:get_qualified_locale.obj
 0002:00019148       ??_C@_17GGDALCHA@?$AAc?$AAh?$AAi@ 0000000180083148     libucrtd:get_qualified_locale.obj
 0002:00019150       ??_C@_1BA@NPNJKIBL@?$AAc?$AAh?$AAi?$AAn?$AAe?$AAs?$AAe@ 0000000180083150     libucrtd:get_qualified_locale.obj
 0002:00019160       ??_C@_1CC@DINBAMMJ@?$AAc?$AAh?$AAi?$AAn?$AAe?$AAs?$AAe?$AA?9?$AAh?$AAo?$AAn?$AAg?$AAk?$AAo?$AAn@ 0000000180083160     libucrtd:get_qualified_locale.obj
 0002:00019188       ??_C@_1CG@IOBJPACO@?$AAc?$AAh?$AAi?$AAn?$AAe?$AAs?$AAe?$AA?9?$AAs?$AAi?$AAm?$AAp?$AAl?$AAi?$AAf@ 0000000180083188     libucrtd:get_qualified_locale.obj
 0002:000191b0       ??_C@_1CE@GAJNDCKG@?$AAc?$AAh?$AAi?$AAn?$AAe?$AAs?$AAe?$AA?9?$AAs?$AAi?$AAn?$AAg?$AAa?$AAp?$AAo@ 00000001800831b0     libucrtd:get_qualified_locale.obj
 0002:000191d8       ??_C@_1CI@PAJPIOOD@?$AAc?$AAh?$AAi?$AAn?$AAe?$AAs?$AAe?$AA?9?$AAt?$AAr?$AAa?$AAd?$AAi?$AAt?$AAi@ 00000001800831d8     libucrtd:get_qualified_locale.obj
 0002:00019200       ??_C@_1BM@NILJBMMD@?$AAd?$AAu?$AAt?$AAc?$AAh?$AA?9?$AAb?$AAe?$AAl?$AAg?$AAi?$AAa?$AAn@ 0000000180083200     libucrtd:get_qualified_locale.obj
 0002:00019220       ??_C@_1CC@OOJPJNEJ@?$AAe?$AAn?$AAg?$AAl?$AAi?$AAs?$AAh?$AA?9?$AAa?$AAm?$AAe?$AAr?$AAi?$AAc?$AAa@ 0000000180083220     libucrtd:get_qualified_locale.obj
 0002:00019248       ??_C@_1BI@IOLFEEM@?$AAe?$AAn?$AAg?$AAl?$AAi?$AAs?$AAh?$AA?9?$AAa?$AAu?$AAs@ 0000000180083248     libucrtd:get_qualified_locale.obj
 0002:00019260       ??_C@_1BO@HFFNLENJ@?$AAe?$AAn?$AAg?$AAl?$AAi?$AAs?$AAh?$AA?9?$AAb?$AAe?$AAl?$AAi?$AAz?$AAe@ 0000000180083260     libucrtd:get_qualified_locale.obj
 0002:00019280       ??_C@_1BI@HAPKJMPO@?$AAe?$AAn?$AAg?$AAl?$AAi?$AAs?$AAh?$AA?9?$AAc?$AAa?$AAn@ 0000000180083280     libucrtd:get_qualified_locale.obj
 0002:00019298       ??_C@_1CE@HLNDMIOJ@?$AAe?$AAn?$AAg?$AAl?$AAi?$AAs?$AAh?$AA?9?$AAc?$AAa?$AAr?$AAi?$AAb?$AAb?$AAe@ 0000000180083298     libucrtd:get_qualified_locale.obj
 0002:000192c0       ??_C@_1BI@LDHJHHAC@?$AAe?$AAn?$AAg?$AAl?$AAi?$AAs?$AAh?$AA?9?$AAi?$AAr?$AAe@ 00000001800832c0     libucrtd:get_qualified_locale.obj
 0002:000192d8       ??_C@_1CA@NJMMCFOC@?$AAe?$AAn?$AAg?$AAl?$AAi?$AAs?$AAh?$AA?9?$AAj?$AAa?$AAm?$AAa?$AAi?$AAc?$AAa@ 00000001800832d8     libucrtd:get_qualified_locale.obj
 0002:000192f8       ??_C@_1BG@BHJEBBGG@?$AAe?$AAn?$AAg?$AAl?$AAi?$AAs?$AAh?$AA?9?$AAn?$AAz@ 00000001800832f8     libucrtd:get_qualified_locale.obj
 0002:00019310       ??_C@_1CK@FGOEJJCO@?$AAe?$AAn?$AAg?$AAl?$AAi?$AAs?$AAh?$AA?9?$AAs?$AAo?$AAu?$AAt?$AAh?$AA?5?$AAa@ 0000000180083310     libucrtd:get_qualified_locale.obj
 0002:00019340       ??_C@_1DE@PDBJPCJ@?$AAe?$AAn?$AAg?$AAl?$AAi?$AAs?$AAh?$AA?9?$AAt?$AAr?$AAi?$AAn?$AAi?$AAd?$AAa@ 0000000180083340     libucrtd:get_qualified_locale.obj
 0002:00019378       ??_C@_1BG@JGCANDME@?$AAe?$AAn?$AAg?$AAl?$AAi?$AAs?$AAh?$AA?9?$AAu?$AAk@ 0000000180083378     libucrtd:get_qualified_locale.obj
 0002:00019390       ??_C@_1BG@DINKMLE@?$AAe?$AAn?$AAg?$AAl?$AAi?$AAs?$AAh?$AA?9?$AAu?$AAs@ 0000000180083390     libucrtd:get_qualified_locale.obj
 0002:000193a8       ??_C@_1BI@NMFDBHJE@?$AAe?$AAn?$AAg?$AAl?$AAi?$AAs?$AAh?$AA?9?$AAu?$AAs?$AAa@ 00000001800833a8     libucrtd:get_qualified_locale.obj
 0002:000193c0       ??_C@_1BO@OIHKJKII@?$AAf?$AAr?$AAe?$AAn?$AAc?$AAh?$AA?9?$AAb?$AAe?$AAl?$AAg?$AAi?$AAa?$AAn@ 00000001800833c0     libucrtd:get_qualified_locale.obj
 0002:000193e0       ??_C@_1CA@NKAELJKI@?$AAf?$AAr?$AAe?$AAn?$AAc?$AAh?$AA?9?$AAc?$AAa?$AAn?$AAa?$AAd?$AAi?$AAa?$AAn@ 00000001800833e0     libucrtd:get_qualified_locale.obj
 0002:00019400       ??_C@_1CE@MGKCNLGN@?$AAf?$AAr?$AAe?$AAn?$AAc?$AAh?$AA?9?$AAl?$AAu?$AAx?$AAe?$AAm?$AAb?$AAo?$AAu@ 0000000180083400     libucrtd:get_qualified_locale.obj
 0002:00019428       ??_C@_1BK@CEGEAILM@?$AAf?$AAr?$AAe?$AAn?$AAc?$AAh?$AA?9?$AAs?$AAw?$AAi?$AAs?$AAs@ 0000000180083428     libucrtd:get_qualified_locale.obj
 0002:00019448       ??_C@_1CA@PAFKEOCC@?$AAg?$AAe?$AAr?$AAm?$AAa?$AAn?$AA?9?$AAa?$AAu?$AAs?$AAt?$AAr?$AAi?$AAa?$AAn@ 0000000180083448     libucrtd:get_qualified_locale.obj
 0002:00019468       ??_C@_1CI@HCFHGOFD@?$AAg?$AAe?$AAr?$AAm?$AAa?$AAn?$AA?9?$AAl?$AAi?$AAc?$AAh?$AAt?$AAe?$AAn?$AAs@ 0000000180083468     libucrtd:get_qualified_locale.obj
 0002:00019490       ??_C@_1CE@FEDDNPDG@?$AAg?$AAe?$AAr?$AAm?$AAa?$AAn?$AA?9?$AAl?$AAu?$AAx?$AAe?$AAm?$AAb?$AAo?$AAu@ 0000000180083490     libucrtd:get_qualified_locale.obj
 0002:000194b8       ??_C@_1BK@LIMINNMN@?$AAg?$AAe?$AAr?$AAm?$AAa?$AAn?$AA?9?$AAs?$AAw?$AAi?$AAs?$AAs@ 00000001800834b8     libucrtd:get_qualified_locale.obj
 0002:000194d8       ??_C@_1BM@LGMDBEPD@?$AAi?$AAr?$AAi?$AAs?$AAh?$AA?9?$AAe?$AAn?$AAg?$AAl?$AAi?$AAs?$AAh@ 00000001800834d8     libucrtd:get_qualified_locale.obj
 0002:000194f8       ??_C@_1BM@NNCFBAEE@?$AAi?$AAt?$AAa?$AAl?$AAi?$AAa?$AAn?$AA?9?$AAs?$AAw?$AAi?$AAs?$AAs@ 00000001800834f8     libucrtd:get_qualified_locale.obj
 0002:00019518       ??_C@_1BE@FEDJNPIB@?$AAn?$AAo?$AAr?$AAw?$AAe?$AAg?$AAi?$AAa?$AAn@ 0000000180083518     libucrtd:get_qualified_locale.obj
 0002:00019530       ??_C@_1CC@CILKDEIE@?$AAn?$AAo?$AAr?$AAw?$AAe?$AAg?$AAi?$AAa?$AAn?$AA?9?$AAb?$AAo?$AAk?$AAm?$AAa@ 0000000180083530     libucrtd:get_qualified_locale.obj
 0002:00019558       ??_C@_1CE@DHMMHEPL@?$AAn?$AAo?$AAr?$AAw?$AAe?$AAg?$AAi?$AAa?$AAn?$AA?9?$AAn?$AAy?$AAn?$AAo?$AAr@ 0000000180083558     libucrtd:get_qualified_locale.obj
 0002:00019580       ??_C@_1CK@OPNMHECD@?$AAp?$AAo?$AAr?$AAt?$AAu?$AAg?$AAu?$AAe?$AAs?$AAe?$AA?9?$AAb?$AAr?$AAa?$AAz@ 0000000180083580     libucrtd:get_qualified_locale.obj
 0002:000195b0       ??_C@_1CE@KEEHCDB@?$AAs?$AAp?$AAa?$AAn?$AAi?$AAs?$AAh?$AA?9?$AAa?$AAr?$AAg?$AAe?$AAn?$AAt?$AAi@ 00000001800835b0     libucrtd:get_qualified_locale.obj
 0002:000195d8       ??_C@_1CA@GIAOLHJD@?$AAs?$AAp?$AAa?$AAn?$AAi?$AAs?$AAh?$AA?9?$AAb?$AAo?$AAl?$AAi?$AAv?$AAi?$AAa@ 00000001800835d8     libucrtd:get_qualified_locale.obj
 0002:000195f8       ??_C@_1BM@OJNDFNPD@?$AAs?$AAp?$AAa?$AAn?$AAi?$AAs?$AAh?$AA?9?$AAc?$AAh?$AAi?$AAl?$AAe@ 00000001800835f8     libucrtd:get_qualified_locale.obj
 0002:00019618       ??_C@_1CC@OCOLPALL@?$AAs?$AAp?$AAa?$AAn?$AAi?$AAs?$AAh?$AA?9?$AAc?$AAo?$AAl?$AAo?$AAm?$AAb?$AAi@ 0000000180083618     libucrtd:get_qualified_locale.obj
 0002:00019640       ??_C@_1CG@BPOFMKBB@?$AAs?$AAp?$AAa?$AAn?$AAi?$AAs?$AAh?$AA?9?$AAc?$AAo?$AAs?$AAt?$AAa?$AA?5?$AAr@ 0000000180083640     libucrtd:get_qualified_locale.obj
 0002:00019668       ??_C@_1DG@IGOBAPBB@?$AAs?$AAp?$AAa?$AAn?$AAi?$AAs?$AAh?$AA?9?$AAd?$AAo?$AAm?$AAi?$AAn?$AAi?$AAc@ 0000000180083668     libucrtd:get_qualified_locale.obj
 0002:000196a0       ??_C@_1CA@JHAPGEGI@?$AAs?$AAp?$AAa?$AAn?$AAi?$AAs?$AAh?$AA?9?$AAe?$AAc?$AAu?$AAa?$AAd?$AAo?$AAr@ 00000001800836a0     libucrtd:get_qualified_locale.obj
 0002:000196c0       ??_C@_1CI@LAPALJPP@?$AAs?$AAp?$AAa?$AAn?$AAi?$AAs?$AAh?$AA?9?$AAe?$AAl?$AA?5?$AAs?$AAa?$AAl?$AAv@ 00000001800836c0     libucrtd:get_qualified_locale.obj
 0002:000196e8       ??_C@_1CE@PDGBOFOM@?$AAs?$AAp?$AAa?$AAn?$AAi?$AAs?$AAh?$AA?9?$AAg?$AAu?$AAa?$AAt?$AAe?$AAm?$AAa@ 00000001800836e8     libucrtd:get_qualified_locale.obj
 0002:00019710       ??_C@_1CC@NBEBAODI@?$AAs?$AAp?$AAa?$AAn?$AAi?$AAs?$AAh?$AA?9?$AAh?$AAo?$AAn?$AAd?$AAu?$AAr?$AAa@ 0000000180083710     libucrtd:get_qualified_locale.obj
 0002:00019738       ??_C@_1CA@LLKGHBMF@?$AAs?$AAp?$AAa?$AAn?$AAi?$AAs?$AAh?$AA?9?$AAm?$AAe?$AAx?$AAi?$AAc?$AAa?$AAn@ 0000000180083738     libucrtd:get_qualified_locale.obj
 0002:00019758       ??_C@_1BO@LKNDOIGD@?$AAs?$AAp?$AAa?$AAn?$AAi?$AAs?$AAh?$AA?9?$AAm?$AAo?$AAd?$AAe?$AAr?$AAn@ 0000000180083758     libucrtd:get_qualified_locale.obj
 0002:00019778       ??_C@_1CE@NMDMOEEB@?$AAs?$AAp?$AAa?$AAn?$AAi?$AAs?$AAh?$AA?9?$AAn?$AAi?$AAc?$AAa?$AAr?$AAa?$AAg@ 0000000180083778     libucrtd:get_qualified_locale.obj
 0002:000197a0       ??_C@_1BO@LLCBEJGB@?$AAs?$AAp?$AAa?$AAn?$AAi?$AAs?$AAh?$AA?9?$AAp?$AAa?$AAn?$AAa?$AAm?$AAa@ 00000001800837a0     libucrtd:get_qualified_locale.obj
 0002:000197c0       ??_C@_1CC@FKPGGIHO@?$AAs?$AAp?$AAa?$AAn?$AAi?$AAs?$AAh?$AA?9?$AAp?$AAa?$AAr?$AAa?$AAg?$AAu?$AAa@ 00000001800837c0     libucrtd:get_qualified_locale.obj
 0002:000197e8       ??_C@_1BK@CDEIHOOP@?$AAs?$AAp?$AAa?$AAn?$AAi?$AAs?$AAh?$AA?9?$AAp?$AAe?$AAr?$AAu@ 00000001800837e8     libucrtd:get_qualified_locale.obj
 0002:00019808       ??_C@_1CI@GAHAKKGP@?$AAs?$AAp?$AAa?$AAn?$AAi?$AAs?$AAh?$AA?9?$AAp?$AAu?$AAe?$AAr?$AAt?$AAo?$AA?5@ 0000000180083808     libucrtd:get_qualified_locale.obj
 0002:00019830       ??_C@_1CA@NKJBCAGP@?$AAs?$AAp?$AAa?$AAn?$AAi?$AAs?$AAh?$AA?9?$AAu?$AAr?$AAu?$AAg?$AAu?$AAa?$AAy@ 0000000180083830     libucrtd:get_qualified_locale.obj
 0002:00019850       ??_C@_1CE@ODILCONM@?$AAs?$AAp?$AAa?$AAn?$AAi?$AAs?$AAh?$AA?9?$AAv?$AAe?$AAn?$AAe?$AAz?$AAu?$AAe@ 0000000180083850     libucrtd:get_qualified_locale.obj
 0002:00019878       ??_C@_1CA@OBNMCGFO@?$AAs?$AAw?$AAe?$AAd?$AAi?$AAs?$AAh?$AA?9?$AAf?$AAi?$AAn?$AAl?$AAa?$AAn?$AAd@ 0000000180083878     libucrtd:get_qualified_locale.obj
 0002:00019898       ??_C@_1M@PIPDDPPI@?$AAs?$AAw?$AAi?$AAs?$AAs@ 0000000180083898     libucrtd:get_qualified_locale.obj
 0002:000198a4       ??_C@_15PJPFLCCM@?$AAu?$AAk@ 00000001800838a4     libucrtd:get_qualified_locale.obj
 0002:000198ac       ??_C@_15GMFIMNFM@?$AAu?$AAs@ 00000001800838ac     libucrtd:get_qualified_locale.obj
 0002:000198b8       ??_C@_17HAEBFAGL@?$AAu?$AAs?$AAa@ 00000001800838b8     libucrtd:get_qualified_locale.obj
 0002:000198c0       ??_C@_1BA@DPFJEPHB@?$AAa?$AAm?$AAe?$AAr?$AAi?$AAc?$AAa@ 00000001800838c0     libucrtd:get_qualified_locale.obj
 0002:000198d0       ??_C@_1BA@ELOGGFK@?$AAb?$AAr?$AAi?$AAt?$AAa?$AAi?$AAn@ 00000001800838d0     libucrtd:get_qualified_locale.obj
 0002:000198e0       ??_C@_1M@GHBGIGDA@?$AAc?$AAh?$AAi?$AAn?$AAa@ 00000001800838e0     libucrtd:get_qualified_locale.obj
 0002:000198f0       ??_C@_1M@NCHEJOPO@?$AAc?$AAz?$AAe?$AAc?$AAh@ 00000001800838f0     libucrtd:get_qualified_locale.obj
 0002:00019900       ??_C@_1BA@BKPAPBLA@?$AAe?$AAn?$AAg?$AAl?$AAa?$AAn?$AAd@ 0000000180083900     libucrtd:get_qualified_locale.obj
 0002:00019910       ??_C@_1BM@HKBCKIPC@?$AAg?$AAr?$AAe?$AAa?$AAt?$AA?5?$AAb?$AAr?$AAi?$AAt?$AAa?$AAi?$AAn@ 0000000180083910     libucrtd:get_qualified_locale.obj
 0002:00019930       ??_C@_1BA@PPCHPGJB@?$AAh?$AAo?$AAl?$AAl?$AAa?$AAn?$AAd@ 0000000180083930     libucrtd:get_qualified_locale.obj
 0002:00019940       ??_C@_1BE@JBMPEGDG@?$AAh?$AAo?$AAn?$AAg?$AA?9?$AAk?$AAo?$AAn?$AAg@ 0000000180083940     libucrtd:get_qualified_locale.obj
 0002:00019958       ??_C@_1BI@KOELBBPJ@?$AAn?$AAe?$AAw?$AA?9?$AAz?$AAe?$AAa?$AAl?$AAa?$AAn?$AAd@ 0000000180083958     libucrtd:get_qualified_locale.obj
 0002:00019970       ??_C@_15HIEBHAIO@?$AAn?$AAz@ 0000000180083970     libucrtd:get_qualified_locale.obj
 0002:00019978       ??_C@_1BC@CHBCPFPI@?$AAp?$AAr?$AA?5?$AAc?$AAh?$AAi?$AAn?$AAa@ 0000000180083978     libucrtd:get_qualified_locale.obj
 0002:00019990       ??_C@_1BC@JAOIIFKD@?$AAp?$AAr?$AA?9?$AAc?$AAh?$AAi?$AAn?$AAa@ 0000000180083990     libucrtd:get_qualified_locale.obj
 0002:000199a8       ??_C@_1BI@BEHPPHKC@?$AAp?$AAu?$AAe?$AAr?$AAt?$AAo?$AA?9?$AAr?$AAi?$AAc?$AAo@ 00000001800839a8     libucrtd:get_qualified_locale.obj
 0002:000199c0       ??_C@_1O@PAEOFKDI@?$AAs?$AAl?$AAo?$AAv?$AAa?$AAk@ 00000001800839c0     libucrtd:get_qualified_locale.obj
 0002:000199d0       ??_C@_1BK@FIHMCKAM@?$AAs?$AAo?$AAu?$AAt?$AAh?$AA?5?$AAa?$AAf?$AAr?$AAi?$AAc?$AAa@ 00000001800839d0     libucrtd:get_qualified_locale.obj
 0002:000199f0       ??_C@_1BI@NAEOODKB@?$AAs?$AAo?$AAu?$AAt?$AAh?$AA?5?$AAk?$AAo?$AAr?$AAe?$AAa@ 00000001800839f0     libucrtd:get_qualified_locale.obj
 0002:00019a08       ??_C@_1BK@FBDGGIFF@?$AAs?$AAo?$AAu?$AAt?$AAh?$AA?9?$AAa?$AAf?$AAr?$AAi?$AAc?$AAa@ 0000000180083a08     libucrtd:get_qualified_locale.obj
 0002:00019a28       ??_C@_1BI@GHLEJDPK@?$AAs?$AAo?$AAu?$AAt?$AAh?$AA?9?$AAk?$AAo?$AAr?$AAe?$AAa@ 0000000180083a28     libucrtd:get_qualified_locale.obj
 0002:00019a40       ??_C@_1CE@PLHLOMJF@?$AAt?$AAr?$AAi?$AAn?$AAi?$AAd?$AAa?$AAd?$AA?5?$AA?$CG?$AA?5?$AAt?$AAo?$AAb?$AAa@ 0000000180083a40     libucrtd:get_qualified_locale.obj
 0002:00019a68       ??_C@_1BO@MODIMHHI@?$AAu?$AAn?$AAi?$AAt?$AAe?$AAd?$AA?9?$AAk?$AAi?$AAn?$AAg?$AAd?$AAo?$AAm@ 0000000180083a68     libucrtd:get_qualified_locale.obj
 0002:00019a88       ??_C@_1BM@FFHJONBJ@?$AAu?$AAn?$AAi?$AAt?$AAe?$AAd?$AA?9?$AAs?$AAt?$AAa?$AAt?$AAe?$AAs@ 0000000180083a88     libucrtd:get_qualified_locale.obj
 0002:00019ab0       ??_C@_1HO@CKHMGCFN@?$AAm?$AAi?$AAn?$AAk?$AAe?$AAr?$AAn?$AAe?$AAl?$AA?2?$AAc?$AAr?$AAt?$AAs?$AA?2@ 0000000180083ab0     libucrtd:get_qualified_locale.obj
 0002:00019b30       ??_C@_1DI@HCPCNHHP@?$AA_?$AA_?$AAa?$AAc?$AAr?$AAt?$AA_?$AAg?$AAe?$AAt?$AA_?$AAq?$AAu?$AAa?$AAl@ 0000000180083b30     libucrtd:get_qualified_locale.obj
 0002:00019b70       ??_C@_1BFC@DEALMEIM@?$AAw?$AAc?$AAs?$AAn?$AAc?$AAp?$AAy?$AA_?$AAs?$AA?$CI?$AAl?$AAp?$AAO?$AAu?$AAt@ 0000000180083b70     libucrtd:get_qualified_locale.obj
 0002:00019cd0       ??_C@_1MG@JCGKALNH@?$AAw?$AAc?$AAs?$AAn?$AAc?$AAp?$AAy?$AA_?$AAs?$AA?$CI?$AAl?$AAp?$AAO?$AAu?$AAt@ 0000000180083cd0     libucrtd:get_qualified_locale.obj
 0002:00019d98       ??_C@_19MPDNHKDG@?$AAu?$AAt?$AAf?$AA8@ 0000000180083d98     libucrtd:get_qualified_locale.obj
 0002:00019da8       ??_C@_1CM@OGEMFJNJ@?$AAL?$AAa?$AAn?$AAg?$AAC?$AAo?$AAu?$AAn?$AAt?$AAr?$AAy?$AAE?$AAn?$AAu?$AAm@ 0000000180083da8     libucrtd:get_qualified_locale.obj
 0002:00019de0       ??_C@_1BDC@CGCEDIGP@?$AAw?$AAc?$AAs?$AAn?$AAc?$AAp?$AAy?$AA_?$AAs?$AA?$CI?$AA_?$AAp?$AAs?$AAe?$AAt@ 0000000180083de0     libucrtd:get_qualified_locale.obj
 0002:00019f18       ??_C@_1CG@PGLLICHO@?$AAL?$AAa?$AAn?$AAg?$AAu?$AAa?$AAg?$AAe?$AAE?$AAn?$AAu?$AAm?$AAP?$AAr?$AAo@ 0000000180083f18     libucrtd:get_qualified_locale.obj
 0002:00019f40       ??_C@_1DC@CPKFANGP@?$AAG?$AAe?$AAt?$AAL?$AAo?$AAc?$AAa?$AAl?$AAe?$AAN?$AAa?$AAm?$AAe?$AAF?$AAr@ 0000000180083f40     libucrtd:get_qualified_locale.obj
 0002:00019f80       ??_C@_1BCC@GMJIFDHO@?$AAw?$AAc?$AAs?$AAn?$AAc?$AAp?$AAy?$AA_?$AAs?$AA?$CI?$AA_?$AAp?$AAs?$AAe?$AAt@ 0000000180083f80     libucrtd:get_qualified_locale.obj
 0002:0001a0a8       ??_C@_17DNCLJFIF@?$AAA?$AAC?$AAP@ 00000001800840a8     libucrtd:get_qualified_locale.obj
 0002:0001a0b0       ??_C@_1M@FPEIIFAM@?$AAu?$AAt?$AAf?$AA?9?$AA8@ 00000001800840b0     libucrtd:get_qualified_locale.obj
 0002:0001a0c0       ??_C@_17CIKBIHLH@?$AAO?$AAC?$AAP@ 00000001800840c0     libucrtd:get_qualified_locale.obj
 0002:0001a0c8       __rglangidNotDefault       00000001800840c8     libucrtd:getqloc_downlevel.obj
 0002:0001a0e0       ??_C@_1GG@MCCIENJO@?$AAm?$AAi?$AAn?$AAk?$AAe?$AAr?$AAn?$AAe?$AAl?$AA?2?$AAc?$AAr?$AAt?$AAs?$AA?2@ 00000001800840e0     libucrtd:mbrtowc.obj
 0002:0001a150       ??_C@_1EK@MCEFBPIK@?$AAr?$AAe?$AAt?$AAv?$AAa?$AAl?$AA?5?$AA?$CB?$AA?$DN?$AA?5?$AA_?$AA_?$AAc?$AAr?$AAt@ 0000000180084150     libucrtd:mbrtowc.obj
 0002:0001a1a0       ??_C@_1EK@OANGPA@?$AA1?$AA?5?$AA?$DM?$AA?$DN?$AA?5?$AAt?$AAr?$AAa?$AAi?$AAl?$AA_?$AAb?$AAy?$AAt?$AAe@ 00000001800841a0     libucrtd:c32rtomb.obj
 0002:0001a1f0       ??_C@_1GI@FBFKMNDD@?$AAm?$AAi?$AAn?$AAk?$AAe?$AAr?$AAn?$AAe?$AAl?$AA?2?$AAc?$AAr?$AAt?$AAs?$AA?2@ 00000001800841f0     libucrtd:c32rtomb.obj
 0002:0001a260       ??_C@_1EA@DDDCIHI@?$AAc?$AA3?$AA2?$AA?5?$AA?$DM?$AA?5?$AA?$CI?$AA1?$AAu?$AA?5?$AA?$DM?$AA?$DM?$AA?5?$AA?$CI?$AA7@ 0000000180084260     libucrtd:c32rtomb.obj
 0002:0001a2a0       ??_C@_1GI@IMEEHIAK@?$AAm?$AAi?$AAn?$AAk?$AAe?$AAr?$AAn?$AAe?$AAl?$AA?2?$AAc?$AAr?$AAt?$AAs?$AA?2@ 00000001800842a0     libucrtd:_fptostr.obj
 0002:0001a308       ??_C@_1DG@NMGBKPMI@?$AA_?$AA_?$AAa?$AAc?$AAr?$AAt?$AA_?$AAf?$AAp?$AA_?$AAs?$AAt?$AAr?$AAf?$AAl@ 0000000180084308     libucrtd:_fptostr.obj
 0002:0001a340       ??_C@_1IE@EAOKIIFP@?$AAb?$AAu?$AAf?$AAf?$AAe?$AAr?$AA_?$AAc?$AAo?$AAu?$AAn?$AAt?$AA?5?$AA?$DO?$AA?5@ 0000000180084340     libucrtd:_fptostr.obj
 0002:0001a3c8       ??_C@_1CA@EDEEBMBB@?$AAp?$AAf?$AAl?$AAt?$AA?5?$AA?$CB?$AA?$DN?$AA?5?$AAn?$AAu?$AAl?$AAl?$AAp?$AAt?$AAr@ 00000001800843c8     libucrtd:_fptostr.obj
 0002:0001a3f0       ??_C@_1GC@DDAKNBNC@?$AAm?$AAi?$AAn?$AAk?$AAe?$AAr?$AAn?$AAe?$AAl?$AA?2?$AAc?$AAr?$AAt?$AAs?$AA?2@ 00000001800843f0     libucrtd:cfout.obj
 0002:0001a458       ??_C@_1BM@FAAOAKKO@?$AA_?$AA_?$AAa?$AAc?$AAr?$AAt?$AA_?$AAf?$AAl?$AAt?$AAo?$AAu?$AAt@ 0000000180084458     libucrtd:cfout.obj
 0002:0001a480       ??_C@_1EI@OACEJKEP@?$AAs?$AAt?$AAr?$AAc?$AAp?$AAy?$AA_?$AAs?$AA?$CI?$AAr?$AAe?$AAs?$AAu?$AAl?$AAt@ 0000000180084480     libucrtd:cfout.obj
 0002:0001a4c8       ??_C@_01GBGANLPD@0@        00000001800844c8     libucrtd:cfout.obj
 0002:0001a4d0       ??_C@_1FC@KIECGFMP@?$AAs?$AAt?$AAr?$AAc?$AAp?$AAy?$AA_?$AAs?$AA?$CI?$AAr?$AAe?$AAs?$AAu?$AAl?$AAt@ 00000001800844d0     libucrtd:cfout.obj
 0002:0001a524       ??_C@_05DNEBIAHO@1?$CDINF@ 0000000180084524     libucrtd:cfout.obj
 0002:0001a530       ??_C@_1FC@NFPJEIBD@?$AAs?$AAt?$AAr?$AAc?$AAp?$AAy?$AA_?$AAs?$AA?$CI?$AAr?$AAe?$AAs?$AAu?$AAl?$AAt@ 0000000180084530     libucrtd:cfout.obj
 0002:0001a584       ??_C@_06IMKFLFPG@1?$CDQNAN@ 0000000180084584     libucrtd:cfout.obj
 0002:0001a590       ??_C@_1FC@DEJHIMLO@?$AAs?$AAt?$AAr?$AAc?$AAp?$AAy?$AA_?$AAs?$AA?$CI?$AAr?$AAe?$AAs?$AAu?$AAl?$AAt@ 0000000180084590     libucrtd:cfout.obj
 0002:0001a5e4       ??_C@_06PGGFOGJG@1?$CDSNAN@ 00000001800845e4     libucrtd:cfout.obj
 0002:0001a5f0       ??_C@_1FC@KMLHLFPC@?$AAs?$AAt?$AAr?$AAc?$AAp?$AAy?$AA_?$AAs?$AA?$CI?$AAr?$AAe?$AAs?$AAu?$AAl?$AAt@ 00000001800845f0     libucrtd:cfout.obj
 0002:0001a644       ??_C@_05PHHOCPM@1?$CDIND@  0000000180084644     libucrtd:cfout.obj
 0002:0001a650       ??_C@_1DE@KHKADFOO@?$AAm?$AAa?$AAn?$AAt?$AAi?$AAs?$AAs?$AAa?$AA_?$AAb?$AAu?$AAf?$AAf?$AAe?$AAr@ 0000000180084650     libucrtd:cfout.obj
 0002:0001a690       ??_C@_1FI@LFKLOPAC@?$AA?$CI?$AA?$CC?$AAu?$AAn?$AAe?$AAx?$AAp?$AAe?$AAc?$AAt?$AAe?$AAd?$AA?5?$AAi?$AAn@ 0000000180084690     libucrtd:cfout.obj
 0002:0001a6f0       ??_C@_1FG@MLHBDPBG@?$AAq?$AAu?$AAo?$AAt?$AAi?$AAe?$AAn?$AAt?$AA?5?$AA?$DM?$AA?5?$AAd?$AAi?$AAg?$AAi@ 00000001800846f0     libucrtd:cfout.obj
 0002:0001a750       ??_C@_1GA@DEPMKPD@?$AAm?$AAi?$AAn?$AAk?$AAe?$AAr?$AAn?$AAe?$AAl?$AA?2?$AAc?$AAr?$AAt?$AAs?$AA?2@ 0000000180084750     libucrtd:isatty.obj
 0002:0001a7b0       ??_C@_1BA@LEBDGIHM@?$AA_?$AAi?$AAs?$AAa?$AAt?$AAt?$AAy@ 00000001800847b0     libucrtd:isatty.obj
 0002:0001a7c0       ??_C@_0DB@JFFPGLDM@minkernel?2crts?2ucrt?2src?2appcrt?2@ 00000001800847c0     libucrtd:osfinfo.obj
 0002:0001a800       ??_C@_1EM@BPODPNEJ@?$AAs?$AAt?$AAa?$AAt?$AAi?$AAc?$AA_?$AAc?$AAa?$AAs?$AAt?$AA?$DM?$AAu?$AAn?$AAs@ 0000000180084800     libucrtd:osfinfo.obj
 0002:0001a850       ??_C@_1GC@LDGKBAFM@?$AAm?$AAi?$AAn?$AAk?$AAe?$AAr?$AAn?$AAe?$AAl?$AA?2?$AAc?$AAr?$AAt?$AAs?$AA?2@ 0000000180084850     libucrtd:osfinfo.obj
 0002:0001a8b8       ??_C@_1DM@JELNOMLN@?$AA_?$AA_?$AAa?$AAc?$AAr?$AAt?$AA_?$AAl?$AAo?$AAw?$AAi?$AAo?$AA_?$AAe?$AAn@ 00000001800848b8     libucrtd:osfinfo.obj
 0002:0001a8f8       ??_C@_1BO@EMBOBGKE@?$AA_?$AAg?$AAe?$AAt?$AA_?$AAo?$AAs?$AAf?$AAh?$AAa?$AAn?$AAd?$AAl?$AAe@ 00000001800848f8     libucrtd:osfinfo.obj
 0002:0001b770       ??_C@_15EMKDOKLE@?$AAa?$AAr@ 0000000180085770     libucrtd:lcidtoname_downlevel.obj
 0002:0001b778       ??_C@_15KNPADPLH@?$AAb?$AAg@ 0000000180085778     libucrtd:lcidtoname_downlevel.obj
 0002:0001b780       ??_C@_15EDMHLDMO@?$AAc?$AAa@ 0000000180085780     libucrtd:lcidtoname_downlevel.obj
 0002:0001b788       ??_C@_1O@BPEAJADD@?$AAz?$AAh?$AA?9?$AAC?$AAH?$AAS@ 0000000180085788     libucrtd:lcidtoname_downlevel.obj
 0002:0001b798       ??_C@_15LJNHCMNK@?$AAc?$AAs@ 0000000180085798     libucrtd:lcidtoname_downlevel.obj
 0002:0001b7a0       ??_C@_15FOMCIDHG@?$AAd?$AAa@ 00000001800857a0     libucrtd:lcidtoname_downlevel.obj
 0002:0001b7a8       ??_C@_15NBKABECB@?$AAd?$AAe@ 00000001800857a8     libucrtd:lcidtoname_downlevel.obj
 0002:0001b7b0       ??_C@_15GHPEIIAO@?$AAe?$AAl@ 00000001800857b0     libucrtd:lcidtoname_downlevel.obj
 0002:0001b7b8       ??_C@_15MNPNEAIF@?$AAe?$AAn@ 00000001800857b8     libucrtd:lcidtoname_downlevel.obj
 0002:0001b7c0       ??_C@_15GPIOMPMH@?$AAe?$AAs@ 00000001800857c0     libucrtd:lcidtoname_downlevel.obj
 0002:0001b7c8       ??_C@_15NGLOAKJC@?$AAf?$AAi@ 00000001800857c8     libucrtd:lcidtoname_downlevel.obj
 0002:0001b7d0       ??_C@_15FBKGNKAM@?$AAf?$AAr@ 00000001800857d0     libucrtd:lcidtoname_downlevel.obj
 0002:0001b7d8       ??_C@_15KGGCNEFK@?$AAh?$AAe@ 00000001800857d8     libucrtd:lcidtoname_downlevel.obj
 0002:0001b7e0       ??_C@_15PGHLIDMF@?$AAh?$AAu@ 00000001800857e0     libucrtd:lcidtoname_downlevel.obj
 0002:0001b7e8       ??_C@_15BIEMAPLM@?$AAi?$AAs@ 00000001800857e8     libucrtd:lcidtoname_downlevel.obj
 0002:0001b7f0       ??_C@_15IFJLDHAF@?$AAi?$AAt@ 00000001800857f0     libucrtd:lcidtoname_downlevel.obj
 0002:0001b7f8       ??_C@_15GEMIOCAG@?$AAj?$AAa@ 00000001800857f8     libucrtd:lcidtoname_downlevel.obj
 0002:0001b800       ??_C@_15EPELEGJA@?$AAk?$AAo@ 0000000180085800     libucrtd:lcidtoname_downlevel.obj
 0002:0001b808       ??_C@_15NDDHIMN@?$AAn?$AAl@ 0000000180085808     libucrtd:lcidtoname_downlevel.obj
 0002:0001b810       ??_C@_15BPIGNHCD@?$AAn?$AAo@ 0000000180085810     libucrtd:lcidtoname_downlevel.obj
 0002:0001b818       ??_C@_15DEOPBLCG@?$AAp?$AAl@ 0000000180085818     libucrtd:lcidtoname_downlevel.obj
 0002:0001b820       ??_C@_15KBECGEFG@?$AAp?$AAt@ 0000000180085820     libucrtd:lcidtoname_downlevel.obj
 0002:0001b828       ??_C@_15GLJCBFMD@?$AAr?$AAo@ 0000000180085828     libucrtd:lcidtoname_downlevel.obj
 0002:0001b830       ??_C@_15FEDGKCDI@?$AAr?$AAu@ 0000000180085830     libucrtd:lcidtoname_downlevel.obj
 0002:0001b838       ??_C@_15GLKMLLHM@?$AAh?$AAr@ 0000000180085838     libucrtd:lcidtoname_downlevel.obj
 0002:0001b840       ??_C@_15CPKMFBDB@?$AAs?$AAk@ 0000000180085840     libucrtd:lcidtoname_downlevel.obj
 0002:0001b848       ??_C@_15BAAIOGMK@?$AAs?$AAq@ 0000000180085848     libucrtd:lcidtoname_downlevel.obj
 0002:0001b850       ??_C@_15INNPNOHD@?$AAs?$AAv@ 0000000180085850     libucrtd:lcidtoname_downlevel.obj
 0002:0001b858       ??_C@_15CABMMOGH@?$AAt?$AAh@ 0000000180085858     libucrtd:lcidtoname_downlevel.obj
 0002:0001b860       ??_C@_15BPLIHJJM@?$AAt?$AAr@ 0000000180085860     libucrtd:lcidtoname_downlevel.obj
 0002:0001b868       ??_C@_15NEOEKKDJ@?$AAu?$AAr@ 0000000180085868     libucrtd:lcidtoname_downlevel.obj
 0002:0001b870       ??_C@_15NFICGAJK@?$AAi?$AAd@ 0000000180085870     libucrtd:lcidtoname_downlevel.obj
 0002:0001b878       ??_C@_15HPJPHDM@?$AAb?$AAe@ 0000000180085878     libucrtd:lcidtoname_downlevel.obj
 0002:0001b880       ??_C@_15LCHLGJII@?$AAs?$AAl@ 0000000180085880     libucrtd:lcidtoname_downlevel.obj
 0002:0001b888       ??_C@_15PCFJPHHO@?$AAe?$AAt@ 0000000180085888     libucrtd:lcidtoname_downlevel.obj
 0002:0001b890       ??_C@_15HPFPGODN@?$AAl?$AAv@ 0000000180085890     libucrtd:lcidtoname_downlevel.obj
 0002:0001b898       ??_C@_15NFFGKGLG@?$AAl?$AAt@ 0000000180085898     libucrtd:lcidtoname_downlevel.obj
 0002:0001b8a0       ??_C@_15BDAKCCHN@?$AAf?$AAa@ 00000001800858a0     libucrtd:lcidtoname_downlevel.obj
 0002:0001b8a8       ??_C@_15NFGIAIAJ@?$AAv?$AAi@ 00000001800858a8     libucrtd:lcidtoname_downlevel.obj
 0002:0001b8b0       ??_C@_15LMKNDMHN@?$AAh?$AAy@ 00000001800858b0     libucrtd:lcidtoname_downlevel.obj
 0002:0001b8b8       ??_C@_15IJBHMCFL@?$AAa?$AAz@ 00000001800858b8     libucrtd:lcidtoname_downlevel.obj
 0002:0001b8c0       ??_C@_15EKOFJABL@?$AAe?$AAu@ 00000001800858c0     libucrtd:lcidtoname_downlevel.obj
 0002:0001b8c8       ??_C@_15BGHADCNK@?$AAm?$AAk@ 00000001800858c8     libucrtd:lcidtoname_downlevel.obj
 0002:0001b8d0       ??_C@_15JDNICKHM@?$AAa?$AAf@ 00000001800858d0     libucrtd:lcidtoname_downlevel.obj
 0002:0001b8d8       ??_C@_15KPJEDBKD@?$AAk?$AAa@ 00000001800858d8     libucrtd:lcidtoname_downlevel.obj
 0002:0001b8e0       ??_C@_15PDNFFFEO@?$AAf?$AAo@ 00000001800858e0     libucrtd:lcidtoname_downlevel.obj
 0002:0001b8e8       ??_C@_15OMLEGLOC@?$AAh?$AAi@ 00000001800858e8     libucrtd:lcidtoname_downlevel.obj
 0002:0001b8f0       ??_C@_15IDNNENKK@?$AAm?$AAs@ 00000001800858f0     libucrtd:lcidtoname_downlevel.obj
 0002:0001b8f8       ??_C@_15MACJNBMH@?$AAk?$AAk@ 00000001800858f8     libucrtd:lcidtoname_downlevel.obj
 0002:0001b900       ??_C@_15DKDJEOND@?$AAk?$AAy@ 0000000180085900     libucrtd:lcidtoname_downlevel.obj
 0002:0001b908       ??_C@_15DFGDLJBG@?$AAs?$AAw@ 0000000180085908     libucrtd:lcidtoname_downlevel.obj
 0002:0001b910       ??_C@_15BBFAICNG@?$AAu?$AAz@ 0000000180085910     libucrtd:lcidtoname_downlevel.obj
 0002:0001b918       ??_C@_15DKNDCGEA@?$AAt?$AAt@ 0000000180085918     libucrtd:lcidtoname_downlevel.obj
 0002:0001b920       ??_C@_15MGIFMDPL@?$AAp?$AAa@ 0000000180085920     libucrtd:lcidtoname_downlevel.obj
 0002:0001b928       ??_C@_15HCNDBBA@?$AAg?$AAu@ 0000000180085928     libucrtd:lcidtoname_downlevel.obj
 0002:0001b930       ??_C@_15FNBEIBON@?$AAt?$AAa@ 0000000180085930     libucrtd:lcidtoname_downlevel.obj
 0002:0001b938       ??_C@_15NCHGBGLK@?$AAt?$AAe@ 0000000180085938     libucrtd:lcidtoname_downlevel.obj
 0002:0001b940       ??_C@_15PHPHCBPF@?$AAk?$AAn@ 0000000180085940     libucrtd:lcidtoname_downlevel.obj
 0002:0001b948       ??_C@_15DLGBCKMP@?$AAm?$AAr@ 0000000180085948     libucrtd:lcidtoname_downlevel.obj
 0002:0001b950       ??_C@_15EABBLBFF@?$AAs?$AAa@ 0000000180085950     libucrtd:lcidtoname_downlevel.obj
 0002:0001b958       ??_C@_15CBKOMCOI@?$AAm?$AAn@ 0000000180085958     libucrtd:lcidtoname_downlevel.obj
 0002:0001b960       ??_C@_15CKDMCJAF@?$AAg?$AAl@ 0000000180085960     libucrtd:lcidtoname_downlevel.obj
 0002:0001b968       ??_C@_17CNJFBPG@?$AAk?$AAo?$AAk@ 0000000180085968     libucrtd:lcidtoname_downlevel.obj
 0002:0001b970       ??_C@_17FFBJICPL@?$AAs?$AAy?$AAr@ 0000000180085970     libucrtd:lcidtoname_downlevel.obj
 0002:0001b978       ??_C@_17KPNDCPAF@?$AAd?$AAi?$AAv@ 0000000180085978     libucrtd:lcidtoname_downlevel.obj
 0002:0001b980       ??_C@_1M@OKAHONE@?$AAa?$AAr?$AA?9?$AAS?$AAA@ 0000000180085980     libucrtd:lcidtoname_downlevel.obj
 0002:0001b990       ??_C@_1M@FFFIGIGK@?$AAb?$AAg?$AA?9?$AAB?$AAG@ 0000000180085990     libucrtd:lcidtoname_downlevel.obj
 0002:0001b9a0       ??_C@_1M@BJNKEDC@?$AAc?$AAa?$AA?9?$AAE?$AAS@ 00000001800859a0     libucrtd:lcidtoname_downlevel.obj
 0002:0001b9b0       ??_C@_1M@IJJHFJHA@?$AAc?$AAs?$AA?9?$AAC?$AAZ@ 00000001800859b0     libucrtd:lcidtoname_downlevel.obj
 0002:0001b9c0       ??_C@_1M@CLPEOBGI@?$AAd?$AAa?$AA?9?$AAD?$AAK@ 00000001800859c0     libucrtd:lcidtoname_downlevel.obj
 0002:0001b9d0       ??_C@_1M@MCMADGCB@?$AAd?$AAe?$AA?9?$AAD?$AAE@ 00000001800859d0     libucrtd:lcidtoname_downlevel.obj
 0002:0001b9e0       ??_C@_1M@OOCKEMAM@?$AAe?$AAl?$AA?9?$AAG?$AAR@ 00000001800859e0     libucrtd:lcidtoname_downlevel.obj
 0002:0001b9f0       ??_C@_1M@DDNJFGID@?$AAf?$AAi?$AA?9?$AAF?$AAI@ 00000001800859f0     libucrtd:lcidtoname_downlevel.obj
 0002:0001ba00       ??_C@_1M@GLIPPMAC@?$AAf?$AAr?$AA?9?$AAF?$AAR@ 0000000180085a00     libucrtd:lcidtoname_downlevel.obj
 0002:0001ba10       ??_C@_1M@GFMCHPE@?$AAh?$AAe?$AA?9?$AAI?$AAL@ 0000000180085a10     libucrtd:lcidtoname_downlevel.obj
 0002:0001ba20       ??_C@_1M@MHLPGNKM@?$AAh?$AAu?$AA?9?$AAH?$AAU@ 0000000180085a20     libucrtd:lcidtoname_downlevel.obj
 0002:0001ba30       ??_C@_1M@LPDDNNPN@?$AAi?$AAs?$AA?9?$AAI?$AAS@ 0000000180085a30     libucrtd:lcidtoname_downlevel.obj
 0002:0001ba40       ??_C@_1M@MADIPODN@?$AAi?$AAt?$AA?9?$AAI?$AAT@ 0000000180085a40     libucrtd:lcidtoname_downlevel.obj
 0002:0001ba50       ??_C@_1M@IHBJJGG@?$AAn?$AAl?$AA?9?$AAN?$AAL@ 0000000180085a50     libucrtd:lcidtoname_downlevel.obj
 0002:0001ba60       ??_C@_1M@EANAGDL@?$AAn?$AAb?$AA?9?$AAN?$AAO@ 0000000180085a60     libucrtd:lcidtoname_downlevel.obj
 0002:0001ba70       ??_C@_1M@NEIEMEGP@?$AAp?$AAl?$AA?9?$AAP?$AAL@ 0000000180085a70     libucrtd:lcidtoname_downlevel.obj
 0002:0001ba80       ??_C@_1M@BOCFIGEP@?$AAp?$AAt?$AA?9?$AAB?$AAR@ 0000000180085a80     libucrtd:lcidtoname_downlevel.obj
 0002:0001ba90       ??_C@_1M@IMPFOPBG@?$AAr?$AAo?$AA?9?$AAR?$AAO@ 0000000180085a90     libucrtd:lcidtoname_downlevel.obj
 0002:0001baa0       ??_C@_1M@IDNNEJMM@?$AAr?$AAu?$AA?9?$AAR?$AAU@ 0000000180085aa0     libucrtd:lcidtoname_downlevel.obj
 0002:0001bab0       ??_C@_1M@LILEEOGM@?$AAh?$AAr?$AA?9?$AAH?$AAR@ 0000000180085ab0     libucrtd:lcidtoname_downlevel.obj
 0002:0001bac0       ??_C@_1M@FKIFEHPB@?$AAs?$AAk?$AA?9?$AAS?$AAK@ 0000000180085ac0     libucrtd:lcidtoname_downlevel.obj
 0002:0001bad0       ??_C@_1M@LJMAMNPJ@?$AAs?$AAq?$AA?9?$AAA?$AAL@ 0000000180085ad0     libucrtd:lcidtoname_downlevel.obj
 0002:0001bae0       ??_C@_1M@GIAKDKJK@?$AAs?$AAv?$AA?9?$AAS?$AAE@ 0000000180085ae0     libucrtd:lcidtoname_downlevel.obj
 0002:0001baf0       ??_C@_1M@MKJKIKCL@?$AAt?$AAh?$AA?9?$AAT?$AAH@ 0000000180085af0     libucrtd:lcidtoname_downlevel.obj
 0002:0001bb00       ??_C@_1M@MFLCCMPB@?$AAt?$AAr?$AA?9?$AAT?$AAR@ 0000000180085b00     libucrtd:lcidtoname_downlevel.obj
 0002:0001bb10       ??_C@_1M@OIJHDKJN@?$AAu?$AAr?$AA?9?$AAP?$AAK@ 0000000180085b10     libucrtd:lcidtoname_downlevel.obj
 0002:0001bb20       ??_C@_1M@LHIPCIEK@?$AAi?$AAd?$AA?9?$AAI?$AAD@ 0000000180085b20     libucrtd:lcidtoname_downlevel.obj
 0002:0001bb30       ??_C@_1M@MFMOBGI@?$AAu?$AAk?$AA?9?$AAU?$AAA@ 0000000180085b30     libucrtd:lcidtoname_downlevel.obj
 0002:0001bb40       ??_C@_1M@OBGLJIPL@?$AAb?$AAe?$AA?9?$AAB?$AAY@ 0000000180085b40     libucrtd:lcidtoname_downlevel.obj
 0002:0001bb50       ??_C@_1M@BCFAJEAD@?$AAs?$AAl?$AA?9?$AAS?$AAI@ 0000000180085b50     libucrtd:lcidtoname_downlevel.obj
 0002:0001bb60       ??_C@_1M@FKFFEDDN@?$AAe?$AAt?$AA?9?$AAE?$AAE@ 0000000180085b60     libucrtd:lcidtoname_downlevel.obj
 0002:0001bb70       ??_C@_1M@KGKKAACI@?$AAl?$AAv?$AA?9?$AAL?$AAV@ 0000000180085b70     libucrtd:lcidtoname_downlevel.obj
 0002:0001bb80       ??_C@_1M@IFGBIJO@?$AAl?$AAt?$AA?9?$AAL?$AAT@ 0000000180085b80     libucrtd:lcidtoname_downlevel.obj
 0002:0001bb90       ??_C@_1M@FGEAHEDM@?$AAf?$AAa?$AA?9?$AAI?$AAR@ 0000000180085b90     libucrtd:lcidtoname_downlevel.obj
 0002:0001bba0       ??_C@_1M@KBMAIBFN@?$AAv?$AAi?$AA?9?$AAV?$AAN@ 0000000180085ba0     libucrtd:lcidtoname_downlevel.obj
 0002:0001bbb0       ??_C@_1M@GPCBKDJK@?$AAh?$AAy?$AA?9?$AAA?$AAM@ 0000000180085bb0     libucrtd:lcidtoname_downlevel.obj
 0002:0001bbc0       ??_C@_1BG@BECMDDJB@?$AAa?$AAz?$AA?9?$AAA?$AAZ?$AA?9?$AAL?$AAa?$AAt?$AAn@ 0000000180085bc0     libucrtd:lcidtoname_downlevel.obj
 0002:0001bbd8       ??_C@_1M@MAOFCAEA@?$AAe?$AAu?$AA?9?$AAE?$AAS@ 0000000180085bd8     libucrtd:lcidtoname_downlevel.obj
 0002:0001bbe8       ??_C@_1M@IGHABKPI@?$AAm?$AAk?$AA?9?$AAM?$AAK@ 0000000180085be8     libucrtd:lcidtoname_downlevel.obj
 0002:0001bbf8       ??_C@_1M@IAIGNEJG@?$AAt?$AAn?$AA?9?$AAZ?$AAA@ 0000000180085bf8     libucrtd:lcidtoname_downlevel.obj
 0002:0001bc08       ??_C@_1M@IIJCOJFA@?$AAx?$AAh?$AA?9?$AAZ?$AAA@ 0000000180085c08     libucrtd:lcidtoname_downlevel.obj
 0002:0001bc18       ??_C@_1M@LGPJHNJH@?$AAz?$AAu?$AA?9?$AAZ?$AAA@ 0000000180085c18     libucrtd:lcidtoname_downlevel.obj
 0002:0001bc28       ??_C@_1M@HOKAOIO@?$AAa?$AAf?$AA?9?$AAZ?$AAA@ 0000000180085c28     libucrtd:lcidtoname_downlevel.obj
 0002:0001bc38       ??_C@_1M@DPCLHLIE@?$AAk?$AAa?$AA?9?$AAG?$AAE@ 0000000180085c38     libucrtd:lcidtoname_downlevel.obj
 0002:0001bc48       ??_C@_1M@BLKMHJBI@?$AAf?$AAo?$AA?9?$AAF?$AAO@ 0000000180085c48     libucrtd:lcidtoname_downlevel.obj
 0002:0001bc58       ??_C@_1M@LGGJAPPB@?$AAh?$AAi?$AA?9?$AAI?$AAN@ 0000000180085c58     libucrtd:lcidtoname_downlevel.obj
 0002:0001bc68       ??_C@_1M@FIKPIHFE@?$AAm?$AAt?$AA?9?$AAM?$AAT@ 0000000180085c68     libucrtd:lcidtoname_downlevel.obj
 0002:0001bc78       ??_C@_1M@HEGGPBFA@?$AAs?$AAe?$AA?9?$AAN?$AAO@ 0000000180085c78     libucrtd:lcidtoname_downlevel.obj
 0002:0001bc88       ??_C@_1M@EIBJEEPA@?$AAm?$AAs?$AA?9?$AAM?$AAY@ 0000000180085c88     libucrtd:lcidtoname_downlevel.obj
 0002:0001bc98       ??_C@_1M@FHLBGMPP@?$AAk?$AAk?$AA?9?$AAK?$AAZ@ 0000000180085c98     libucrtd:lcidtoname_downlevel.obj
 0002:0001bca8       ??_C@_1M@NGJJLCGI@?$AAk?$AAy?$AA?9?$AAK?$AAG@ 0000000180085ca8     libucrtd:lcidtoname_downlevel.obj
 0002:0001bcb8       ??_C@_1M@GIENNBFC@?$AAs?$AAw?$AA?9?$AAK?$AAE@ 0000000180085cb8     libucrtd:lcidtoname_downlevel.obj
 0002:0001bcc8       ??_C@_1BG@NDGMJIMJ@?$AAu?$AAz?$AA?9?$AAU?$AAZ?$AA?9?$AAL?$AAa?$AAt?$AAn@ 0000000180085cc8     libucrtd:lcidtoname_downlevel.obj
 0002:0001bce0       ??_C@_1M@IDCCIHBC@?$AAt?$AAt?$AA?9?$AAR?$AAU@ 0000000180085ce0     libucrtd:lcidtoname_downlevel.obj
 0002:0001bcf0       ??_C@_1M@LOICPMOJ@?$AAb?$AAn?$AA?9?$AAI?$AAN@ 0000000180085cf0     libucrtd:lcidtoname_downlevel.obj
 0002:0001bd00       ??_C@_1M@KPKKNEAH@?$AAp?$AAa?$AA?9?$AAI?$AAN@ 0000000180085d00     libucrtd:lcidtoname_downlevel.obj
 0002:0001bd10       ??_C@_1M@PJGPPBOG@?$AAg?$AAu?$AA?9?$AAI?$AAN@ 0000000180085d10     libucrtd:lcidtoname_downlevel.obj
 0002:0001bd20       ??_C@_1M@KMKMOPHI@?$AAt?$AAa?$AA?9?$AAI?$AAN@ 0000000180085d20     libucrtd:lcidtoname_downlevel.obj
 0002:0001bd30       ??_C@_1M@KFEHEPAC@?$AAt?$AAe?$AA?9?$AAI?$AAN@ 0000000180085d30     libucrtd:lcidtoname_downlevel.obj
 0002:0001bd40       ??_C@_1M@CDCLMGHI@?$AAk?$AAn?$AA?9?$AAI?$AAN@ 0000000180085d40     libucrtd:lcidtoname_downlevel.obj
 0002:0001bd50       ??_C@_1M@MIODLDKF@?$AAm?$AAl?$AA?9?$AAI?$AAN@ 0000000180085d50     libucrtd:lcidtoname_downlevel.obj
 0002:0001bd60       ??_C@_1M@PBIEACPO@?$AAm?$AAr?$AA?9?$AAI?$AAN@ 0000000180085d60     libucrtd:lcidtoname_downlevel.obj
 0002:0001bd70       ??_C@_1M@NIDEAGPH@?$AAs?$AAa?$AA?9?$AAI?$AAN@ 0000000180085d70     libucrtd:lcidtoname_downlevel.obj
 0002:0001bd80       ??_C@_1M@FHIHCBIO@?$AAm?$AAn?$AA?9?$AAM?$AAN@ 0000000180085d80     libucrtd:lcidtoname_downlevel.obj
 0002:0001bd90       ??_C@_1M@JAIJPENP@?$AAc?$AAy?$AA?9?$AAG?$AAB@ 0000000180085d90     libucrtd:lcidtoname_downlevel.obj
 0002:0001bda0       ??_C@_1M@PHGFBEPN@?$AAg?$AAl?$AA?9?$AAE?$AAS@ 0000000180085da0     libucrtd:lcidtoname_downlevel.obj
 0002:0001bdb0       ??_C@_1O@KPIPDNCP@?$AAk?$AAo?$AAk?$AA?9?$AAI?$AAN@ 0000000180085db0     libucrtd:lcidtoname_downlevel.obj
 0002:0001bdc0       ??_C@_1O@KNHJLDJA@?$AAs?$AAy?$AAr?$AA?9?$AAS?$AAY@ 0000000180085dc0     libucrtd:lcidtoname_downlevel.obj
 0002:0001bdd0       ??_C@_1O@MKEKBLAH@?$AAd?$AAi?$AAv?$AA?9?$AAM?$AAV@ 0000000180085dd0     libucrtd:lcidtoname_downlevel.obj
 0002:0001bde0       ??_C@_1O@OHDCKDDF@?$AAq?$AAu?$AAz?$AA?9?$AAB?$AAO@ 0000000180085de0     libucrtd:lcidtoname_downlevel.obj
 0002:0001bdf0       ??_C@_1M@LEPJNLFD@?$AAn?$AAs?$AA?9?$AAZ?$AAA@ 0000000180085df0     libucrtd:lcidtoname_downlevel.obj
 0002:0001be00       ??_C@_1M@OMLEIIJB@?$AAm?$AAi?$AA?9?$AAN?$AAZ@ 0000000180085e00     libucrtd:lcidtoname_downlevel.obj
 0002:0001be10       ??_C@_1M@PMPEAILG@?$AAa?$AAr?$AA?9?$AAI?$AAQ@ 0000000180085e10     libucrtd:lcidtoname_downlevel.obj
 0002:0001be20       ??_C@_1M@CNKPNOEE@?$AAd?$AAe?$AA?9?$AAC?$AAH@ 0000000180085e20     libucrtd:lcidtoname_downlevel.obj
 0002:0001be30       ??_C@_1M@LKMGMLKO@?$AAe?$AAn?$AA?9?$AAG?$AAB@ 0000000180085e30     libucrtd:lcidtoname_downlevel.obj
 0002:0001be40       ??_C@_1M@PGKJFFGL@?$AAe?$AAs?$AA?9?$AAM?$AAX@ 0000000180085e40     libucrtd:lcidtoname_downlevel.obj
 0002:0001be50       ??_C@_1M@DNNANBDC@?$AAf?$AAr?$AA?9?$AAB?$AAE@ 0000000180085e50     libucrtd:lcidtoname_downlevel.obj
 0002:0001be60       ??_C@_1M@HLGMDFHM@?$AAi?$AAt?$AA?9?$AAC?$AAH@ 0000000180085e60     libucrtd:lcidtoname_downlevel.obj
 0002:0001be70       ??_C@_1M@CLLBGJH@?$AAn?$AAl?$AA?9?$AAB?$AAE@ 0000000180085e70     libucrtd:lcidtoname_downlevel.obj
 0002:0001be80       ??_C@_1M@BODBOGLF@?$AAn?$AAn?$AA?9?$AAN?$AAO@ 0000000180085e80     libucrtd:lcidtoname_downlevel.obj
 0002:0001be90       ??_C@_1M@HFFAHKAD@?$AAp?$AAt?$AA?9?$AAP?$AAT@ 0000000180085e90     libucrtd:lcidtoname_downlevel.obj
 0002:0001bea0       ??_C@_1BG@LNOAKHIE@?$AAs?$AAr?$AA?9?$AAS?$AAP?$AA?9?$AAL?$AAa?$AAt?$AAn@ 0000000180085ea0     libucrtd:lcidtoname_downlevel.obj
 0002:0001beb8       ??_C@_1M@HBMHBGAK@?$AAs?$AAv?$AA?9?$AAF?$AAI@ 0000000180085eb8     libucrtd:lcidtoname_downlevel.obj
 0002:0001bec8       ??_C@_1BG@DGCJGJBE@?$AAa?$AAz?$AA?9?$AAA?$AAZ?$AA?9?$AAC?$AAy?$AAr?$AAl@ 0000000180085ec8     libucrtd:lcidtoname_downlevel.obj
 0002:0001bee0       ??_C@_1M@KEJDAAHB@?$AAs?$AAe?$AA?9?$AAS?$AAE@ 0000000180085ee0     libucrtd:lcidtoname_downlevel.obj
 0002:0001bef0       ??_C@_1M@HEIBJJAD@?$AAm?$AAs?$AA?9?$AAB?$AAN@ 0000000180085ef0     libucrtd:lcidtoname_downlevel.obj
 0002:0001bf00       ??_C@_1BG@PBGJMCEM@?$AAu?$AAz?$AA?9?$AAU?$AAZ?$AA?9?$AAC?$AAy?$AAr?$AAl@ 0000000180085f00     libucrtd:lcidtoname_downlevel.obj
 0002:0001bf18       ??_C@_1O@LAOBCMDF@?$AAq?$AAu?$AAz?$AA?9?$AAE?$AAC@ 0000000180085f18     libucrtd:lcidtoname_downlevel.obj
 0002:0001bf28       ??_C@_1M@POEEMAIO@?$AAa?$AAr?$AA?9?$AAE?$AAG@ 0000000180085f28     libucrtd:lcidtoname_downlevel.obj
 0002:0001bf38       ??_C@_1M@EFAKDEDL@?$AAz?$AAh?$AA?9?$AAH?$AAK@ 0000000180085f38     libucrtd:lcidtoname_downlevel.obj
 0002:0001bf48       ??_C@_1M@HKKIJHGI@?$AAd?$AAe?$AA?9?$AAA?$AAT@ 0000000180085f48     libucrtd:lcidtoname_downlevel.obj
 0002:0001bf58       ??_C@_1M@KBFBEHJF@?$AAe?$AAn?$AA?9?$AAA?$AAU@ 0000000180085f58     libucrtd:lcidtoname_downlevel.obj
 0002:0001bf68       ??_C@_1M@MNPLFAAH@?$AAe?$AAs?$AA?9?$AAE?$AAS@ 0000000180085f68     libucrtd:lcidtoname_downlevel.obj
 0002:0001bf78       ??_C@_1M@HJOOJFMA@?$AAf?$AAr?$AA?9?$AAC?$AAA@ 0000000180085f78     libucrtd:lcidtoname_downlevel.obj
 0002:0001bf88       ??_C@_1BG@JPOFPNAB@?$AAs?$AAr?$AA?9?$AAS?$AAP?$AA?9?$AAC?$AAy?$AAr?$AAl@ 0000000180085f88     libucrtd:lcidtoname_downlevel.obj
 0002:0001bfa0       ??_C@_1M@LNFOCMOB@?$AAs?$AAe?$AA?9?$AAF?$AAI@ 0000000180085fa0     libucrtd:lcidtoname_downlevel.obj
 0002:0001bfb0       ??_C@_1O@MGJBOAMB@?$AAq?$AAu?$AAz?$AA?9?$AAP?$AAE@ 0000000180085fb0     libucrtd:lcidtoname_downlevel.obj
 0002:0001bfc0       ??_C@_1M@GJINLBOK@?$AAa?$AAr?$AA?9?$AAL?$AAY@ 0000000180085fc0     libucrtd:lcidtoname_downlevel.obj
 0002:0001bfd0       ??_C@_1M@GGMNHJNL@?$AAz?$AAh?$AA?9?$AAS?$AAG@ 0000000180085fd0     libucrtd:lcidtoname_downlevel.obj
 0002:0001bfe0       ??_C@_1M@HOIKODND@?$AAd?$AAe?$AA?9?$AAL?$AAU@ 0000000180085fe0     libucrtd:lcidtoname_downlevel.obj
 0002:0001bff0       ??_C@_1M@DDOCCGFG@?$AAe?$AAn?$AA?9?$AAC?$AAA@ 0000000180085ff0     libucrtd:lcidtoname_downlevel.obj
 0002:0001c000       ??_C@_1M@BNOEMJLF@?$AAe?$AAs?$AA?9?$AAG?$AAT@ 0000000180086000     libucrtd:lcidtoname_downlevel.obj
 0002:0001c010       ??_C@_1M@EOGNKEK@?$AAf?$AAr?$AA?9?$AAC?$AAH@ 0000000180086010     libucrtd:lcidtoname_downlevel.obj
 0002:0001c020       ??_C@_1M@FLIDJFHL@?$AAh?$AAr?$AA?9?$AAB?$AAA@ 0000000180086020     libucrtd:lcidtoname_downlevel.obj
 0002:0001c030       ??_C@_1O@FMCELNAJ@?$AAs?$AAm?$AAj?$AA?9?$AAN?$AAO@ 0000000180086030     libucrtd:lcidtoname_downlevel.obj
 0002:0001c040       ??_C@_1M@JHGLJMGJ@?$AAa?$AAr?$AA?9?$AAD?$AAZ@ 0000000180086040     libucrtd:lcidtoname_downlevel.obj
 0002:0001c050       ??_C@_1M@JKKFDCNP@?$AAz?$AAh?$AA?9?$AAM?$AAO@ 0000000180086050     libucrtd:lcidtoname_downlevel.obj
 0002:0001c060       ??_C@_1M@GEEFALPE@?$AAd?$AAe?$AA?9?$AAL?$AAI@ 0000000180086060     libucrtd:lcidtoname_downlevel.obj
 0002:0001c070       ??_C@_1M@IGEOFBG@?$AAe?$AAn?$AA?9?$AAN?$AAZ@ 0000000180086070     libucrtd:lcidtoname_downlevel.obj
 0002:0001c080       ??_C@_1M@KDBONEHP@?$AAe?$AAs?$AA?9?$AAC?$AAR@ 0000000180086080     libucrtd:lcidtoname_downlevel.obj
 0002:0001c090       ??_C@_1M@FHMDOHNN@?$AAf?$AAr?$AA?9?$AAL?$AAU@ 0000000180086090     libucrtd:lcidtoname_downlevel.obj
 0002:0001c0a0       ??_C@_1BG@NFKKMAFG@?$AAb?$AAs?$AA?9?$AAB?$AAA?$AA?9?$AAL?$AAa?$AAt?$AAn@ 00000001800860a0     libucrtd:lcidtoname_downlevel.obj
 0002:0001c0b8       ??_C@_1O@IMNBEMCI@?$AAs?$AAm?$AAj?$AA?9?$AAS?$AAE@ 00000001800860b8     libucrtd:lcidtoname_downlevel.obj
 0002:0001c0c8       ??_C@_1M@DHHMBNDP@?$AAa?$AAr?$AA?9?$AAM?$AAA@ 00000001800860c8     libucrtd:lcidtoname_downlevel.obj
 0002:0001c0d8       ??_C@_1M@BNBLJCGH@?$AAe?$AAn?$AA?9?$AAI?$AAE@ 00000001800860d8     libucrtd:lcidtoname_downlevel.obj
 0002:0001c0e8       ??_C@_1M@GEPAFMDL@?$AAe?$AAs?$AA?9?$AAP?$AAA@ 00000001800860e8     libucrtd:lcidtoname_downlevel.obj
 0002:0001c0f8       ??_C@_1M@OJONDMDL@?$AAf?$AAr?$AA?9?$AAM?$AAC@ 00000001800860f8     libucrtd:lcidtoname_downlevel.obj
 0002:0001c108       ??_C@_1BG@OBCNFJB@?$AAs?$AAr?$AA?9?$AAB?$AAA?$AA?9?$AAL?$AAa?$AAt?$AAn@ 0000000180086108     libucrtd:lcidtoname_downlevel.obj
 0002:0001c120       ??_C@_1O@KEMEEGPO@?$AAs?$AAm?$AAa?$AA?9?$AAN?$AAO@ 0000000180086120     libucrtd:lcidtoname_downlevel.obj
 0002:0001c130       ??_C@_1M@ELMGFODK@?$AAa?$AAr?$AA?9?$AAT?$AAN@ 0000000180086130     libucrtd:lcidtoname_downlevel.obj
 0002:0001c140       ??_C@_1M@BHDLHFAF@?$AAe?$AAn?$AA?9?$AAZ?$AAA@ 0000000180086140     libucrtd:lcidtoname_downlevel.obj
 0002:0001c150       ??_C@_1M@BMGIGLIF@?$AAe?$AAs?$AA?9?$AAD?$AAO@ 0000000180086150     libucrtd:lcidtoname_downlevel.obj
 0002:0001c160       ??_C@_1BG@CMBHIPBE@?$AAs?$AAr?$AA?9?$AAB?$AAA?$AA?9?$AAC?$AAy?$AAr?$AAl@ 0000000180086160     libucrtd:lcidtoname_downlevel.obj
 0002:0001c178       ??_C@_1O@HEDBLHNP@?$AAs?$AAm?$AAa?$AA?9?$AAS?$AAE@ 0000000180086178     libucrtd:lcidtoname_downlevel.obj
 0002:0001c188       ??_C@_1M@DAGCADIM@?$AAa?$AAr?$AA?9?$AAO?$AAM@ 0000000180086188     libucrtd:lcidtoname_downlevel.obj
 0002:0001c198       ??_C@_1M@FODLMICG@?$AAe?$AAn?$AA?9?$AAJ?$AAM@ 0000000180086198     libucrtd:lcidtoname_downlevel.obj
 0002:0001c1a8       ??_C@_1M@DNMLCIHB@?$AAe?$AAs?$AA?9?$AAV?$AAE@ 00000001800861a8     libucrtd:lcidtoname_downlevel.obj
 0002:0001c1b8       ??_C@_1O@EOKHMKJK@?$AAs?$AAm?$AAs?$AA?9?$AAF?$AAI@ 00000001800861b8     libucrtd:lcidtoname_downlevel.obj
 0002:0001c1c8       ??_C@_1M@CAFJMKOF@?$AAa?$AAr?$AA?9?$AAY?$AAE@ 00000001800861c8     libucrtd:lcidtoname_downlevel.obj
 0002:0001c1d8       ??_C@_1M@CBFHIJLI@?$AAe?$AAn?$AA?9?$AAC?$AAB@ 00000001800861d8     libucrtd:lcidtoname_downlevel.obj
 0002:0001c1e8       ??_C@_1M@BGNFLDN@?$AAe?$AAs?$AA?9?$AAC?$AAO@ 00000001800861e8     libucrtd:lcidtoname_downlevel.obj
 0002:0001c1f8       ??_C@_1O@JMPHMAMC@?$AAs?$AAm?$AAn?$AA?9?$AAF?$AAI@ 00000001800861f8     libucrtd:lcidtoname_downlevel.obj
 0002:0001c208       ??_C@_1M@JLANABKE@?$AAa?$AAr?$AA?9?$AAS?$AAY@ 0000000180086208     libucrtd:lcidtoname_downlevel.obj
 0002:0001c218       ??_C@_1M@HPKGCFGN@?$AAe?$AAn?$AA?9?$AAB?$AAZ@ 0000000180086218     libucrtd:lcidtoname_downlevel.obj
 0002:0001c228       ??_C@_1M@OLJCMLGM@?$AAe?$AAs?$AA?9?$AAP?$AAE@ 0000000180086228     libucrtd:lcidtoname_downlevel.obj
 0002:0001c238       ??_C@_1M@MKKGFKLE@?$AAa?$AAr?$AA?9?$AAJ?$AAO@ 0000000180086238     libucrtd:lcidtoname_downlevel.obj
 0002:0001c248       ??_C@_1M@EKPGLDNI@?$AAe?$AAn?$AA?9?$AAT?$AAT@ 0000000180086248     libucrtd:lcidtoname_downlevel.obj
 0002:0001c258       ??_C@_1M@OONGHFHE@?$AAe?$AAs?$AA?9?$AAA?$AAR@ 0000000180086258     libucrtd:lcidtoname_downlevel.obj
 0002:0001c268       ??_C@_1M@OOJFGBHE@?$AAa?$AAr?$AA?9?$AAL?$AAB@ 0000000180086268     libucrtd:lcidtoname_downlevel.obj
 0002:0001c278       ??_C@_1M@GCEJHNEG@?$AAe?$AAn?$AA?9?$AAZ?$AAW@ 0000000180086278     libucrtd:lcidtoname_downlevel.obj
 0002:0001c288       ??_C@_1M@JNOCAHJI@?$AAe?$AAs?$AA?9?$AAE?$AAC@ 0000000180086288     libucrtd:lcidtoname_downlevel.obj
 0002:0001c298       ??_C@_1M@JEFHPGGB@?$AAa?$AAr?$AA?9?$AAK?$AAW@ 0000000180086298     libucrtd:lcidtoname_downlevel.obj
 0002:0001c2a8       ??_C@_1M@MLKIBJOJ@?$AAe?$AAn?$AA?9?$AAP?$AAH@ 00000001800862a8     libucrtd:lcidtoname_downlevel.obj
 0002:0001c2b8       ??_C@_1M@BDNIPEND@?$AAe?$AAs?$AA?9?$AAC?$AAL@ 00000001800862b8     libucrtd:lcidtoname_downlevel.obj
 0002:0001c2c8       ??_C@_1M@MPNMEKBD@?$AAa?$AAr?$AA?9?$AAA?$AAE@ 00000001800862c8     libucrtd:lcidtoname_downlevel.obj
 0002:0001c2d8       ??_C@_1M@KBJALCPI@?$AAe?$AAs?$AA?9?$AAU?$AAY@ 00000001800862d8     libucrtd:lcidtoname_downlevel.obj
 0002:0001c2e8       ??_C@_1M@LLCCOAGA@?$AAa?$AAr?$AA?9?$AAB?$AAH@ 00000001800862e8     libucrtd:lcidtoname_downlevel.obj
 0002:0001c2f8       ??_C@_1M@PBFNCDEL@?$AAe?$AAs?$AA?9?$AAP?$AAY@ 00000001800862f8     libucrtd:lcidtoname_downlevel.obj
 0002:0001c308       ??_C@_1M@EDGINPNP@?$AAa?$AAr?$AA?9?$AAQ?$AAA@ 0000000180086308     libucrtd:lcidtoname_downlevel.obj
 0002:0001c318       ??_C@_1M@MKDBIIJI@?$AAe?$AAs?$AA?9?$AAB?$AAO@ 0000000180086318     libucrtd:lcidtoname_downlevel.obj
 0002:0001c328       ??_C@_1M@CPKKEBLD@?$AAe?$AAs?$AA?9?$AAS?$AAV@ 0000000180086328     libucrtd:lcidtoname_downlevel.obj
 0002:0001c338       ??_C@_1M@NDBGMMJL@?$AAe?$AAs?$AA?9?$AAH?$AAN@ 0000000180086338     libucrtd:lcidtoname_downlevel.obj
 0002:0001c348       ??_C@_1M@JIJIBHDP@?$AAe?$AAs?$AA?9?$AAN?$AAI@ 0000000180086348     libucrtd:lcidtoname_downlevel.obj
 0002:0001c358       ??_C@_1M@CGFMKEEK@?$AAe?$AAs?$AA?9?$AAP?$AAR@ 0000000180086358     libucrtd:lcidtoname_downlevel.obj
 0002:0001c368       ??_C@_1O@ICJHKIIK@?$AAz?$AAh?$AA?9?$AAC?$AAH?$AAT@ 0000000180086368     libucrtd:lcidtoname_downlevel.obj
 0002:0001c378       ??_C@_15CLNEJCE@?$AAs?$AAr@ 0000000180086378     libucrtd:lcidtoname_downlevel.obj
 0002:0001d1c0       ??_C@_1M@KAHEKEIG@?$AAa?$AAf?$AA?9?$AAz?$AAa@ 00000001800871c0     libucrtd:lcidtoname_downlevel.obj
 0002:0001d1d0       ??_C@_1M@GIECOABL@?$AAa?$AAr?$AA?9?$AAa?$AAe@ 00000001800871d0     libucrtd:lcidtoname_downlevel.obj
 0002:0001d1e0       ??_C@_1M@BMLMEKGI@?$AAa?$AAr?$AA?9?$AAb?$AAh@ 00000001800871e0     libucrtd:lcidtoname_downlevel.obj
 0002:0001d1f0       ??_C@_1M@DAPFDGGB@?$AAa?$AAr?$AA?9?$AAd?$AAz@ 00000001800871f0     libucrtd:lcidtoname_downlevel.obj
 0002:0001d200       ??_C@_1M@FJNKGKIG@?$AAa?$AAr?$AA?9?$AAe?$AAg@ 0000000180087200     libucrtd:lcidtoname_downlevel.obj
 0002:0001d210       ??_C@_1M@FLGKKCLO@?$AAa?$AAr?$AA?9?$AAi?$AAq@ 0000000180087210     libucrtd:lcidtoname_downlevel.obj
 0002:0001d220       ??_C@_1M@GNDIPALM@?$AAa?$AAr?$AA?9?$AAj?$AAo@ 0000000180087220     libucrtd:lcidtoname_downlevel.obj
 0002:0001d230       ??_C@_1M@DDMJFMGJ@?$AAa?$AAr?$AA?9?$AAk?$AAw@ 0000000180087230     libucrtd:lcidtoname_downlevel.obj
 0002:0001d240       ??_C@_1M@EJALMLHM@?$AAa?$AAr?$AA?9?$AAl?$AAb@ 0000000180087240     libucrtd:lcidtoname_downlevel.obj
 0002:0001d250       ??_C@_1M@MOBDBLOC@?$AAa?$AAr?$AA?9?$AAl?$AAy@ 0000000180087250     libucrtd:lcidtoname_downlevel.obj
 0002:0001d260       ??_C@_1M@JAOCLHDH@?$AAa?$AAr?$AA?9?$AAm?$AAa@ 0000000180087260     libucrtd:lcidtoname_downlevel.obj
 0002:0001d270       ??_C@_1M@JHPMKJIE@?$AAa?$AAr?$AA?9?$AAo?$AAm@ 0000000180087270     libucrtd:lcidtoname_downlevel.obj
 0002:0001d280       ??_C@_1M@OEPGHFNH@?$AAa?$AAr?$AA?9?$AAq?$AAa@ 0000000180087280     libucrtd:lcidtoname_downlevel.obj
 0002:0001d290       ??_C@_1M@KJDONENM@?$AAa?$AAr?$AA?9?$AAs?$AAa@ 0000000180087290     libucrtd:lcidtoname_downlevel.obj
 0002:0001d2a0       ??_C@_1M@DMJDKLKM@?$AAa?$AAr?$AA?9?$AAs?$AAy@ 00000001800872a0     libucrtd:lcidtoname_downlevel.obj
 0002:0001d2b0       ??_C@_1M@OMFIPEDC@?$AAa?$AAr?$AA?9?$AAt?$AAn@ 00000001800872b0     libucrtd:lcidtoname_downlevel.obj
 0002:0001d2c0       ??_C@_1M@IHMHGAON@?$AAa?$AAr?$AA?9?$AAy?$AAe@ 00000001800872c0     libucrtd:lcidtoname_downlevel.obj
 0002:0001d2d0       ??_C@_1BG@KDCPGJGB@?$AAa?$AAz?$AA?9?$AAa?$AAz?$AA?9?$AAc?$AAy?$AAr?$AAl@ 00000001800872d0     libucrtd:lcidtoname_downlevel.obj
 0002:0001d2e8       ??_C@_1BG@IBCKDDOE@?$AAa?$AAz?$AA?9?$AAa?$AAz?$AA?9?$AAl?$AAa?$AAt?$AAn@ 00000001800872e8     libucrtd:lcidtoname_downlevel.obj
 0002:0001d300       ??_C@_1M@EGPFDCPD@?$AAb?$AAe?$AA?9?$AAb?$AAy@ 0000000180087300     libucrtd:lcidtoname_downlevel.obj
 0002:0001d310       ??_C@_1M@PCMGMCGC@?$AAb?$AAg?$AA?9?$AAb?$AAg@ 0000000180087310     libucrtd:lcidtoname_downlevel.obj
 0002:0001d320       ??_C@_1M@BJBMFGOB@?$AAb?$AAn?$AA?9?$AAi?$AAn@ 0000000180087320     libucrtd:lcidtoname_downlevel.obj
 0002:0001d330       ??_C@_1BG@EAKMMACD@?$AAb?$AAs?$AA?9?$AAb?$AAa?$AA?9?$AAl?$AAa?$AAt?$AAn@ 0000000180087330     libucrtd:lcidtoname_downlevel.obj
 0002:0001d348       ??_C@_1M@KGADAODK@?$AAc?$AAa?$AA?9?$AAe?$AAs@ 0000000180087348     libucrtd:lcidtoname_downlevel.obj
 0002:0001d358       ??_C@_1M@COAJPDHI@?$AAc?$AAs?$AA?9?$AAc?$AAz@ 0000000180087358     libucrtd:lcidtoname_downlevel.obj
 0002:0001d368       ??_C@_1M@DHBHFONH@?$AAc?$AAy?$AA?9?$AAg?$AAb@ 0000000180087368     libucrtd:lcidtoname_downlevel.obj
 0002:0001d378       ??_C@_1M@IMGKELGA@?$AAd?$AAa?$AA?9?$AAd?$AAk@ 0000000180087378     libucrtd:lcidtoname_downlevel.obj
 0002:0001d388       ??_C@_1M@NNDGDNGA@?$AAd?$AAe?$AA?9?$AAa?$AAt@ 0000000180087388     libucrtd:lcidtoname_downlevel.obj
 0002:0001d398       ??_C@_1M@IKDBHEEM@?$AAd?$AAe?$AA?9?$AAc?$AAh@ 0000000180087398     libucrtd:lcidtoname_downlevel.obj
 0002:0001d3a8       ??_C@_1M@GFFOJMCJ@?$AAd?$AAe?$AA?9?$AAd?$AAe@ 00000001800873a8     libucrtd:lcidtoname_downlevel.obj
 0002:0001d3b8       ??_C@_1M@MDNLKBPM@?$AAd?$AAe?$AA?9?$AAl?$AAi@ 00000001800873b8     libucrtd:lcidtoname_downlevel.obj
 0002:0001d3c8       ??_C@_1M@NJBEEJNL@?$AAd?$AAe?$AA?9?$AAl?$AAu@ 00000001800873c8     libucrtd:lcidtoname_downlevel.obj
 0002:0001d3d8       ??_C@_1O@GNNELBAP@?$AAd?$AAi?$AAv?$AA?9?$AAm?$AAv@ 00000001800873d8     libucrtd:lcidtoname_downlevel.obj
 0002:0001d3e8       ??_C@_1M@EJLEOGAE@?$AAe?$AAl?$AA?9?$AAg?$AAr@ 00000001800873e8     libucrtd:lcidtoname_downlevel.obj
 0002:0001d3f8       ??_C@_1M@GMPONJN@?$AAe?$AAn?$AA?9?$AAa?$AAu@ 00000001800873f8     libucrtd:lcidtoname_downlevel.obj
 0002:0001d408       ??_C@_1M@NIDIIPGF@?$AAe?$AAn?$AA?9?$AAb?$AAz@ 0000000180087408     libucrtd:lcidtoname_downlevel.obj
 0002:0001d418       ??_C@_1M@JEHMIMFO@?$AAe?$AAn?$AA?9?$AAc?$AAa@ 0000000180087418     libucrtd:lcidtoname_downlevel.obj
 0002:0001d428       ??_C@_1M@IGMJCDLA@?$AAe?$AAn?$AA?9?$AAc?$AAb@ 0000000180087428     libucrtd:lcidtoname_downlevel.obj
 0002:0001d438       ??_C@_1M@BNFIGBKG@?$AAe?$AAn?$AA?9?$AAg?$AAb@ 0000000180087438     libucrtd:lcidtoname_downlevel.obj
 0002:0001d448       ??_C@_1M@LKIFDIGP@?$AAe?$AAn?$AA?9?$AAi?$AAe@ 0000000180087448     libucrtd:lcidtoname_downlevel.obj
 0002:0001d458       ??_C@_1M@PJKFGCCO@?$AAe?$AAn?$AA?9?$AAj?$AAm@ 0000000180087458     libucrtd:lcidtoname_downlevel.obj
 0002:0001d468       ??_C@_1M@KPPKEPBO@?$AAe?$AAn?$AA?9?$AAn?$AAz@ 0000000180087468     libucrtd:lcidtoname_downlevel.obj
 0002:0001d478       ??_C@_1M@GMDGLDOB@?$AAe?$AAn?$AA?9?$AAp?$AAh@ 0000000180087478     libucrtd:lcidtoname_downlevel.obj
 0002:0001d488       ??_C@_1M@ONGIBJNA@?$AAe?$AAn?$AA?9?$AAt?$AAt@ 0000000180087488     libucrtd:lcidtoname_downlevel.obj
 0002:0001d498       ??_C@_1M@LLODPCMM@?$AAe?$AAn?$AA?9?$AAu?$AAs@ 0000000180087498     libucrtd:lcidtoname_downlevel.obj
 0002:0001d4a8       ??_C@_1M@LAKFNPAN@?$AAe?$AAn?$AA?9?$AAz?$AAa@ 00000001800874a8     libucrtd:lcidtoname_downlevel.obj
 0002:0001d4b8       ??_C@_1M@MFNHNHEO@?$AAe?$AAn?$AA?9?$AAz?$AAw@ 00000001800874b8     libucrtd:lcidtoname_downlevel.obj
 0002:0001d4c8       ??_C@_1M@EJEINPHM@?$AAe?$AAs?$AA?9?$AAa?$AAr@ 00000001800874c8     libucrtd:lcidtoname_downlevel.obj
 0002:0001d4d8       ??_C@_1M@GNKPCCJA@?$AAe?$AAs?$AA?9?$AAb?$AAo@ 00000001800874d8     libucrtd:lcidtoname_downlevel.obj
 0002:0001d4e8       ??_C@_1M@LEEGFONL@?$AAe?$AAs?$AA?9?$AAc?$AAl@ 00000001800874e8     libucrtd:lcidtoname_downlevel.obj
 0002:0001d4f8       ??_C@_1M@KGPDPBDF@?$AAe?$AAs?$AA?9?$AAc?$AAo@ 00000001800874f8     libucrtd:lcidtoname_downlevel.obj
 0002:0001d508       ??_C@_1M@EIAHOHH@?$AAe?$AAs?$AA?9?$AAc?$AAr@ 0000000180087508     libucrtd:lcidtoname_downlevel.obj
 0002:0001d518       ??_C@_1M@LLPGMBIN@?$AAe?$AAs?$AA?9?$AAd?$AAo@ 0000000180087518     libucrtd:lcidtoname_downlevel.obj
 0002:0001d528       ??_C@_1M@DKHMKNJA@?$AAe?$AAs?$AA?9?$AAe?$AAc@ 0000000180087528     libucrtd:lcidtoname_downlevel.obj
 0002:0001d538       ??_C@_1M@GKGFPKAP@?$AAe?$AAs?$AA?9?$AAe?$AAs@ 0000000180087538     libucrtd:lcidtoname_downlevel.obj
 0002:0001d548       ??_C@_1M@LKHKGDLN@?$AAe?$AAs?$AA?9?$AAg?$AAt@ 0000000180087548     libucrtd:lcidtoname_downlevel.obj
 0002:0001d558       ??_C@_1M@HEIIGGJD@?$AAe?$AAs?$AA?9?$AAh?$AAn@ 0000000180087558     libucrtd:lcidtoname_downlevel.obj
 0002:0001d568       ??_C@_1M@FBDHPPGD@?$AAe?$AAs?$AA?9?$AAm?$AAx@ 0000000180087568     libucrtd:lcidtoname_downlevel.obj
 0002:0001d578       ??_C@_1M@DPAGLNDH@?$AAe?$AAs?$AA?9?$AAn?$AAi@ 0000000180087578     libucrtd:lcidtoname_downlevel.obj
 0002:0001d588       ??_C@_1M@MDGOPGDD@?$AAe?$AAs?$AA?9?$AAp?$AAa@ 0000000180087588     libucrtd:lcidtoname_downlevel.obj
 0002:0001d598       ??_C@_1M@EMAMGBGE@?$AAe?$AAs?$AA?9?$AAp?$AAe@ 0000000180087598     libucrtd:lcidtoname_downlevel.obj
 0002:0001d5a8       ??_C@_1M@IBMCAOEC@?$AAe?$AAs?$AA?9?$AAp?$AAr@ 00000001800875a8     libucrtd:lcidtoname_downlevel.obj
 0002:0001d5b8       ??_C@_1M@FGMDIJED@?$AAe?$AAs?$AA?9?$AAp?$AAy@ 00000001800875b8     libucrtd:lcidtoname_downlevel.obj
 0002:0001d5c8       ??_C@_1M@IIDEOLLL@?$AAe?$AAs?$AA?9?$AAs?$AAv@ 00000001800875c8     libucrtd:lcidtoname_downlevel.obj
 0002:0001d5d8       ??_C@_1M@GAOBIPA@?$AAe?$AAs?$AA?9?$AAu?$AAy@ 00000001800875d8     libucrtd:lcidtoname_downlevel.obj
 0002:0001d5e8       ??_C@_1M@JKFFICHJ@?$AAe?$AAs?$AA?9?$AAv?$AAe@ 00000001800875e8     libucrtd:lcidtoname_downlevel.obj
 0002:0001d5f8       ??_C@_1M@PNMLOJDF@?$AAe?$AAt?$AA?9?$AAe?$AAe@ 00000001800875f8     libucrtd:lcidtoname_downlevel.obj
 0002:0001d608       ??_C@_1M@GHHLIKEI@?$AAe?$AAu?$AA?9?$AAe?$AAs@ 0000000180087608     libucrtd:lcidtoname_downlevel.obj
 0002:0001d618       ??_C@_1M@PBNONODE@?$AAf?$AAa?$AA?9?$AAi?$AAr@ 0000000180087618     libucrtd:lcidtoname_downlevel.obj
 0002:0001d628       ??_C@_1M@JEEHPMIL@?$AAf?$AAi?$AA?9?$AAf?$AAi@ 0000000180087628     libucrtd:lcidtoname_downlevel.obj
 0002:0001d638       ??_C@_1M@LMDCNDBA@?$AAf?$AAo?$AA?9?$AAf?$AAo@ 0000000180087638     libucrtd:lcidtoname_downlevel.obj
 0002:0001d648       ??_C@_1M@JKEOHLDK@?$AAf?$AAr?$AA?9?$AAb?$AAe@ 0000000180087648     libucrtd:lcidtoname_downlevel.obj
 0002:0001d658       ??_C@_1M@NOHADPMI@?$AAf?$AAr?$AA?9?$AAc?$AAa@ 0000000180087658     libucrtd:lcidtoname_downlevel.obj
 0002:0001d668       ??_C@_1M@KDHIHAEC@?$AAf?$AAr?$AA?9?$AAc?$AAh@ 0000000180087668     libucrtd:lcidtoname_downlevel.obj
 0002:0001d678       ??_C@_1M@MMBBFGAK@?$AAf?$AAr?$AA?9?$AAf?$AAr@ 0000000180087678     libucrtd:lcidtoname_downlevel.obj
 0002:0001d688       ??_C@_1M@PAFNENNF@?$AAf?$AAr?$AA?9?$AAl?$AAu@ 0000000180087688     libucrtd:lcidtoname_downlevel.obj
 0002:0001d698       ??_C@_1M@EOHDJGDD@?$AAf?$AAr?$AA?9?$AAm?$AAc@ 0000000180087698     libucrtd:lcidtoname_downlevel.obj
 0002:0001d6a8       ??_C@_1M@FAPLLOPF@?$AAg?$AAl?$AA?9?$AAe?$AAs@ 00000001800876a8     libucrtd:lcidtoname_downlevel.obj
 0002:0001d6b8       ??_C@_1M@FOPBFLOO@?$AAg?$AAu?$AA?9?$AAi?$AAn@ 00000001800876b8     libucrtd:lcidtoname_downlevel.obj
 0002:0001d6c8       ??_C@_1M@KBMCINPM@?$AAh?$AAe?$AA?9?$AAi?$AAl@ 00000001800876c8     libucrtd:lcidtoname_downlevel.obj
 0002:0001d6d8       ??_C@_1M@BBPHKFPJ@?$AAh?$AAi?$AA?9?$AAi?$AAn@ 00000001800876d8     libucrtd:lcidtoname_downlevel.obj
 0002:0001d6e8       ??_C@_1M@PMBNDPHD@?$AAh?$AAr?$AA?9?$AAb?$AAa@ 00000001800876e8     libucrtd:lcidtoname_downlevel.obj
 0002:0001d6f8       ??_C@_1M@BPCKOEGE@?$AAh?$AAr?$AA?9?$AAh?$AAr@ 00000001800876f8     libucrtd:lcidtoname_downlevel.obj
 0002:0001d708       ??_C@_1M@GACBMHKE@?$AAh?$AAu?$AA?9?$AAh?$AAu@ 0000000180087708     libucrtd:lcidtoname_downlevel.obj
 0002:0001d718       ??_C@_1M@MILPAJJC@?$AAh?$AAy?$AA?9?$AAa?$AAm@ 0000000180087718     libucrtd:lcidtoname_downlevel.obj
 0002:0001d728       ??_C@_1M@BABBICEC@?$AAi?$AAd?$AA?9?$AAi?$AAd@ 0000000180087728     libucrtd:lcidtoname_downlevel.obj
 0002:0001d738       ??_C@_1M@BIKNHHPF@?$AAi?$AAs?$AA?9?$AAi?$AAs@ 0000000180087738     libucrtd:lcidtoname_downlevel.obj
 0002:0001d748       ??_C@_1M@NMPCJPHE@?$AAi?$AAt?$AA?9?$AAc?$AAh@ 0000000180087748     libucrtd:lcidtoname_downlevel.obj
 0002:0001d758       ??_C@_1M@GHKGFEDF@?$AAi?$AAt?$AA?9?$AAi?$AAt@ 0000000180087758     libucrtd:lcidtoname_downlevel.obj
 0002:0001d768       ??_C@_1M@NIEJCJJA@?$AAj?$AAa?$AA?9?$AAj?$AAp@ 0000000180087768     libucrtd:lcidtoname_downlevel.obj
 0002:0001d778       ??_C@_1M@JILFNBIM@?$AAk?$AAa?$AA?9?$AAg?$AAe@ 0000000180087778     libucrtd:lcidtoname_downlevel.obj
 0002:0001d788       ??_C@_1M@PACPMGPH@?$AAk?$AAk?$AA?9?$AAk?$AAz@ 0000000180087788     libucrtd:lcidtoname_downlevel.obj
 0002:0001d798       ??_C@_1M@IELFGMHA@?$AAk?$AAn?$AA?9?$AAi?$AAn@ 0000000180087798     libucrtd:lcidtoname_downlevel.obj
 0002:0001d7a8       ??_C@_1O@IBBJHCH@?$AAk?$AAo?$AAk?$AA?9?$AAi?$AAn@ 00000001800877a8     libucrtd:lcidtoname_downlevel.obj
 0002:0001d7b8       ??_C@_1M@DMHAEOGC@?$AAk?$AAo?$AA?9?$AAk?$AAr@ 00000001800877b8     libucrtd:lcidtoname_downlevel.obj
 0002:0001d7c8       ??_C@_1M@HBAHBIGA@?$AAk?$AAy?$AA?9?$AAk?$AAg@ 00000001800877c8     libucrtd:lcidtoname_downlevel.obj
 0002:0001d7d8       ??_C@_1M@KPMILCJG@?$AAl?$AAt?$AA?9?$AAl?$AAt@ 00000001800877d8     libucrtd:lcidtoname_downlevel.obj
 0002:0001d7e8       ??_C@_1M@BDEKKCA@?$AAl?$AAv?$AA?9?$AAl?$AAv@ 00000001800877e8     libucrtd:lcidtoname_downlevel.obj
 0002:0001d7f8       ??_C@_1M@ELCKCCJJ@?$AAm?$AAi?$AA?9?$AAn?$AAz@ 00000001800877f8     libucrtd:lcidtoname_downlevel.obj
 0002:0001d808       ??_C@_1M@CBOOLAPA@?$AAm?$AAk?$AA?9?$AAm?$AAk@ 0000000180087808     libucrtd:lcidtoname_downlevel.obj
 0002:0001d818       ??_C@_1M@GPHNBJKN@?$AAm?$AAl?$AA?9?$AAi?$AAn@ 0000000180087818     libucrtd:lcidtoname_downlevel.obj
 0002:0001d828       ??_C@_1M@PABJILIG@?$AAm?$AAn?$AA?9?$AAm?$AAn@ 0000000180087828     libucrtd:lcidtoname_downlevel.obj
 0002:0001d838       ??_C@_1M@FGBKKIPG@?$AAm?$AAr?$AA?9?$AAi?$AAn@ 0000000180087838     libucrtd:lcidtoname_downlevel.obj
 0002:0001d848       ??_C@_1M@NDBPDDAL@?$AAm?$AAs?$AA?9?$AAb?$AAn@ 0000000180087848     libucrtd:lcidtoname_downlevel.obj
 0002:0001d858       ??_C@_1M@OPIHOOPI@?$AAm?$AAs?$AA?9?$AAm?$AAy@ 0000000180087858     libucrtd:lcidtoname_downlevel.obj
 0002:0001d868       ??_C@_1M@PPDBCNFM@?$AAm?$AAt?$AA?9?$AAm?$AAt@ 0000000180087868     libucrtd:lcidtoname_downlevel.obj
 0002:0001d878       ??_C@_1M@KDJDKMDD@?$AAn?$AAb?$AA?9?$AAn?$AAo@ 0000000180087878     libucrtd:lcidtoname_downlevel.obj
 0002:0001d888       ??_C@_1M@KFCFLMJP@?$AAn?$AAl?$AA?9?$AAb?$AAe@ 0000000180087888     libucrtd:lcidtoname_downlevel.obj
 0002:0001d898       ??_C@_1M@KPOPDDGO@?$AAn?$AAl?$AA?9?$AAn?$AAl@ 0000000180087898     libucrtd:lcidtoname_downlevel.obj
 0002:0001d8a8       ??_C@_1M@LJKPEMLN@?$AAn?$AAn?$AA?9?$AAn?$AAo@ 00000001800878a8     libucrtd:lcidtoname_downlevel.obj
 0002:0001d8b8       ??_C@_1M@BDGHHBFL@?$AAn?$AAs?$AA?9?$AAz?$AAa@ 00000001800878b8     libucrtd:lcidtoname_downlevel.obj
 0002:0001d8c8       ??_C@_1M@IDEHOAP@?$AAp?$AAa?$AA?9?$AAi?$AAn@ 00000001800878c8     libucrtd:lcidtoname_downlevel.obj
 0002:0001d8d8       ??_C@_1M@HDBKGOGH@?$AAp?$AAl?$AA?9?$AAp?$AAl@ 00000001800878d8     libucrtd:lcidtoname_downlevel.obj
 0002:0001d8e8       ??_C@_1M@LJLLCMEH@?$AAp?$AAt?$AA?9?$AAb?$AAr@ 00000001800878e8     libucrtd:lcidtoname_downlevel.obj
 0002:0001d8f8       ??_C@_1M@NCMONAAL@?$AAp?$AAt?$AA?9?$AAp?$AAt@ 00000001800878f8     libucrtd:lcidtoname_downlevel.obj
 0002:0001d908       ??_C@_1O@EAKMAJDN@?$AAq?$AAu?$AAz?$AA?9?$AAb?$AAo@ 0000000180087908     libucrtd:lcidtoname_downlevel.obj
 0002:0001d918       ??_C@_1O@BHHPIGDN@?$AAq?$AAu?$AAz?$AA?9?$AAe?$AAc@ 0000000180087918     libucrtd:lcidtoname_downlevel.obj
 0002:0001d928       ??_C@_1O@GBAPEKMJ@?$AAq?$AAu?$AAz?$AA?9?$AAp?$AAe@ 0000000180087928     libucrtd:lcidtoname_downlevel.obj
 0002:0001d938       ??_C@_1M@CLGLEFBO@?$AAr?$AAo?$AA?9?$AAr?$AAo@ 0000000180087938     libucrtd:lcidtoname_downlevel.obj
 0002:0001d948       ??_C@_1M@CEEDODME@?$AAr?$AAu?$AA?9?$AAr?$AAu@ 0000000180087948     libucrtd:lcidtoname_downlevel.obj
 0002:0001d958       ??_C@_1M@HPKKKMPP@?$AAs?$AAa?$AA?9?$AAi?$AAn@ 0000000180087958     libucrtd:lcidtoname_downlevel.obj
 0002:0001d968       ??_C@_1M@BKMAIGOJ@?$AAs?$AAe?$AA?9?$AAf?$AAi@ 0000000180087968     libucrtd:lcidtoname_downlevel.obj
 0002:0001d978       ??_C@_1M@NDPIFLFI@?$AAs?$AAe?$AA?9?$AAn?$AAo@ 0000000180087978     libucrtd:lcidtoname_downlevel.obj
 0002:0001d988       ??_C@_1M@DANKKHJ@?$AAs?$AAe?$AA?9?$AAs?$AAe@ 0000000180087988     libucrtd:lcidtoname_downlevel.obj
 0002:0001d998       ??_C@_1M@PNBLONPJ@?$AAs?$AAk?$AA?9?$AAs?$AAk@ 0000000180087998     libucrtd:lcidtoname_downlevel.obj
 0002:0001d9a8       ??_C@_1M@LFMODOAL@?$AAs?$AAl?$AA?9?$AAs?$AAi@ 00000001800879a8     libucrtd:lcidtoname_downlevel.obj
 0002:0001d9b8       ??_C@_1O@DFKOMPG@?$AAs?$AAm?$AAa?$AA?9?$AAn?$AAo@ 00000001800879b8     libucrtd:lcidtoname_downlevel.obj
 0002:0001d9c8       ??_C@_1O@NDKPBNNH@?$AAs?$AAm?$AAa?$AA?9?$AAs?$AAe@ 00000001800879c8     libucrtd:lcidtoname_downlevel.obj
 0002:0001d9d8       ??_C@_1O@PLLKBHAB@?$AAs?$AAm?$AAj?$AA?9?$AAn?$AAo@ 00000001800879d8     libucrtd:lcidtoname_downlevel.obj
 0002:0001d9e8       ??_C@_1O@CLEPOGCA@?$AAs?$AAm?$AAj?$AA?9?$AAs?$AAe@ 00000001800879e8     libucrtd:lcidtoname_downlevel.obj
 0002:0001d9f8       ??_C@_1O@DLGJGKMK@?$AAs?$AAm?$AAn?$AA?9?$AAf?$AAi@ 00000001800879f8     libucrtd:lcidtoname_downlevel.obj
 0002:0001da08       ??_C@_1O@OJDJGAJC@?$AAs?$AAm?$AAs?$AA?9?$AAf?$AAi@ 0000000180087a08     libucrtd:lcidtoname_downlevel.obj
 0002:0001da18       ??_C@_1M@BOFOGHPB@?$AAs?$AAq?$AA?9?$AAa?$AAl@ 0000000180087a18     libucrtd:lcidtoname_downlevel.obj
 0002:0001da28       ??_C@_1BG@LJBBIPGB@?$AAs?$AAr?$AA?9?$AAb?$AAa?$AA?9?$AAc?$AAy?$AAr?$AAl@ 0000000180087a28     libucrtd:lcidtoname_downlevel.obj
 0002:0001da40       ??_C@_1BG@JLBENFOE@?$AAs?$AAr?$AA?9?$AAb?$AAa?$AA?9?$AAl?$AAa?$AAt?$AAn@ 0000000180087a40     libucrtd:lcidtoname_downlevel.obj
 0002:0001da58       ??_C@_1BG@KODPNHE@?$AAs?$AAr?$AA?9?$AAs?$AAp?$AA?9?$AAc?$AAy?$AAr?$AAl@ 0000000180087a58     libucrtd:lcidtoname_downlevel.obj
 0002:0001da70       ??_C@_1BG@CIOGKHPB@?$AAs?$AAr?$AA?9?$AAs?$AAp?$AA?9?$AAl?$AAa?$AAt?$AAn@ 0000000180087a70     libucrtd:lcidtoname_downlevel.obj
 0002:0001da88       ??_C@_1M@NGFJLMAC@?$AAs?$AAv?$AA?9?$AAf?$AAi@ 0000000180087a88     libucrtd:lcidtoname_downlevel.obj
 0002:0001da98       ??_C@_1M@MPJEJAJC@?$AAs?$AAv?$AA?9?$AAs?$AAe@ 0000000180087a98     libucrtd:lcidtoname_downlevel.obj
 0002:0001daa8       ??_C@_1M@MPNDHLFK@?$AAs?$AAw?$AA?9?$AAk?$AAe@ 0000000180087aa8     libucrtd:lcidtoname_downlevel.obj
 0002:0001dab8       ??_C@_1O@KOHBJJI@?$AAs?$AAy?$AAr?$AA?9?$AAs?$AAy@ 0000000180087ab8     libucrtd:lcidtoname_downlevel.obj
 0002:0001dac8       ??_C@_1M@LDCEFHA@?$AAt?$AAa?$AA?9?$AAi?$AAn@ 0000000180087ac8     libucrtd:lcidtoname_downlevel.obj
 0002:0001dad8       ??_C@_1M@CNJOFAK@?$AAt?$AAe?$AA?9?$AAi?$AAn@ 0000000180087ad8     libucrtd:lcidtoname_downlevel.obj
 0002:0001dae8       ??_C@_1M@GNAECACD@?$AAt?$AAh?$AA?9?$AAt?$AAh@ 0000000180087ae8     libucrtd:lcidtoname_downlevel.obj
 0002:0001daf8       ??_C@_1M@CHBIHOJO@?$AAt?$AAn?$AA?9?$AAz?$AAa@ 0000000180087af8     libucrtd:lcidtoname_downlevel.obj
 0002:0001db08       ??_C@_1M@GCCMIGPJ@?$AAt?$AAr?$AA?9?$AAt?$AAr@ 0000000180087b08     libucrtd:lcidtoname_downlevel.obj
 0002:0001db18       ??_C@_1M@CELMCNBK@?$AAt?$AAt?$AA?9?$AAr?$AAu@ 0000000180087b18     libucrtd:lcidtoname_downlevel.obj
 0002:0001db28       ??_C@_1M@KLMCELGA@?$AAu?$AAk?$AA?9?$AAu?$AAa@ 0000000180087b28     libucrtd:lcidtoname_downlevel.obj
 0002:0001db38       ??_C@_1M@EPAJJAJF@?$AAu?$AAr?$AA?9?$AAp?$AAk@ 0000000180087b38     libucrtd:lcidtoname_downlevel.obj
 0002:0001db48       ??_C@_1BG@GEGPMCDJ@?$AAu?$AAz?$AA?9?$AAu?$AAz?$AA?9?$AAc?$AAy?$AAr?$AAl@ 0000000180087b48     libucrtd:lcidtoname_downlevel.obj
 0002:0001db60       ??_C@_1BG@EGGKJILM@?$AAu?$AAz?$AA?9?$AAu?$AAz?$AA?9?$AAl?$AAa?$AAt?$AAn@ 0000000180087b60     libucrtd:lcidtoname_downlevel.obj
 0002:0001db78       ??_C@_1M@GFOCLFF@?$AAv?$AAi?$AA?9?$AAv?$AAn@ 0000000180087b78     libucrtd:lcidtoname_downlevel.obj
 0002:0001db88       ??_C@_1M@CPAMEDFI@?$AAx?$AAh?$AA?9?$AAz?$AAa@ 0000000180087b88     libucrtd:lcidtoname_downlevel.obj
 0002:0001db98       ??_C@_1O@EBKIFIGN@?$AAz?$AAh?$AA?9?$AAc?$AAh?$AAs@ 0000000180087b98     libucrtd:lcidtoname_downlevel.obj
 0002:0001dba8       ??_C@_1O@NMHPGANE@?$AAz?$AAh?$AA?9?$AAc?$AAh?$AAt@ 0000000180087ba8     libucrtd:lcidtoname_downlevel.obj
 0002:0001dbb8       ??_C@_1M@LPINJOMC@?$AAz?$AAh?$AA?9?$AAc?$AAn@ 0000000180087bb8     libucrtd:lcidtoname_downlevel.obj
 0002:0001dbc8       ??_C@_1M@OCJEJODD@?$AAz?$AAh?$AA?9?$AAh?$AAk@ 0000000180087bc8     libucrtd:lcidtoname_downlevel.obj
 0002:0001dbd8       ??_C@_1M@DNDLJINH@?$AAz?$AAh?$AA?9?$AAm?$AAo@ 0000000180087bd8     libucrtd:lcidtoname_downlevel.obj
 0002:0001dbe8       ??_C@_1M@MBFDNDND@?$AAz?$AAh?$AA?9?$AAs?$AAg@ 0000000180087be8     libucrtd:lcidtoname_downlevel.obj
 0002:0001dbf8       ??_C@_1M@IMEPLEPE@?$AAz?$AAh?$AA?9?$AAt?$AAw@ 0000000180087bf8     libucrtd:lcidtoname_downlevel.obj
 0002:0001dc08       ??_C@_1M@BBGHNHJP@?$AAz?$AAu?$AA?9?$AAz?$AAa@ 0000000180087c08     libucrtd:lcidtoname_downlevel.obj
 0002:0001dc20       ??_C@_1HO@KHHMOCBO@?$AAm?$AAi?$AAn?$AAk?$AAe?$AAr?$AAn?$AAe?$AAl?$AA?2?$AAc?$AAr?$AAt?$AAs?$AA?2@ 0000000180087c20     libucrtd:lcidtoname_downlevel.obj
 0002:0001dca0       ??_C@_1EC@MDFDCHIL@?$AA_?$AA_?$AAa?$AAc?$AAr?$AAt?$AA_?$AAD?$AAo?$AAw?$AAn?$AAl?$AAe?$AAv?$AAe@ 0000000180087ca0     libucrtd:lcidtoname_downlevel.obj
 0002:0001dcf0       ??_C@_1FO@LFACCMJH@?$AAw?$AAc?$AAs?$AAc?$AAp?$AAy?$AA_?$AAs?$AA?$CI?$AAo?$AAu?$AAt?$AAL?$AAo?$AAc@ 0000000180087cf0     libucrtd:lcidtoname_downlevel.obj
 0002:0001dd78       ??_C@_1DI@OOEEHOBJ@?$AAb?$AAa?$AAs?$AAe?$AA?5?$AA?$CB?$AA?$DN?$AA?5?$AAn?$AAu?$AAl?$AAl?$AAp?$AAt?$AAr@ 0000000180087d78     libucrtd:qsort.obj
 0002:0001ddb0       ??_C@_1GA@KPPCKKGE@?$AAm?$AAi?$AAn?$AAk?$AAe?$AAr?$AAn?$AAe?$AAl?$AA?2?$AAc?$AAr?$AAt?$AAs?$AA?2@ 0000000180087db0     libucrtd:qsort.obj
 0002:0001de10       ??_C@_1M@INMHODIG@?$AAq?$AAs?$AAo?$AAr?$AAt@ 0000000180087e10     libucrtd:qsort.obj
 0002:0001de20       ??_C@_1BE@NJBEBBME@?$AAw?$AAi?$AAd?$AAt?$AAh?$AA?5?$AA?$DO?$AA?5?$AA0@ 0000000180087e20     libucrtd:qsort.obj
 0002:0001de38       ??_C@_1CA@LIDFOMIN@?$AAc?$AAo?$AAm?$AAp?$AA?5?$AA?$CB?$AA?$DN?$AA?5?$AAn?$AAu?$AAl?$AAl?$AAp?$AAt?$AAr@ 0000000180087e38     libucrtd:qsort.obj
 0002:0001de60       ??_C@_1GO@DDOMFNGF@?$AAm?$AAi?$AAn?$AAk?$AAe?$AAr?$AAn?$AAe?$AAl?$AA?2?$AAc?$AAr?$AAt?$AAs?$AA?2@ 0000000180087e60     libucrtd:mbsdec.obj
 0002:0001ded0       ??_C@_1BE@KLNCOLCD@?$AA_?$AAm?$AAb?$AAs?$AAd?$AAe?$AAc?$AA_?$AAl@ 0000000180087ed0     libucrtd:mbsdec.obj
 0002:0001dee8       ??_C@_1CG@CMGPGAOD@?$AAc?$AAu?$AAr?$AAr?$AAe?$AAn?$AAt?$AA?5?$AA?$CB?$AA?$DN?$AA?5?$AAn?$AAu?$AAl?$AAl@ 0000000180087ee8     libucrtd:mbsdec.obj
 0002:0001df10       ??_C@_1GG@CLJGPGNE@?$AAm?$AAi?$AAn?$AAk?$AAe?$AAr?$AAn?$AAe?$AAl?$AA?2?$AAc?$AAr?$AAt?$AAs?$AA?2@ 0000000180087f10     libucrtd:wcsnicmp.obj
 0002:0001df78       ??_C@_1BI@KLMFNDBC@?$AA_?$AAw?$AAc?$AAs?$AAn?$AAi?$AAc?$AAm?$AAp?$AA_?$AAl@ 0000000180087f78     libucrtd:wcsnicmp.obj
 0002:0001df90       ??_C@_1BE@JKOKKFEL@?$AA_?$AAw?$AAc?$AAs?$AAn?$AAi?$AAc?$AAm?$AAp@ 0000000180087f90     libucrtd:wcsnicmp.obj
 0002:0001e200       ??_C@_1DG@JNDMIEJL@?$AA?$CI?$AA?$CC?$AAI?$AAn?$AAv?$AAa?$AAl?$AAi?$AAd?$AA?5?$AAi?$AAn?$AAp?$AAu?$AAt@ 0000000180088200     libucrtd:contrlfp.obj
 0002:0001e240       ??_C@_1FO@HHLKCIKB@?$AAm?$AAi?$AAn?$AAk?$AAe?$AAr?$AAn?$AAe?$AAl?$AA?2?$AAc?$AAr?$AAt?$AAs?$AA?2@ 0000000180088240     libucrtd:contrlfp.obj
 0002:0001e2a0       ??_C@_1BK@CDOALEA@?$AA_?$AAc?$AAo?$AAn?$AAt?$AAr?$AAo?$AAl?$AAf?$AAp?$AA_?$AAs@ 00000001800882a0     libucrtd:contrlfp.obj
 0002:0001e2c0       ??_C@_1BA@BALFACEM@?$AAC?$AAO?$AAN?$AAO?$AAU?$AAT?$AA$@ 00000001800882c0     libucrtd:initcon.obj
 0002:0001e2d0       __log10_256_lead           00000001800882d0     libucrtd:log10_256_lead_tail_table.obj
 0002:0001eae0       __log10_256_tail           0000000180088ae0     libucrtd:log10_256_lead_tail_table.obj
 0002:0001f2f0       ??_C@_1EK@PDBKILLM@?$AA?$CI?$AAm?$AAa?$AAs?$AAk?$AA?$CG?$AA?$HO?$AA?$CI?$AA_?$AAM?$AAC?$AAW?$AA_?$AAD?$AAN@ 00000001800892f0     libucrtd:ieee.obj
 0002:0001f340       ??_C@_1GC@IEFABLII@?$AAm?$AAi?$AAn?$AAk?$AAe?$AAr?$AAn?$AAe?$AAl?$AA?2?$AAc?$AAr?$AAt?$AAs?$AA?2@ 0000000180089340     libucrtd:ieee.obj
 0002:0001f400       _load_config_used          0000000180089400     LIBCMTD:loadcfg.obj
 0002:0001f580       ??_R4exception@std@@6B@    0000000180089580     game_layer.obj
 0002:0001f5a8       ??_R3exception@std@@8      00000001800895a8     game_layer.obj
 0002:0001f5c0       ??_R2exception@std@@8      00000001800895c0     game_layer.obj
 0002:0001f5d0       ??_R1A@?0A@EA@exception@std@@8 00000001800895d0     game_layer.obj
 0002:0001f5f8       ??_R4bad_alloc@std@@6B@    00000001800895f8     game_layer.obj
 0002:0001f620       ??_R3bad_alloc@std@@8      0000000180089620     game_layer.obj
 0002:0001f638       ??_R2bad_alloc@std@@8      0000000180089638     game_layer.obj
 0002:0001f650       ??_R1A@?0A@EA@bad_alloc@std@@8 0000000180089650     game_layer.obj
 0002:0001f678       ??_R4bad_array_new_length@std@@6B@ 0000000180089678     game_layer.obj
 0002:0001f6a0       ??_R3bad_array_new_length@std@@8 00000001800896a0     game_layer.obj
 0002:0001f6b8       ??_R2bad_array_new_length@std@@8 00000001800896b8     game_layer.obj
 0002:0001f6d8       ??_R1A@?0A@EA@bad_array_new_length@std@@8 00000001800896d8     game_layer.obj
 0002:0001f700       ??_R4runtime_error@std@@6B@ 0000000180089700     game_layer.obj
 0002:0001f728       ??_R3runtime_error@std@@8  0000000180089728     game_layer.obj
 0002:0001f740       ??_R2runtime_error@std@@8  0000000180089740     game_layer.obj
 0002:0001f758       ??_R1A@?0A@EA@runtime_error@std@@8 0000000180089758     game_layer.obj
 0002:0001f780       ??_R3error_category@std@@8 0000000180089780     game_layer.obj
 0002:0001f798       ??_R2error_category@std@@8 0000000180089798     game_layer.obj
 0002:0001f7a8       ??_R1A@?0A@EA@error_category@std@@8 00000001800897a8     game_layer.obj
 0002:0001f7d0       ??_R4_System_error@std@@6B@ 00000001800897d0     game_layer.obj
 0002:0001f7f8       ??_R3_System_error@std@@8  00000001800897f8     game_layer.obj
 0002:0001f810       ??_R2_System_error@std@@8  0000000180089810     game_layer.obj
 0002:0001f830       ??_R1A@?0A@EA@_System_error@std@@8 0000000180089830     game_layer.obj
 0002:0001f858       ??_R4system_error@std@@6B@ 0000000180089858     game_layer.obj
 0002:0001f880       ??_R3system_error@std@@8   0000000180089880     game_layer.obj
 0002:0001f898       ??_R2system_error@std@@8   0000000180089898     game_layer.obj
 0002:0001f8c0       ??_R1A@?0A@EA@system_error@std@@8 00000001800898c0     game_layer.obj
 0002:0001f8e8       ??_R4_Iostream_error_category2@std@@6B@ 00000001800898e8     game_layer.obj
 0002:0001f910       ??_R3_Iostream_error_category2@std@@8 0000000180089910     game_layer.obj
 0002:0001f928       ??_R2_Iostream_error_category2@std@@8 0000000180089928     game_layer.obj
 0002:0001f940       ??_R1A@?0A@EA@_Iostream_error_category2@std@@8 0000000180089940     game_layer.obj
 0002:0001f968       ??_R4bad_cast@std@@6B@     0000000180089968     game_layer.obj
 0002:0001f990       ??_R3bad_cast@std@@8       0000000180089990     game_layer.obj
 0002:0001f9a8       ??_R2bad_cast@std@@8       00000001800899a8     game_layer.obj
 0002:0001f9c0       ??_R1A@?0A@EA@bad_cast@std@@8 00000001800899c0     game_layer.obj
 0002:0001f9e8       ??_R4_Facet_base@std@@6B@  00000001800899e8     game_layer.obj
 0002:0001fa10       ??_R3_Facet_base@std@@8    0000000180089a10     game_layer.obj
 0002:0001fa28       ??_R2_Facet_base@std@@8    0000000180089a28     game_layer.obj
 0002:0001fa38       ??_R1A@?0A@EA@_Facet_base@std@@8 0000000180089a38     game_layer.obj
 0002:0001fa60       ??_R1A@?0A@EA@facet@locale@std@@8 0000000180089a60     game_layer.obj
 0002:0001fa88       ??_R3facet@locale@std@@8   0000000180089a88     game_layer.obj
 0002:0001faa0       ??_R2facet@locale@std@@8   0000000180089aa0     game_layer.obj
 0002:0001fac0       ??_R17?0A@EA@_Crt_new_delete@std@@8 0000000180089ac0     game_layer.obj
 0002:0001fae8       ??_R3_Crt_new_delete@std@@8 0000000180089ae8     game_layer.obj
 0002:0001fb00       ??_R2_Crt_new_delete@std@@8 0000000180089b00     game_layer.obj
 0002:0001fb10       ??_R1A@?0A@EA@_Crt_new_delete@std@@8 0000000180089b10     game_layer.obj
 0002:0001fb38       ??_R4facet@locale@std@@6B@ 0000000180089b38     game_layer.obj
 0002:0001fb60       ??_R4ctype_base@std@@6B@   0000000180089b60     game_layer.obj
 0002:0001fb88       ??_R3ctype_base@std@@8     0000000180089b88     game_layer.obj
 0002:0001fba0       ??_R2ctype_base@std@@8     0000000180089ba0     game_layer.obj
 0002:0001fbc8       ??_R1A@?0A@EA@ctype_base@std@@8 0000000180089bc8     game_layer.obj
 0002:0001fbf0       ??_R4?$ctype@D@std@@6B@    0000000180089bf0     game_layer.obj
 0002:0001fc18       ??_R3?$ctype@D@std@@8      0000000180089c18     game_layer.obj
 0002:0001fc30       ??_R2?$ctype@D@std@@8      0000000180089c30     game_layer.obj
 0002:0001fc60       ??_R1A@?0A@EA@?$ctype@D@std@@8 0000000180089c60     game_layer.obj
 0002:0001fc88       ??_R4failure@ios_base@std@@6B@ 0000000180089c88     game_layer.obj
 0002:0001fcb0       ??_R3failure@ios_base@std@@8 0000000180089cb0     game_layer.obj
 0002:0001fcc8       ??_R2failure@ios_base@std@@8 0000000180089cc8     game_layer.obj
 0002:0001fcf8       ??_R1A@?0A@EA@failure@ios_base@std@@8 0000000180089cf8     game_layer.obj
 0002:0001fd20       ??_R4logic_error@std@@6B@  0000000180089d20     libcpmtd:xthrow.obj
 0002:0001fd48       ??_R3logic_error@std@@8    0000000180089d48     libcpmtd:xthrow.obj
 0002:0001fd60       ??_R2logic_error@std@@8    0000000180089d60     libcpmtd:xthrow.obj
 0002:0001fd78       ??_R1A@?0A@EA@logic_error@std@@8 0000000180089d78     libcpmtd:xthrow.obj
 0002:0001fda0       ??_R4length_error@std@@6B@ 0000000180089da0     libcpmtd:xthrow.obj
 0002:0001fdc8       ??_R3length_error@std@@8   0000000180089dc8     libcpmtd:xthrow.obj
 0002:0001fde0       ??_R2length_error@std@@8   0000000180089de0     libcpmtd:xthrow.obj
 0002:0001fe00       ??_R1A@?0A@EA@length_error@std@@8 0000000180089e00     libcpmtd:xthrow.obj
 0002:0001fe28       ??_R4out_of_range@std@@6B@ 0000000180089e28     libcpmtd:xthrow.obj
 0002:0001fe50       ??_R3out_of_range@std@@8   0000000180089e50     libcpmtd:xthrow.obj
 0002:0001fe68       ??_R2out_of_range@std@@8   0000000180089e68     libcpmtd:xthrow.obj
 0002:0001fe88       ??_R1A@?0A@EA@out_of_range@std@@8 0000000180089e88     libcpmtd:xthrow.obj
 0002:0001feb0       ??_R4_Locimp@locale@std@@6B@ 0000000180089eb0     libcpmtd:locale0.obj
 0002:0001fed8       ??_R3_Locimp@locale@std@@8 0000000180089ed8     libcpmtd:locale0.obj
 0002:0001fef0       ??_R2_Locimp@locale@std@@8 0000000180089ef0     libcpmtd:locale0.obj
 0002:0001ff18       ??_R1A@?0A@EA@_Locimp@locale@std@@8 0000000180089f18     libcpmtd:locale0.obj
 0002:0001ff40       ??_R4ios_base@std@@6B@     0000000180089f40     libcpmtd:cout.obj
 0002:0001ff68       ??_R3ios_base@std@@8       0000000180089f68     libcpmtd:cout.obj
 0002:0001ff80       ??_R2ios_base@std@@8       0000000180089f80     libcpmtd:cout.obj
 0002:0001ff98       ??_R1A@?0A@EA@ios_base@std@@8 0000000180089f98     libcpmtd:cout.obj
 0002:0001ffc0       ??_R17?0A@EA@?$_Iosb@H@std@@8 0000000180089fc0     libcpmtd:cout.obj
 0002:0001ffe8       ??_R3?$_Iosb@H@std@@8      0000000180089fe8     libcpmtd:cout.obj
 0002:00020000       ??_R2?$_Iosb@H@std@@8      000000018008a000     libcpmtd:cout.obj
 0002:00020010       ??_R1A@?0A@EA@?$_Iosb@H@std@@8 000000018008a010     libcpmtd:cout.obj
 0002:00020038       ??_R4?$basic_ios@DU?$char_traits@D@std@@@std@@6B@ 000000018008a038     libcpmtd:cout.obj
 0002:00020060       ??_R3?$basic_ios@DU?$char_traits@D@std@@@std@@8 000000018008a060     libcpmtd:cout.obj
 0002:00020078       ??_R2?$basic_ios@DU?$char_traits@D@std@@@std@@8 000000018008a078     libcpmtd:cout.obj
 0002:00020098       ??_R1A@?0A@EA@?$basic_ios@DU?$char_traits@D@std@@@std@@8 000000018008a098     libcpmtd:cout.obj
 0002:000200c0       ??_R4?$basic_streambuf@DU?$char_traits@D@std@@@std@@6B@ 000000018008a0c0     libcpmtd:cout.obj
 0002:000200e8       ??_R3?$basic_streambuf@DU?$char_traits@D@std@@@std@@8 000000018008a0e8     libcpmtd:cout.obj
 0002:00020100       ??_R2?$basic_streambuf@DU?$char_traits@D@std@@@std@@8 000000018008a100     libcpmtd:cout.obj
 0002:00020110       ??_R1A@?0A@EA@?$basic_streambuf@DU?$char_traits@D@std@@@std@@8 000000018008a110     libcpmtd:cout.obj
 0002:00020138       ??_R1A@A@3FA@?$basic_ios@DU?$char_traits@D@std@@@std@@8 000000018008a138     libcpmtd:cout.obj
 0002:00020160       ??_R1A@A@3EA@ios_base@std@@8 000000018008a160     libcpmtd:cout.obj
 0002:00020188       ??_R17A@3EA@?$_Iosb@H@std@@8 000000018008a188     libcpmtd:cout.obj
 0002:000201b0       ??_R4?$basic_ostream@DU?$char_traits@D@std@@@std@@6B@ 000000018008a1b0     libcpmtd:cout.obj
 0002:000201d8       ??_R3?$basic_ostream@DU?$char_traits@D@std@@@std@@8 000000018008a1d8     libcpmtd:cout.obj
 0002:000201f0       ??_R2?$basic_ostream@DU?$char_traits@D@std@@@std@@8 000000018008a1f0     libcpmtd:cout.obj
 0002:00020218       ??_R1A@?0A@EA@?$basic_ostream@DU?$char_traits@D@std@@@std@@8 000000018008a218     libcpmtd:cout.obj
 0002:00020240       ??_R4?$basic_filebuf@DU?$char_traits@D@std@@@std@@6B@ 000000018008a240     libcpmtd:cout.obj
 0002:00020268       ??_R3?$basic_filebuf@DU?$char_traits@D@std@@@std@@8 000000018008a268     libcpmtd:cout.obj
 0002:00020280       ??_R2?$basic_filebuf@DU?$char_traits@D@std@@@std@@8 000000018008a280     libcpmtd:cout.obj
 0002:00020298       ??_R1A@?0A@EA@?$basic_filebuf@DU?$char_traits@D@std@@@std@@8 000000018008a298     libcpmtd:cout.obj
 0002:000202c0       ??_R4codecvt_base@std@@6B@ 000000018008a2c0     libcpmtd:cout.obj
 0002:000202e8       ??_R3codecvt_base@std@@8   000000018008a2e8     libcpmtd:cout.obj
 0002:00020300       ??_R2codecvt_base@std@@8   000000018008a300     libcpmtd:cout.obj
 0002:00020328       ??_R1A@?0A@EA@codecvt_base@std@@8 000000018008a328     libcpmtd:cout.obj
 0002:00020350       ??_R4?$codecvt@DDU_Mbstatet@@@std@@6B@ 000000018008a350     libcpmtd:cout.obj
 0002:00020378       ??_R3?$codecvt@DDU_Mbstatet@@@std@@8 000000018008a378     libcpmtd:cout.obj
 0002:00020390       ??_R2?$codecvt@DDU_Mbstatet@@@std@@8 000000018008a390     libcpmtd:cout.obj
 0002:000203c0       ??_R1A@?0A@EA@?$codecvt@DDU_Mbstatet@@@std@@8 000000018008a3c0     libcpmtd:cout.obj
 0002:000203e8       ??_R4type_info@@6B@        000000018008a3e8     LIBCMTD:std_type_info_static.obj
 0002:00020410       ??_R3type_info@@8          000000018008a410     LIBCMTD:std_type_info_static.obj
 0002:00020428       ??_R2type_info@@8          000000018008a428     LIBCMTD:std_type_info_static.obj
 0002:00020438       ??_R1A@?0A@EA@type_info@@8 000000018008a438     LIBCMTD:std_type_info_static.obj
 0002:00020460       ??_R4bad_exception@std@@6B@ 000000018008a460     libvcruntimed:frame.obj
 0002:00020488       ??_R3bad_exception@std@@8  000000018008a488     libvcruntimed:frame.obj
 0002:000204a0       ??_R2bad_exception@std@@8  000000018008a4a0     libvcruntimed:frame.obj
 0002:000204b8       ??_R1A@?0A@EA@bad_exception@std@@8 000000018008a4b8     libvcruntimed:frame.obj
 0002:000204dc       __volatile_metadata        000000018008a4dc     <linker-defined>
 0002:000208b8       __rtc_iaa                  000000018008a8b8     LIBCMTD:initsect.obj
 0002:000208c0       __rtc_izz                  000000018008a8c0     LIBCMTD:initsect.obj
 0002:000208c8       __rtc_taa                  000000018008a8c8     LIBCMTD:initsect.obj
 0002:000208d0       __rtc_tzz                  000000018008a8d0     LIBCMTD:initsect.obj
 0002:00023180       _TI3?AVbad_array_new_length@std@@ 000000018008d180     game_layer.obj
 0002:000231a0       _CTA3?AVbad_array_new_length@std@@ 000000018008d1a0     game_layer.obj
 0002:000231c0       _CT??_R0?AVbad_array_new_length@std@@@8??0bad_array_new_length@std@@QEAA@AEBV01@@Z24 000000018008d1c0     game_layer.obj
 0002:000231e8       _CT??_R0?AVbad_alloc@std@@@8??0bad_alloc@std@@QEAA@AEBV01@@Z24 000000018008d1e8     game_layer.obj
 0002:00023210       _CT??_R0?AVexception@std@@@8??0exception@std@@QEAA@AEBV01@@Z24 000000018008d210     game_layer.obj
 0002:00023238       _CT??_R0?AVruntime_error@std@@@8??0runtime_error@std@@QEAA@AEBV01@@Z24 000000018008d238     game_layer.obj
 0002:00023260       _CT??_R0?AVsystem_error@std@@@8??0system_error@std@@QEAA@AEBV01@@Z40 000000018008d260     game_layer.obj
 0002:00023288       _CT??_R0?AV_System_error@std@@@8??0_System_error@std@@QEAA@AEBV01@@Z40 000000018008d288     game_layer.obj
 0002:000232b0       _TI2?AVbad_cast@std@@      000000018008d2b0     game_layer.obj
 0002:000232d0       _CTA2?AVbad_cast@std@@     000000018008d2d0     game_layer.obj
 0002:000232e8       _CT??_R0?AVbad_cast@std@@@8??0bad_cast@std@@QEAA@AEBV01@@Z24 000000018008d2e8     game_layer.obj
 0002:00023310       _TI5?AVfailure@ios_base@std@@ 000000018008d310     game_layer.obj
 0002:00023330       _CTA5?AVfailure@ios_base@std@@ 000000018008d330     game_layer.obj
 0002:00023360       _CT??_R0?AVfailure@ios_base@std@@@8??0failure@ios_base@std@@QEAA@AEBV012@@Z40 000000018008d360     game_layer.obj
 0002:00023388       _TI2?AVbad_alloc@std@@     000000018008d388     libcpmtd:xthrow.obj
 0002:000233a8       _CTA2?AVbad_alloc@std@@    000000018008d3a8     libcpmtd:xthrow.obj
 0002:000233c0       _CT??_R0?AVlogic_error@std@@@8??0logic_error@std@@QEAA@AEBV01@@Z24 000000018008d3c0     libcpmtd:xthrow.obj
 0002:000233e8       _TI3?AVlength_error@std@@  000000018008d3e8     libcpmtd:xthrow.obj
 0002:00023408       _CTA3?AVlength_error@std@@ 000000018008d408     libcpmtd:xthrow.obj
 0002:00023428       _CT??_R0?AVlength_error@std@@@8??0length_error@std@@QEAA@AEBV01@@Z24 000000018008d428     libcpmtd:xthrow.obj
 0002:00023450       _TI3?AVout_of_range@std@@  000000018008d450     libcpmtd:xthrow.obj
 0002:00023470       _CTA3?AVout_of_range@std@@ 000000018008d470     libcpmtd:xthrow.obj
 0002:00023490       _CT??_R0?AVout_of_range@std@@@8??0out_of_range@std@@QEAA@AEBV01@@Z24 000000018008d490     libcpmtd:xthrow.obj
 0002:000234b8       _TI2?AVruntime_error@std@@ 000000018008d4b8     libcpmtd:xthrow.obj
 0002:000234d8       _CTA2?AVruntime_error@std@@ 000000018008d4d8     libcpmtd:xthrow.obj
 0002:000234f0       _TI2?AVbad_exception@std@@ 000000018008d4f0     libvcruntimed:frame.obj
 0002:00023510       _CTA2?AVbad_exception@std@@ 000000018008d510     libvcruntimed:frame.obj
 0002:00023528       _CT??_R0?AVbad_exception@std@@@8??0bad_exception@std@@QEAA@AEBV01@@Z24 000000018008d528     libvcruntimed:frame.obj
 0002:000235d0       __IMPORT_DESCRIPTOR_raylib 000000018008d5d0     raylib:raylib.dll
 0002:000235e4       __IMPORT_DESCRIPTOR_KERNEL32 000000018008d5e4     kernel32:KERNEL32.dll
 0002:000235f8       __NULL_IMPORT_DESCRIPTOR   000000018008d5f8     raylib:raylib.dll
 0003:00000000       ?_Static@?1???$_Immortalize_memcpy_image@V_Iostream_error_category2@std@@@std@@YAAEBV_Iostream_error_category2@1@XZ@4U?$_Constexpr_immortalize_impl@V_Iostream_error_category2@std@@@1@A 000000018008e000     game_layer.obj
 0003:00000020       ?_Sync@ios_base@std@@0_NA  000000018008e020     libcpmtd:ios.obj
 0003:00000030       __security_cookie_complement 000000018008e030     LIBCMTD:gs_cookie.obj
 0003:00000038       __security_cookie          000000018008e038     LIBCMTD:gs_cookie.obj
 0003:00000040       _fltused                   000000018008e040     LIBCMTD:fltused.obj
 0003:00000044       __scrt_native_dllmain_reason 000000018008e044     LIBCMTD:utility.obj
 0003:00000048       __isa_available            000000018008e048     LIBCMTD:cpu_disp.obj
 0003:0000004c       __isa_enabled              000000018008e04c     LIBCMTD:cpu_disp.obj
 0003:00000050       __memcpy_nt_iters          000000018008e050     LIBCMTD:cpu_disp.obj
 0003:00000058       __memset_nt_iters          000000018008e058     LIBCMTD:cpu_disp.obj
 0003:00000074       _crtDbgFlag                000000018008e074     libucrtd:debug_heap.obj
 0003:00000078       _crtBreakAlloc             000000018008e078     libucrtd:debug_heap.obj
 0003:00000080       _pctype                    000000018008e080     libucrtd:ctype.obj
 0003:00000088       _pwctype                   000000018008e088     libucrtd:ctype.obj
 0003:00000090       _iob                       000000018008e090     libucrtd:_file.obj
 0003:000001b0       __acrt_lconv_c             000000018008e1b0     libucrtd:localeconv.obj
 0003:00000248       __acrt_lconv               000000018008e248     libucrtd:localeconv.obj
 0003:00000250       __acrt_lconv_static_decimal 000000018008e250     libucrtd:localeconv.obj
 0003:00000254       __acrt_lconv_static_W_decimal 000000018008e254     libucrtd:localeconv.obj
 0003:00000258       __abort_behavior           000000018008e258     libucrtd:abort.obj
 0003:00000268       _pfnAllocHook              000000018008e268     libucrtd:debug_heap_hook.obj
 0003:00000280       __acrt_initial_locale_data 000000018008e280     libucrtd:nlsdata.obj
 0003:000003d8       __acrt_initial_locale_pointers 000000018008e3d8     libucrtd:nlsdata.obj
 0003:000003e8       __acrt_wide_c_locale_string 000000018008e3e8     libucrtd:nlsdata.obj
 0003:000003ec       __mb_cur_max               000000018008e3ec     libucrtd:nlsdata.obj
 0003:000003f0       _crtAssertBusy             000000018008e3f0     libucrtd:dbgrptt.obj
 0003:000003f8       _CrtDbgMode                000000018008e3f8     libucrtd:dbgrptt.obj
 0003:00000408       _CrtDbgFile                000000018008e408     libucrtd:dbgrptt.obj
 0003:00000430       __badioinfo                000000018008e430     libucrtd:ioinit.obj
 0003:00000490       __globallocalestatus       000000018008e490     libucrtd:glstatus.obj
 0003:000004a0       _lookuptrailbytes          000000018008e4a0     libucrtd:read.obj
 0003:00000740       __acrt_initial_multibyte_data 000000018008e740     libucrtd:mbctype.obj
 0003:00000ca0       ??_R0?AVbad_array_new_length@std@@@8 000000018008eca0     game_layer.obj
 0003:00000cd0       ??_R0?AVbad_alloc@std@@@8  000000018008ecd0     game_layer.obj
 0003:00000cf8       ??_R0?AVexception@std@@@8  000000018008ecf8     game_layer.obj
 0003:00000d20       ??_R0?AVruntime_error@std@@@8 000000018008ed20     game_layer.obj
 0003:00000d48       ??_R0?AVsystem_error@std@@@8 000000018008ed48     game_layer.obj
 0003:00000d70       ??_R0?AV_System_error@std@@@8 000000018008ed70     game_layer.obj
 0003:00000d98       ??_R0?AVbad_cast@std@@@8   000000018008ed98     game_layer.obj
 0003:00000dc0       ??_R0?AVfailure@ios_base@std@@@8 000000018008edc0     game_layer.obj
 0003:00000df0       ??_R0?AVlogic_error@std@@@8 000000018008edf0     libcpmtd:xthrow.obj
 0003:00000e18       ??_R0?AVlength_error@std@@@8 000000018008ee18     libcpmtd:xthrow.obj
 0003:00000e40       ??_R0?AVout_of_range@std@@@8 000000018008ee40     libcpmtd:xthrow.obj
 0003:00000e68       ??_R0?AVbad_exception@std@@@8 000000018008ee68     libvcruntimed:frame.obj
 0003:00000e90       ??_R0?AVerror_category@std@@@8 000000018008ee90     game_layer.obj
 0003:00000ec0       ??_R0?AV_Iostream_error_category2@std@@@8 000000018008eec0     game_layer.obj
 0003:00000ef8       ??_R0?AV_Facet_base@std@@@8 000000018008eef8     game_layer.obj
 0003:00000f20       ??_R0?AVfacet@locale@std@@@8 000000018008ef20     game_layer.obj
 0003:00000f48       ??_R0?AU_Crt_new_delete@std@@@8 000000018008ef48     game_layer.obj
 0003:00000f78       ??_R0?AUctype_base@std@@@8 000000018008ef78     game_layer.obj
 0003:00000fa0       ??_R0?AV?$ctype@D@std@@@8  000000018008efa0     game_layer.obj
 0003:00000fc8       ??_R0?AV_Locimp@locale@std@@@8 000000018008efc8     libcpmtd:locale0.obj
 0003:00000ff8       ??_R0?AVios_base@std@@@8   000000018008eff8     libcpmtd:cout.obj
 0003:00001020       ??_R0?AV?$_Iosb@H@std@@@8  000000018008f020     libcpmtd:cout.obj
 0003:00001048       ??_R0?AV?$basic_ios@DU?$char_traits@D@std@@@std@@@8 000000018008f048     libcpmtd:cout.obj
 0003:00001090       ??_R0?AV?$basic_streambuf@DU?$char_traits@D@std@@@std@@@8 000000018008f090     libcpmtd:cout.obj
 0003:000010e0       ??_R0?AV?$basic_ostream@DU?$char_traits@D@std@@@std@@@8 000000018008f0e0     libcpmtd:cout.obj
 0003:00001130       ??_R0?AV?$basic_filebuf@DU?$char_traits@D@std@@@std@@@8 000000018008f130     libcpmtd:cout.obj
 0003:00001178       ??_R0?AVcodecvt_base@std@@@8 000000018008f178     libcpmtd:cout.obj
 0003:000011a0       ??_R0?AV?$codecvt@DDU_Mbstatet@@@std@@@8 000000018008f1a0     libcpmtd:cout.obj
 0003:000011d8       ??_R0?AVtype_info@@@8      000000018008f1d8     LIBCMTD:std_type_info_static.obj
 0003:00001200       ?DebugGlobalInfo@@3PEAUdebug_info@@EA 000000018008f200     game_layer.obj
 0003:000025a0       ?_OptionsStorage@?1??__local_stdio_printf_options@@9@4_KA 00000001800905a0     game_layer.obj
 0003:000025a8       ?id@?$num_put@DV?$ostreambuf_iterator@DU?$char_traits@D@std@@@std@@@std@@2V0locale@2@A 00000001800905a8     game_layer.obj
 0003:000025b0       ?id@?$numpunct@D@std@@2V0locale@2@A 00000001800905b0     game_layer.obj
 0003:000025b8       ?_Psave@?$_Facetptr@V?$ctype@D@std@@@std@@2PEBVfacet@locale@2@EB 00000001800905b8     game_layer.obj
 0003:00002710       ?_Id_cnt@id@locale@std@@0HA 0000000180090710     libcpmtd:locale0.obj
 0003:00002718       ?_Clocptr@_Locimp@locale@std@@0PEAV123@EA 0000000180090718     libcpmtd:locale0.obj
 0003:00002720       ?id@?$ctype@_W@std@@2V0locale@2@A 0000000180090720     libcpmtd:locale0.obj
 0003:00002728       ?id@?$ctype@D@std@@2V0locale@2@A 0000000180090728     libcpmtd:locale0.obj
 0003:00002730       ?id@?$codecvt@GDU_Mbstatet@@@std@@2V0locale@2@A 0000000180090730     libcpmtd:locale0.obj
 0003:00002738       ?id@?$ctype@G@std@@2V0locale@2@A 0000000180090738     libcpmtd:locale0.obj
 0003:00002750       ?id@?$codecvt@_WDU_Mbstatet@@@std@@2V0locale@2@A 0000000180090750     libcpmtd:locale0.obj
 0003:00002790       ?cout@std@@3V?$basic_ostream@DU?$char_traits@D@std@@@1@A 0000000180090790     libcpmtd:cout.obj
 0003:00002898       ?id@?$codecvt@DDU_Mbstatet@@@std@@2V0locale@2@A 0000000180090898     libcpmtd:cout.obj
 0003:000028a0       ?_Stinit@?1??_Init@?$basic_filebuf@DU?$char_traits@D@std@@@std@@IEAAXPEAU_iobuf@@W4_Initfl@23@@Z@4U_Mbstatet@@A 00000001800908a0     libcpmtd:cout.obj
 0003:000028a8       ?_Psave@?$_Facetptr@V?$codecvt@DDU_Mbstatet@@@std@@@std@@2PEBVfacet@locale@2@EB 00000001800908a8     libcpmtd:cout.obj
 0003:000028b0       ?id@?$num_get@DV?$istreambuf_iterator@DU?$char_traits@D@std@@@std@@@std@@2V0locale@2@A 00000001800908b0     libcpmtd:locale.obj
 0003:000028c0       ?_Ptr_cin@std@@3PEAV?$basic_istream@DU?$char_traits@D@std@@@1@EA 00000001800908c0     libcpmtd:iosptrs.obj
 0003:000028c8       ?_Ptr_cout@std@@3PEAV?$basic_ostream@DU?$char_traits@D@std@@@1@EA 00000001800908c8     libcpmtd:iosptrs.obj
 0003:000028d0       ?_Ptr_cerr@std@@3PEAV?$basic_ostream@DU?$char_traits@D@std@@@1@EA 00000001800908d0     libcpmtd:iosptrs.obj
 0003:000028d8       ?_Ptr_clog@std@@3PEAV?$basic_ostream@DU?$char_traits@D@std@@@1@EA 00000001800908d8     libcpmtd:iosptrs.obj
 0003:000028e0       ?_Ptr_wcin@std@@3PEAV?$basic_istream@_WU?$char_traits@_W@std@@@1@EA 00000001800908e0     libcpmtd:iosptrs.obj
 0003:000028e8       ?_Ptr_wcout@std@@3PEAV?$basic_ostream@_WU?$char_traits@_W@std@@@1@EA 00000001800908e8     libcpmtd:iosptrs.obj
 0003:000028f0       ?_Ptr_wcerr@std@@3PEAV?$basic_ostream@_WU?$char_traits@_W@std@@@1@EA 00000001800908f0     libcpmtd:iosptrs.obj
 0003:000028f8       ?_Ptr_wclog@std@@3PEAV?$basic_ostream@_WU?$char_traits@_W@std@@@1@EA 00000001800908f8     libcpmtd:iosptrs.obj
 0003:00002960       ?_Index@ios_base@std@@0HA  0000000180090960     libcpmtd:ios.obj
 0003:000029d0       ?id@?$time_put@_WV?$ostreambuf_iterator@_WU?$char_traits@_W@std@@@std@@@std@@2V0locale@2@A 00000001800909d0     libcpmtd:wlocale.obj
 0003:000029d8       ?id@?$num_get@_WV?$istreambuf_iterator@_WU?$char_traits@_W@std@@@std@@@std@@2V0locale@2@A 00000001800909d8     libcpmtd:wlocale.obj
 0003:000029e0       ?id@?$num_put@_WV?$ostreambuf_iterator@_WU?$char_traits@_W@std@@@std@@@std@@2V0locale@2@A 00000001800909e0     libcpmtd:wlocale.obj
 0003:000029e8       ?id@?$numpunct@_W@std@@2V0locale@2@A 00000001800909e8     libcpmtd:wlocale.obj
 0003:000029f0       ?id@?$collate@_W@std@@2V0locale@2@A 00000001800909f0     libcpmtd:wlocale.obj
 0003:000029f8       ?id@?$messages@_W@std@@2V0locale@2@A 00000001800909f8     libcpmtd:wlocale.obj
 0003:00002a00       ?id@?$money_get@_WV?$istreambuf_iterator@_WU?$char_traits@_W@std@@@std@@@std@@2V0locale@2@A 0000000180090a00     libcpmtd:wlocale.obj
 0003:00002a08       ?id@?$money_put@_WV?$ostreambuf_iterator@_WU?$char_traits@_W@std@@@std@@@std@@2V0locale@2@A 0000000180090a08     libcpmtd:wlocale.obj
 0003:00002a10       ?id@?$moneypunct@_W$0A@@std@@2V0locale@2@A 0000000180090a10     libcpmtd:wlocale.obj
 0003:00002a18       ?id@?$moneypunct@_W$00@std@@2V0locale@2@A 0000000180090a18     libcpmtd:wlocale.obj
 0003:00002a20       ?id@?$time_get@_WV?$istreambuf_iterator@_WU?$char_traits@_W@std@@@std@@@std@@2V0locale@2@A 0000000180090a20     libcpmtd:wlocale.obj
 0003:00002a28       ?id@?$num_get@GV?$istreambuf_iterator@GU?$char_traits@G@std@@@std@@@std@@2V0locale@2@A 0000000180090a28     libcpmtd:wlocale.obj
 0003:00002a30       ?id@?$num_put@GV?$ostreambuf_iterator@GU?$char_traits@G@std@@@std@@@std@@2V0locale@2@A 0000000180090a30     libcpmtd:wlocale.obj
 0003:00002a38       ?id@?$numpunct@G@std@@2V0locale@2@A 0000000180090a38     libcpmtd:wlocale.obj
 0003:00002a40       ?id@?$collate@G@std@@2V0locale@2@A 0000000180090a40     libcpmtd:wlocale.obj
 0003:00002a48       ?id@?$messages@G@std@@2V0locale@2@A 0000000180090a48     libcpmtd:wlocale.obj
 0003:00002a50       ?id@?$money_get@GV?$istreambuf_iterator@GU?$char_traits@G@std@@@std@@@std@@2V0locale@2@A 0000000180090a50     libcpmtd:wlocale.obj
 0003:00002a58       ?id@?$money_put@GV?$ostreambuf_iterator@GU?$char_traits@G@std@@@std@@@std@@2V0locale@2@A 0000000180090a58     libcpmtd:wlocale.obj
 0003:00002a60       ?id@?$moneypunct@G$0A@@std@@2V0locale@2@A 0000000180090a60     libcpmtd:wlocale.obj
 0003:00002a68       ?id@?$moneypunct@G$00@std@@2V0locale@2@A 0000000180090a68     libcpmtd:wlocale.obj
 0003:00002a70       ?id@?$time_get@GV?$istreambuf_iterator@GU?$char_traits@G@std@@@std@@@std@@2V0locale@2@A 0000000180090a70     libcpmtd:wlocale.obj
 0003:00002a78       ?id@?$time_put@GV?$ostreambuf_iterator@GU?$char_traits@G@std@@@std@@@std@@2V0locale@2@A 0000000180090a78     libcpmtd:wlocale.obj
 0003:00002a80       ?id@?$collate@D@std@@2V0locale@2@A 0000000180090a80     libcpmtd:xlocale.obj
 0003:00002a88       ?id@?$messages@D@std@@2V0locale@2@A 0000000180090a88     libcpmtd:xlocale.obj
 0003:00002a90       ?id@?$money_get@DV?$istreambuf_iterator@DU?$char_traits@D@std@@@std@@@std@@2V0locale@2@A 0000000180090a90     libcpmtd:xlocale.obj
 0003:00002a98       ?id@?$money_put@DV?$ostreambuf_iterator@DU?$char_traits@D@std@@@std@@@std@@2V0locale@2@A 0000000180090a98     libcpmtd:xlocale.obj
 0003:00002aa0       ?id@?$moneypunct@D$0A@@std@@2V0locale@2@A 0000000180090aa0     libcpmtd:xlocale.obj
 0003:00002aa8       ?id@?$moneypunct@D$00@std@@2V0locale@2@A 0000000180090aa8     libcpmtd:xlocale.obj
 0003:00002ab0       ?id@?$time_get@DV?$istreambuf_iterator@DU?$char_traits@D@std@@@std@@@std@@2V0locale@2@A 0000000180090ab0     libcpmtd:xlocale.obj
 0003:00002ab8       ?id@?$time_put@DV?$ostreambuf_iterator@DU?$char_traits@D@std@@@std@@@std@@2V0locale@2@A 0000000180090ab8     libcpmtd:xlocale.obj
 0003:00002ac8       __scrt_current_native_startup_state 0000000180090ac8     LIBCMTD:utility.obj
 0003:00002ad0       __scrt_native_startup_lock 0000000180090ad0     LIBCMTD:utility.obj
 0003:00002b10       __castguard_check_failure_os_handled_fptr 0000000180090b10     LIBCMTD:guard_support.obj
 0003:00003090       ?__type_info_root_node@@3U__type_info_node@@A 0000000180091090     LIBCMTD:tncleanup.obj
 0003:000030a0       ?_OptionsStorage@?1??__local_stdio_scanf_options@@9@4_KA 00000001800910a0     LIBCMTD:default_local_stdio_options.obj
 0003:000030a8       __scrt_debugger_hook_flag  00000001800910a8     LIBCMTD:utility_desktop.obj
 0003:000030ac       __favor                    00000001800910ac     LIBCMTD:cpu_disp.obj
 0003:000030b0       ?__WinRTOutOfMemoryExceptionCallback@@3P6APEAXXZEA 00000001800910b0     libvcruntimed:ehhelpers.obj
 0003:000030b8       __pPurecall                00000001800910b8     libvcruntimed:purevirt_data.obj
 0003:00003170       ?pArgList@UnDecorator@@0PEAVReplicator@@EA 0000000180091170     libvcruntimed:undname.obj
 0003:00003178       ?pZNameList@UnDecorator@@0PEAVReplicator@@EA 0000000180091178     libvcruntimed:undname.obj
 0003:00003180       ?pTemplateArgList@UnDecorator@@0PEAVReplicator@@EA 0000000180091180     libvcruntimed:undname.obj
 0003:00003188       ?gName@UnDecorator@@0PEBDEB 0000000180091188     libvcruntimed:undname.obj
 0003:00003190       ?name@UnDecorator@@0PEBDEB 0000000180091190     libvcruntimed:undname.obj
 0003:00003198       ?disableFlags@UnDecorator@@0KA 0000000180091198     libvcruntimed:undname.obj
 0003:0000319c       ?fExplicitTemplateParams@UnDecorator@@0_NA 000000018009119c     libvcruntimed:undname.obj
 0003:0000319d       ?fGetTemplateArgumentList@UnDecorator@@0_NA 000000018009119d     libvcruntimed:undname.obj
 0003:000031a0       ?m_pGetParameter@UnDecorator@@0P6APEADJ@ZEA 00000001800911a0     libvcruntimed:undname.obj
 0003:000031a8       ?m_CHPENameOffset@UnDecorator@@0KA 00000001800911a8     libvcruntimed:undname.obj
 0003:000031ac       ?m_recursionLevel@UnDecorator@@0KA 00000001800911ac     libvcruntimed:undname.obj
 0003:00003250       _pfnDumpClient             0000000180091250     libucrtd:debug_heap.obj
 0003:00003498       _nstream                   0000000180091498     libucrtd:_file.obj
 0003:000034a0       __piob                     00000001800914a0     libucrtd:_file.obj
 0003:000034a8       _cflush                    00000001800914a8     libucrtd:_file.obj
 0003:000034ac       __acrt_lconv_static_null   00000001800914ac     libucrtd:localeconv.obj
 0003:000034b0       __acrt_lconv_static_W_null 00000001800914b0     libucrtd:localeconv.obj
 0003:000034d0       ?c_exit_complete@?1???R<lambda_6e4b09c48022b2350581041d5f6b0c4c>@@QEBA@XZ@4_NA 00000001800914d0     libucrtd:exit.obj
 0003:000035e8       _environ_table             00000001800915e8     libucrtd:environment_initialization.obj
 0003:000035f0       _wenviron_table            00000001800915f0     libucrtd:environment_initialization.obj
 0003:000035f8       __dcrt_initial_wide_environment 00000001800915f8     libucrtd:environment_initialization.obj
 0003:00003600       __dcrt_initial_narrow_environment 0000000180091600     libucrtd:environment_initialization.obj
 0003:00003608       __acrt_atexit_table        0000000180091608     libucrtd:onexit.obj
 0003:00003620       __acrt_at_quick_exit_table 0000000180091620     libucrtd:onexit.obj
 0003:0000363c       __acrt_locale_changed_data 000000018009163c     libucrtd:wsetlocale.obj
 0003:00003640       __acrt_current_locale_data 0000000180091640     libucrtd:nlsdata.obj
 0003:00003648       __acrt_heap                0000000180091648     libucrtd:heap_handle.obj
 0003:00003650       _pfnReportHook             0000000180091650     libucrtd:dbgrptt.obj
 0003:00003658       _pReportHookList           0000000180091658     libucrtd:dbgrptt.obj
 0003:00003660       _pReportHookListW          0000000180091660     libucrtd:dbgrptt.obj
 0003:00003698       __acrt_stdout_buffer       0000000180091698     libucrtd:_sftbuf.obj
 0003:000036a0       __acrt_stderr_buffer       00000001800916a0     libucrtd:_sftbuf.obj
 0003:000036b0       __pioinfo                  00000001800916b0     libucrtd:ioinit.obj
 0003:00003ab0       _nhandle                   0000000180091ab0     libucrtd:ioinit.obj
 0003:000040ec       __fma3_is_available        00000001800920ec     libucrtd:fma3_available.obj
 0003:000040f0       __use_fma3_lib             00000001800920f0     libucrtd:fma3_available.obj
 0003:000042b8       ?_timezone@@3V?$dual_state_global@J@__crt_state_management@@A 00000001800922b8     libucrtd:timeset.obj
 0003:000042bc       ?_daylight@@3V?$dual_state_global@H@__crt_state_management@@A 00000001800922bc     libucrtd:timeset.obj
 0003:000042c0       ?_dstbias@@3V?$dual_state_global@J@__crt_state_management@@A 00000001800922c0     libucrtd:timeset.obj
 0003:000043a8       _mbctype                   00000001800923a8     libucrtd:mbctype.obj
 0003:000043b0       _mbcasemap                 00000001800923b0     libucrtd:mbctype.obj
 0003:000043b8       __acrt_current_multibyte_data 00000001800923b8     libucrtd:mbctype.obj
 0003:000043c8       _pgmptr                    00000001800923c8     libucrtd:argv_data.obj
 0003:000043d0       __argc                     00000001800923d0     libucrtd:argv_data.obj
 0003:000043d8       __argv                     00000001800923d8     libucrtd:argv_data.obj
 0003:000043e0       __wargv                    00000001800923e0     libucrtd:argv_data.obj
 0003:000043e8       _acmdln                    00000001800923e8     libucrtd:argv_data.obj
 0003:000043f0       _wcmdln                    00000001800923f0     libucrtd:argv_data.obj
 0003:00004410       __scrt_ucrt_dll_is_in_use  0000000180092410     <common>
 0003:00004418       __dyn_tls_init_callback    0000000180092418     <common>

 entry point at        0001:0000fb60

 Static symbols

 0000:fff65000       .debug$S                   0000000180000000     game_layer.exp
 0000:fff65000       .debug$S                   0000000180000000     kernel32:KERNEL32.dll
 0000:fff65000       .debug$S                   0000000180000000     kernel32:KERNEL32.dll
 0000:fff65000       .debug$S                   0000000180000000     kernel32:KERNEL32.dll
 0000:fff65000       .debug$S                   0000000180000000     kernel32:KERNEL32.dll
 0000:fff65000       .debug$S                   0000000180000000     kernel32:KERNEL32.dll
 0000:fff65000       .debug$S                   0000000180000000     kernel32:KERNEL32.dll
 0000:fff65000       .debug$S                   0000000180000000     kernel32:KERNEL32.dll
 0000:fff65000       .debug$S                   0000000180000000     kernel32:KERNEL32.dll
 0000:fff65000       .debug$S                   0000000180000000     kernel32:KERNEL32.dll
 0000:fff65000       .debug$S                   0000000180000000     kernel32:KERNEL32.dll
 0000:fff65000       .debug$S                   0000000180000000     kernel32:KERNEL32.dll
 0000:fff65000       .debug$S                   0000000180000000     kernel32:KERNEL32.dll
 0000:fff65000       .debug$S                   0000000180000000     kernel32:KERNEL32.dll
 0000:fff65000       .debug$S                   0000000180000000     kernel32:KERNEL32.dll
 0000:fff65000       .debug$S                   0000000180000000     kernel32:KERNEL32.dll
 0000:fff65000       .debug$S                   0000000180000000     kernel32:KERNEL32.dll
 0000:fff65000       .debug$S                   0000000180000000     kernel32:KERNEL32.dll
 0000:fff65000       .debug$S                   0000000180000000     kernel32:KERNEL32.dll
 0000:fff65000       .debug$S                   0000000180000000     kernel32:KERNEL32.dll
 0000:fff65000       .debug$S                   0000000180000000     kernel32:KERNEL32.dll
 0000:fff65000       .debug$S                   0000000180000000     kernel32:KERNEL32.dll
 0000:fff65000       .debug$S                   0000000180000000     kernel32:KERNEL32.dll
 0000:fff65000       .debug$S                   0000000180000000     kernel32:KERNEL32.dll
 0000:fff65000       .debug$S                   0000000180000000     kernel32:KERNEL32.dll
 0000:fff65000       .debug$S                   0000000180000000     kernel32:KERNEL32.dll
 0000:fff65000       .debug$S                   0000000180000000     kernel32:KERNEL32.dll
 0000:fff65000       .debug$S                   0000000180000000     kernel32:KERNEL32.dll
 0000:fff65000       .debug$S                   0000000180000000     kernel32:KERNEL32.dll
 0000:fff65000       .debug$S                   0000000180000000     kernel32:KERNEL32.dll
 0000:fff65000       .debug$S                   0000000180000000     kernel32:KERNEL32.dll
 0000:fff65000       .debug$S                   0000000180000000     kernel32:KERNEL32.dll
 0000:fff65000       .debug$S                   0000000180000000     kernel32:KERNEL32.dll
 0000:fff65000       .debug$S                   0000000180000000     kernel32:KERNEL32.dll
 0000:fff65000       .debug$S                   0000000180000000     kernel32:KERNEL32.dll
 0000:fff65000       .debug$S                   0000000180000000     kernel32:KERNEL32.dll
 0000:fff65000       .debug$S                   0000000180000000     kernel32:KERNEL32.dll
 0000:fff65000       .debug$S                   0000000180000000     kernel32:KERNEL32.dll
 0000:fff65000       .debug$S                   0000000180000000     kernel32:KERNEL32.dll
 0000:fff65000       .debug$S                   0000000180000000     kernel32:KERNEL32.dll
 0000:fff65000       .debug$S                   0000000180000000     kernel32:KERNEL32.dll
 0000:fff65000       .debug$S                   0000000180000000     kernel32:KERNEL32.dll
 0000:fff65000       .debug$S                   0000000180000000     kernel32:KERNEL32.dll
 0000:fff65000       .debug$S                   0000000180000000     kernel32:KERNEL32.dll
 0000:fff65000       .debug$S                   0000000180000000     kernel32:KERNEL32.dll
 0000:fff65000       .debug$S                   0000000180000000     kernel32:KERNEL32.dll
 0000:fff65000       .debug$S                   0000000180000000     kernel32:KERNEL32.dll
 0000:fff65000       .debug$S                   0000000180000000     kernel32:KERNEL32.dll
 0000:fff65000       .debug$S                   0000000180000000     kernel32:KERNEL32.dll
 0000:fff65000       .debug$S                   0000000180000000     kernel32:KERNEL32.dll
 0000:fff65000       .debug$S                   0000000180000000     kernel32:KERNEL32.dll
 0000:fff65000       .debug$S                   0000000180000000     kernel32:KERNEL32.dll
 0000:fff65000       .debug$S                   0000000180000000     kernel32:KERNEL32.dll
 0000:fff65000       .debug$S                   0000000180000000     kernel32:KERNEL32.dll
 0000:fff65000       .debug$S                   0000000180000000     kernel32:KERNEL32.dll
 0000:fff65000       .debug$S                   0000000180000000     kernel32:KERNEL32.dll
 0000:fff65000       .debug$S                   0000000180000000     kernel32:KERNEL32.dll
 0000:fff65000       .debug$S                   0000000180000000     kernel32:KERNEL32.dll
 0000:fff65000       .debug$S                   0000000180000000     kernel32:KERNEL32.dll
 0000:fff65000       .debug$S                   0000000180000000     kernel32:KERNEL32.dll
 0000:fff65000       .debug$S                   0000000180000000     kernel32:KERNEL32.dll
 0000:fff65000       .debug$S                   0000000180000000     kernel32:KERNEL32.dll
 0000:fff65000       .debug$S                   0000000180000000     kernel32:KERNEL32.dll
 0000:fff65000       .debug$S                   0000000180000000     kernel32:KERNEL32.dll
 0000:fff65000       .debug$S                   0000000180000000     kernel32:KERNEL32.dll
 0000:fff65000       .debug$S                   0000000180000000     kernel32:KERNEL32.dll
 0000:fff65000       .debug$S                   0000000180000000     kernel32:KERNEL32.dll
 0000:fff65000       .debug$S                   0000000180000000     kernel32:KERNEL32.dll
 0000:fff65000       .debug$S                   0000000180000000     kernel32:KERNEL32.dll
 0000:fff65000       .debug$S                   0000000180000000     kernel32:KERNEL32.dll
 0000:fff65000       .debug$S                   0000000180000000     kernel32:KERNEL32.dll
 0000:fff65000       .debug$S                   0000000180000000     kernel32:KERNEL32.dll
 0000:fff65000       .debug$S                   0000000180000000     kernel32:KERNEL32.dll
 0000:fff65000       .debug$S                   0000000180000000     kernel32:KERNEL32.dll
