 GameA

 Timestamp is 633095c2 (Sun Sep 25 19:54:10 2022)

 Preferred load address is 0000000140000000

 Start         Length     Name                   Class
 0001:00000000 00000610H .text$di                CODE
 0001:00000610 00070b70H .text$mn                CODE
 0001:00071180 00000040H .text$mn$00             CODE
 0001:000711c0 00001440H .text$x                 CODE
 0001:00072600 000000f5H .text$yd                CODE
 0002:00000000 000002c8H .idata$5                DATA
 0002:000002c8 00000028H .00cfg                  DATA
 0002:000002f0 00000008H .CRT$XCA                DATA
 0002:000002f8 00000008H .CRT$XCAA               DATA
 0002:00000300 00000130H .CRT$XCC                DATA
 0002:00000430 00000038H .CRT$XCL                DATA
 0002:00000468 00000008H .CRT$XCZ                DATA
 0002:00000470 00000008H .CRT$XIA                DATA
 0002:00000478 00000008H .CRT$XIAA               DATA
 0002:00000480 00000008H .CRT$XIAC               DATA
 0002:00000488 00000028H .CRT$XIC                DATA
 0002:000004b0 00000008H .CRT$XIZ                DATA
 0002:000004b8 00000008H .CRT$XPA                DATA
 0002:000004c0 00000010H .CRT$XPX                DATA
 0002:000004d0 00000008H .CRT$XPXA               DATA
 0002:000004d8 00000008H .CRT$XPZ                DATA
 0002:000004e0 00000008H .CRT$XTA                DATA
 0002:000004e8 00000008H .CRT$XTZ                DATA
 0002:000004f0 00000000H .gehcont$y              DATA
 0002:000004f0 00000000H .gfids$y                DATA
 0002:000004f0 00029f90H .rdata                  DATA
 0002:0002a480 00000000H .rdata$CastGuardVftablesA DATA
 0002:0002a480 00000000H .rdata$CastGuardVftablesC DATA
 0002:0002a480 00001114H .rdata$r                DATA
 0002:0002b594 00000040H .rdata$voltmd           DATA
 0002:0002b5d4 000003b4H .rdata$zzzdbg           DATA
 0002:0002b988 00000008H .rtc$IAA                DATA
 0002:0002b990 00000008H .rtc$IZZ                DATA
 0002:0002b998 00000008H .rtc$TAA                DATA
 0002:0002b9a0 00000010H .rtc$TZZ                DATA
 0002:0002b9b0 00002b60H .xdata                  DATA
 0002:0002e510 000003ccH .xdata$x                DATA
 0002:0002e8dc 00000000H .edata                  DATA
 0002:0002e8dc 00000014H .idata$2                DATA
 0002:0002e8f0 00000018H .idata$3                DATA
 0002:0002e908 000002c8H .idata$4                DATA
 0002:0002ebd0 0000066cH .idata$6                DATA
 0003:00000000 00000cb8H .data                   DATA
 0003:00000cb8 000001f8H .data$r                 DATA
 0003:00000eb0 00000440H .data$rs                DATA
 0003:000012f0 00001e90H .bss                    DATA
 0004:00000000 00004e3cH .pdata                  DATA
 0005:00000000 000000f4H _RDATA                  DATA

  Address         Publics by Value              Rva+Base               Lib:Object

 0000:00000000       __arm64x_redirection_metadata 0000000000000000     <absolute>
 0000:00000000       __x64_code_ranges_to_entry_points_count 0000000000000000     <absolute>
 0000:00000000       ___safe_se_handler_table   0000000000000000     <absolute>
 0000:00000000       __guard_iat_count          0000000000000000     <absolute>
 0000:00000000       __guard_longjmp_count      0000000000000000     <absolute>
 0000:00000000       __dynamic_value_reloc_table 0000000000000000     <absolute>
 0000:00000000       __hybrid_auxiliary_iat     0000000000000000     <absolute>
 0000:00000000       __hybrid_auxiliary_iat_copy 0000000000000000     <absolute>
 0000:00000000       __guard_longjmp_table      0000000000000000     <absolute>
 0000:00000000       __x64_code_ranges_to_entry_points 0000000000000000     <absolute>
 0000:00000000       __guard_iat_table          0000000000000000     <absolute>
 0000:00000000       __guard_fids_count         0000000000000000     <absolute>
 0000:00000000       __AbsoluteZero             0000000000000000     <absolute>
 0000:00000000       __arm64x_extra_rfe_table   0000000000000000     <absolute>
 0000:00000000       __guard_check_icall_a64n_fptr 0000000000000000     <absolute>
 0000:00000000       __hybrid_code_map          0000000000000000     <absolute>
 0000:00000000       __arm64x_extra_rfe_table_size 0000000000000000     <absolute>
 0000:00000000       __guard_fids_table         0000000000000000     <absolute>
 0000:00000000       ___safe_se_handler_count   0000000000000000     <absolute>
 0000:00000000       __guard_eh_cont_count      0000000000000000     <absolute>
 0000:00000000       __arm64x_redirection_metadata_count 0000000000000000     <absolute>
 0000:00000000       __enclave_config           0000000000000000     <absolute>
 0000:00000000       __guard_eh_cont_table      0000000000000000     <absolute>
 0000:00000000       __arm64x_native_entrypoint 0000000000000000     <absolute>
 0000:00000000       __hybrid_code_map_count    0000000000000000     <absolute>
 0000:00000100       __guard_flags              0000000000000100     <absolute>
 0000:00000000       __ImageBase                0000000140000000     <linker-defined>
 0001:00000610       ??$?6U?$char_traits@D@std@@@std@@YAAEAV?$basic_ostream@DU?$char_traits@D@std@@@0@AEAV10@PEBD@Z 0000000140001610 f i win32_layer.obj
 0001:000008e0       ??$_Allocate@$0BA@U_Default_allocate_traits@std@@$0A@@std@@YAPEAX_K@Z 00000001400018e0 f i win32_layer.obj
 0001:000009c0       ??$_Deallocate@$0BA@$0A@@std@@YAXPEAX_K@Z 00000001400019c0 f i win32_layer.obj
 0001:00000af0       ??$_Verify_range@D@std@@YAXQEBD0@Z 0000000140001af0 f i win32_layer.obj
 0001:00000b60       ??$endl@DU?$char_traits@D@std@@@std@@YAAEAV?$basic_ostream@DU?$char_traits@D@std@@@0@AEAV10@@Z 0000000140001b60 f i win32_layer.obj
 0001:00000ba0       ??$use_facet@V?$codecvt@DDU_Mbstatet@@@std@@@std@@YAAEBV?$codecvt@DDU_Mbstatet@@@0@AEBVlocale@0@@Z 0000000140001ba0 f i win32_layer.obj
 0001:00000cc0       ??$use_facet@V?$ctype@D@std@@@std@@YAAEBV?$ctype@D@0@AEBVlocale@0@@Z 0000000140001cc0 f i win32_layer.obj
 0001:00000de0       ??$use_facet@V?$numpunct@D@std@@@std@@YAAEBV?$numpunct@D@0@AEBVlocale@0@@Z 0000000140001de0 f i win32_layer.obj
 0001:00000f00       ??0?$basic_ofstream@DU?$char_traits@D@std@@@std@@QEAA@XZ 0000000140001f00 f i win32_layer.obj
 0001:00001090       ??0?$basic_ostream@DU?$char_traits@D@std@@@std@@QEAA@PEAV?$basic_streambuf@DU?$char_traits@D@std@@@1@_N@Z 0000000140002090 f i win32_layer.obj
 0001:000012a0       ??0?$basic_streambuf@DU?$char_traits@D@std@@@std@@IEAA@XZ 00000001400022a0 f i win32_layer.obj
 0001:00001340       ??0?$basic_string@DU?$char_traits@D@std@@V?$allocator@D@2@@std@@QEAA@$$QEAV01@@Z 0000000140002340 f i win32_layer.obj
 0001:00001430       ??0?$basic_string@DU?$char_traits@D@std@@V?$allocator@D@2@@std@@QEAA@QEBD@Z 0000000140002430 f i win32_layer.obj
 0001:000014c0       ??0?$basic_string@DU?$char_traits@D@std@@V?$allocator@D@2@@std@@QEAA@QEBD_K@Z 00000001400024c0 f i win32_layer.obj
 0001:00001550       ??0?$basic_string@DU?$char_traits@D@std@@V?$allocator@D@2@@std@@QEAA@_KD@Z 0000000140002550 f i win32_layer.obj
 0001:000016b0       ??0?$numpunct@D@std@@QEAA@AEBV_Locinfo@1@_K_N@Z 00000001400026b0 f i win32_layer.obj
 0001:00001890       ??0_System_error@std@@IEAA@Verror_code@1@AEBV?$basic_string@DU?$char_traits@D@std@@V?$allocator@D@2@@1@@Z 0000000140002890 f i win32_layer.obj
 0001:00001b40       ??0_System_error@std@@QEAA@AEBV01@@Z 0000000140002b40 f i win32_layer.obj
 0001:00001ba0       ??0bad_alloc@std@@QEAA@AEBV01@@Z 0000000140002ba0 f i win32_layer.obj
 0001:00001bf0       ??0bad_array_new_length@std@@QEAA@AEBV01@@Z 0000000140002bf0 f i win32_layer.obj
 0001:00001c40       ??0bad_array_new_length@std@@QEAA@XZ 0000000140002c40 f i win32_layer.obj
 0001:00001c80       ??0bad_cast@std@@QEAA@AEBV01@@Z 0000000140002c80 f i win32_layer.obj
 0001:00001cd0       ??0bad_cast@std@@QEAA@XZ   0000000140002cd0 f i win32_layer.obj
 0001:00001d00       ??0exception@std@@QEAA@AEBV01@@Z 0000000140002d00 f i win32_layer.obj
 0001:00001d40       ??0exception@std@@QEAA@QEBD@Z 0000000140002d40 f i win32_layer.obj
 0001:00001d80       ??0exception@std@@QEAA@QEBDH@Z 0000000140002d80 f i win32_layer.obj
 0001:00001da0       ??0facet@locale@std@@IEAA@_K@Z 0000000140002da0 f i win32_layer.obj
 0001:00001dc0       ??0failure@ios_base@std@@QEAA@AEBV012@@Z 0000000140002dc0 f i win32_layer.obj
 0001:00001e40       ??0failure@ios_base@std@@QEAA@PEBDAEBVerror_code@2@@Z 0000000140002e40 f i win32_layer.obj
 0001:00001e80       ??0id@locale@std@@QEAA@_K@Z 0000000140002e80 f i win32_layer.obj
 0001:00001e90       ??0runtime_error@std@@QEAA@AEBV01@@Z 0000000140002e90 f i win32_layer.obj
 0001:00001ee0       ??0sentry@?$basic_ostream@DU?$char_traits@D@std@@@std@@QEAA@AEAV12@@Z 0000000140002ee0 f i win32_layer.obj
 0001:00001f60       ??0system_error@std@@QEAA@AEBV01@@Z 0000000140002f60 f i win32_layer.obj
 0001:00001fd0       ??0system_error@std@@QEAA@Verror_code@1@PEBD@Z 0000000140002fd0 f i win32_layer.obj
 0001:00002230       ??1?$_Container_proxy_ptr12@V?$allocator@U_Container_proxy@std@@@std@@@std@@QEAA@XZ 0000000140003230 f i win32_layer.obj
 0001:00002250       ??1?$_Tidy_guard@V?$numpunct@D@std@@@std@@QEAA@XZ 0000000140003250 f i win32_layer.obj
 0001:00002280       ??1?$_Yarn@_W@std@@QEAA@XZ 0000000140003280 f i win32_layer.obj
 0001:00002280       ??1?$_Yarn@D@std@@QEAA@XZ  0000000140003280 f i win32_layer.obj
 0001:00002280       ?_Tidy@?$_Yarn@D@std@@AEAAXXZ 0000000140003280 f i win32_layer.obj
 0001:000022b0       ??1?$basic_filebuf@DU?$char_traits@D@std@@@std@@UEAA@XZ 00000001400032b0 f i win32_layer.obj
 0001:000023d0       ??1?$basic_ios@DU?$char_traits@D@std@@@std@@UEAA@XZ 00000001400033d0 f i win32_layer.obj
 0001:00002400       ??1?$basic_ostream@DU?$char_traits@D@std@@@std@@UEAA@XZ 0000000140003400 f i win32_layer.obj
 0001:00002430       ??1?$basic_streambuf@DU?$char_traits@D@std@@@std@@UEAA@XZ 0000000140003430 f i win32_layer.obj
 0001:00002480       ??1?$basic_string@DU?$char_traits@D@std@@V?$allocator@D@2@@std@@QEAA@XZ 0000000140003480 f i win32_layer.obj
 0001:000024d0       ??1?$unique_ptr@V_Facet_base@std@@U?$default_delete@V_Facet_base@std@@@2@@std@@QEAA@XZ 00000001400034d0 f i win32_layer.obj
 0001:000024f0       ??1_Facet_base@std@@UEAA@XZ 00000001400034f0 f i win32_layer.obj
 0001:00002500       ??1_Locinfo@std@@QEAA@XZ   0000000140003500 f i win32_layer.obj
 0001:000025c0       ??1_Sentry_base@?$basic_ostream@DU?$char_traits@D@std@@@std@@QEAA@XZ 00000001400035c0 f i win32_layer.obj
 0001:000025f0       ??1_System_error@std@@UEAA@XZ 00000001400035f0 f i win32_layer.obj
 0001:000025f0       ??1bad_array_new_length@std@@UEAA@XZ 00000001400035f0 f i win32_layer.obj
 0001:00002620       ??1bad_cast@std@@UEAA@XZ   0000000140003620 f i win32_layer.obj
 0001:00002620       ??1bad_alloc@std@@UEAA@XZ  0000000140003620 f i win32_layer.obj
 0001:00002620       ??1runtime_error@std@@UEAA@XZ 0000000140003620 f i win32_layer.obj
 0001:00002650       ??1codecvt_base@std@@UEAA@XZ 0000000140003650 f i win32_layer.obj
 0001:00002680       ??1ctype_base@std@@UEAA@XZ 0000000140003680 f i win32_layer.obj
 0001:000026b0       ??1exception@std@@UEAA@XZ  00000001400036b0 f i win32_layer.obj
 0001:000026d0       ??1facet@locale@std@@MEAA@XZ 00000001400036d0 f i win32_layer.obj
 0001:000026f0       ??1failure@ios_base@std@@UEAA@XZ 00000001400036f0 f i win32_layer.obj
 0001:00002720       ??1ios_base@std@@UEAA@XZ   0000000140003720 f i win32_layer.obj
 0001:00002740       ??1locale@std@@QEAA@XZ     0000000140003740 f i win32_layer.obj
 0001:00002770       ??1sentry@?$basic_ostream@DU?$char_traits@D@std@@@std@@QEAA@XZ 0000000140003770 f i win32_layer.obj
 0001:000027b0       ??1system_error@std@@UEAA@XZ 00000001400037b0 f i win32_layer.obj
 0001:000027e0       ??2@YAPEAX_KPEAX@Z         00000001400037e0 f i win32_layer.obj
 0001:000027f0       ??2_Crt_new_delete@std@@SAPEAX_K@Z 00000001400037f0 f i win32_layer.obj
 0001:00002830       ??3_Crt_new_delete@std@@SAXPEAX@Z 0000000140003830 f i win32_layer.obj
 0001:00002840       ??6?$basic_ostream@DU?$char_traits@D@std@@@std@@QEAAAEAV01@P6AAEAV01@AEAV01@@Z@Z 0000000140003840 f i win32_layer.obj
 0001:00002850       ??6?$basic_ostream@DU?$char_traits@D@std@@@std@@QEAAAEAV01@_K@Z 0000000140003850 f i win32_layer.obj
 0001:00002b70       ??A?$basic_string@DU?$char_traits@D@std@@V?$allocator@D@2@@std@@QEAAAEAD_K@Z 0000000140003b70 f i win32_layer.obj
 0001:00002c20       ??_D?$basic_ofstream@DU?$char_traits@D@std@@@std@@QEAAXXZ 0000000140003c20 f i win32_layer.obj
 0001:00002cd0       ??_D?$basic_ostream@DU?$char_traits@D@std@@@std@@QEAAXXZ 0000000140003cd0 f i win32_layer.obj
 0001:00002d24       ??_E?$basic_ofstream@DU?$char_traits@D@std@@@std@@$4PPPPPPPM@A@EAAPEAXI@Z 0000000140003d24 f i win32_layer.obj
 0001:00002d30       ??_E?$basic_ostream@DU?$char_traits@D@std@@@std@@$4PPPPPPPM@A@EAAPEAXI@Z 0000000140003d30 f i win32_layer.obj
 0001:00002d40       ??_G?$basic_filebuf@DU?$char_traits@D@std@@@std@@UEAAPEAXI@Z 0000000140003d40 f i win32_layer.obj
 0001:00002d40       ??_E?$basic_filebuf@DU?$char_traits@D@std@@@std@@UEAAPEAXI@Z 0000000140003d40 f i win32_layer.obj
 0001:00002d80       ??_E?$basic_ios@DU?$char_traits@D@std@@@std@@UEAAPEAXI@Z 0000000140003d80 f i win32_layer.obj
 0001:00002d80       ??_G?$basic_ios@DU?$char_traits@D@std@@@std@@UEAAPEAXI@Z 0000000140003d80 f i win32_layer.obj
 0001:00002dd0       ??_G?$basic_ofstream@DU?$char_traits@D@std@@@std@@UEAAPEAXI@Z 0000000140003dd0 f i win32_layer.obj
 0001:00002dd0       ??_E?$basic_ofstream@DU?$char_traits@D@std@@@std@@UEAAPEAXI@Z 0000000140003dd0 f i win32_layer.obj
 0001:00002e10       ??_G?$basic_ostream@DU?$char_traits@D@std@@@std@@UEAAPEAXI@Z 0000000140003e10 f i win32_layer.obj
 0001:00002e10       ??_E?$basic_ostream@DU?$char_traits@D@std@@@std@@UEAAPEAXI@Z 0000000140003e10 f i win32_layer.obj
 0001:00002e90       ??_E?$basic_streambuf@DU?$char_traits@D@std@@@std@@UEAAPEAXI@Z 0000000140003e90 f i win32_layer.obj
 0001:00002e90       ??_G?$basic_streambuf@DU?$char_traits@D@std@@@std@@UEAAPEAXI@Z 0000000140003e90 f i win32_layer.obj
 0001:00002f10       ??_G?$codecvt@DDU_Mbstatet@@@std@@MEAAPEAXI@Z 0000000140003f10 f i win32_layer.obj
 0001:00002f10       ??_E?$codecvt@DDU_Mbstatet@@@std@@MEAAPEAXI@Z 0000000140003f10 f i win32_layer.obj
 0001:00002f70       ??_G?$ctype@D@std@@MEAAPEAXI@Z 0000000140003f70 f i win32_layer.obj
 0001:00002f70       ??_E?$ctype@D@std@@MEAAPEAXI@Z 0000000140003f70 f i win32_layer.obj
 0001:00003010       ??_E?$num_put@DV?$ostreambuf_iterator@DU?$char_traits@D@std@@@std@@@std@@MEAAPEAXI@Z 0000000140004010 f i win32_layer.obj
 0001:00003010       ??_G?$num_put@DV?$ostreambuf_iterator@DU?$char_traits@D@std@@@std@@@std@@MEAAPEAXI@Z 0000000140004010 f i win32_layer.obj
 0001:00003070       ??_G?$numpunct@D@std@@MEAAPEAXI@Z 0000000140004070 f i win32_layer.obj
 0001:00003070       ??_E?$numpunct@D@std@@MEAAPEAXI@Z 0000000140004070 f i win32_layer.obj
 0001:00003100       ??_G_Facet_base@std@@UEAAPEAXI@Z 0000000140004100 f i win32_layer.obj
 0001:00003100       ??_E_Facet_base@std@@UEAAPEAXI@Z 0000000140004100 f i win32_layer.obj
 0001:00003130       ??_G_Iostream_error_category2@std@@UEAAPEAXI@Z 0000000140004130 f i win32_layer.obj
 0001:00003130       ??_E_Iostream_error_category2@std@@UEAAPEAXI@Z 0000000140004130 f i win32_layer.obj
 0001:00003160       ??_G_System_error@std@@UEAAPEAXI@Z 0000000140004160 f i win32_layer.obj
 0001:00003160       ??_E_System_error@std@@UEAAPEAXI@Z 0000000140004160 f i win32_layer.obj
 0001:000031b0       ??_Ebad_alloc@std@@UEAAPEAXI@Z 00000001400041b0 f i win32_layer.obj
 0001:000031b0       ??_Gbad_cast@std@@UEAAPEAXI@Z 00000001400041b0 f i win32_layer.obj
 0001:000031b0       ??_Eruntime_error@std@@UEAAPEAXI@Z 00000001400041b0 f i win32_layer.obj
 0001:000031b0       ??_Ebad_cast@std@@UEAAPEAXI@Z 00000001400041b0 f i win32_layer.obj
 0001:000031b0       ??_Gruntime_error@std@@UEAAPEAXI@Z 00000001400041b0 f i win32_layer.obj
 0001:000031b0       ??_Gbad_alloc@std@@UEAAPEAXI@Z 00000001400041b0 f i win32_layer.obj
 0001:00003200       ??_Ebad_array_new_length@std@@UEAAPEAXI@Z 0000000140004200 f i win32_layer.obj
 0001:00003200       ??_Gbad_array_new_length@std@@UEAAPEAXI@Z 0000000140004200 f i win32_layer.obj
 0001:00003250       ??_Ecodecvt_base@std@@UEAAPEAXI@Z 0000000140004250 f i win32_layer.obj
 0001:00003250       ??_Gcodecvt_base@std@@UEAAPEAXI@Z 0000000140004250 f i win32_layer.obj
 0001:000032b0       ??_Ectype_base@std@@UEAAPEAXI@Z 00000001400042b0 f i win32_layer.obj
 0001:000032b0       ??_Gctype_base@std@@UEAAPEAXI@Z 00000001400042b0 f i win32_layer.obj
 0001:00003310       ??_Gexception@std@@UEAAPEAXI@Z 0000000140004310 f i win32_layer.obj
 0001:00003310       ??_Eexception@std@@UEAAPEAXI@Z 0000000140004310 f i win32_layer.obj
 0001:00003360       ??_Gfacet@locale@std@@MEAAPEAXI@Z 0000000140004360 f i win32_layer.obj
 0001:00003360       ??_Efacet@locale@std@@MEAAPEAXI@Z 0000000140004360 f i win32_layer.obj
 0001:000033b0       ??_Gfailure@ios_base@std@@UEAAPEAXI@Z 00000001400043b0 f i win32_layer.obj
 0001:000033b0       ??_Efailure@ios_base@std@@UEAAPEAXI@Z 00000001400043b0 f i win32_layer.obj
 0001:00003400       ??_Gios_base@std@@UEAAPEAXI@Z 0000000140004400 f i win32_layer.obj
 0001:00003400       ??_Eios_base@std@@UEAAPEAXI@Z 0000000140004400 f i win32_layer.obj
 0001:00003440       ??_Glocale@std@@QEAAPEAXI@Z 0000000140004440 f i win32_layer.obj
 0001:000034b0       ??_Esystem_error@std@@UEAAPEAXI@Z 00000001400044b0 f i win32_layer.obj
 0001:000034b0       ??_Gsystem_error@std@@UEAAPEAXI@Z 00000001400044b0 f i win32_layer.obj
 0001:00003500       ?LoadRaylibWrapperDLL@@YA?AUraylib_wrapper_code@@PEAD@Z 0000000140004500 f   win32_layer.obj
 0001:0000fa00       ?_Decref@facet@locale@std@@UEAAPEAV_Facet_base@3@XZ 0000000140010a00 f i win32_layer.obj
 0001:0000fa10       ?_Endwrite@?$basic_filebuf@DU?$char_traits@D@std@@@std@@IEAA_NXZ 0000000140010a10 f i win32_layer.obj
 0001:0000fb00       ?_Fput@?$num_put@DV?$ostreambuf_iterator@DU?$char_traits@D@std@@@std@@@std@@AEBA?AV?$ostreambuf_iterator@DU?$char_traits@D@std@@@2@V32@AEAVios_base@2@DPEBD_K@Z 0000000140010b00 f i win32_layer.obj
 0001:00010390       ?_Getcat@?$codecvt@DDU_Mbstatet@@@std@@SA_KPEAPEBVfacet@locale@2@PEBV42@@Z 0000000140011390 f i win32_layer.obj
 0001:00010570       ?_Getcat@?$ctype@D@std@@SA_KPEAPEBVfacet@locale@2@PEBV42@@Z 0000000140011570 f i win32_layer.obj
 0001:00010770       ?_Getcat@?$num_put@DV?$ostreambuf_iterator@DU?$char_traits@D@std@@@std@@@std@@SA_KPEAPEBVfacet@locale@2@PEBV42@@Z 0000000140011770 f i win32_layer.obj
 0001:00010950       ?_Getcat@?$numpunct@D@std@@SA_KPEAPEBVfacet@locale@2@PEBV42@@Z 0000000140011950 f i win32_layer.obj
 0001:00010b20       ?_Gnavail@?$basic_streambuf@DU?$char_traits@D@std@@@std@@IEBA_JXZ 0000000140011b20 f i win32_layer.obj
 0001:00010b40       ?_Incref@facet@locale@std@@UEAAXXZ 0000000140011b40 f i win32_layer.obj
 0001:00010b50       ?_Init@?$basic_filebuf@DU?$char_traits@D@std@@@std@@IEAAXPEAU_iobuf@@W4_Initfl@12@@Z 0000000140011b50 f i win32_layer.obj
 0001:00010c20       ?_Initcvt@?$basic_filebuf@DU?$char_traits@D@std@@@std@@IEAAXAEBV?$codecvt@DDU_Mbstatet@@@2@@Z 0000000140011c20 f i win32_layer.obj
 0001:00010ca0       ?_Iput@?$num_put@DV?$ostreambuf_iterator@DU?$char_traits@D@std@@@std@@@std@@AEBA?AV?$ostreambuf_iterator@DU?$char_traits@D@std@@@2@V32@AEAVios_base@2@DPEAD_K@Z 0000000140011ca0 f i win32_layer.obj
 0001:000114c0       ?_Lock@?$basic_filebuf@DU?$char_traits@D@std@@@std@@UEAAXXZ 00000001400124c0 f i win32_layer.obj
 0001:000114e0       ?imbue@?$basic_streambuf@DU?$char_traits@D@std@@@std@@MEAAXAEBVlocale@2@@Z 00000001400124e0 f i win32_layer.obj
 0001:000114e0       ?_Unlock@?$basic_streambuf@DU?$char_traits@D@std@@@std@@UEAAXXZ 00000001400124e0 f i win32_layer.obj
 0001:000114e0       _initialize_invalid_parameter_handler 00000001400124e0 f i LIBCMTD:invalid_parameter_handler.obj
 0001:000114e0       _initialize_denormal_control 00000001400124e0 f i LIBCMTD:denormal_control.obj
 0001:000114e0       ?_Lock@?$basic_streambuf@DU?$char_traits@D@std@@@std@@UEAAXXZ 00000001400124e0 f i win32_layer.obj
 0001:000114e0       ?__empty_global_delete@@YAXPEAX_K@Z 00000001400124e0 f i win32_layer.obj
 0001:000114e0       ?__global_delete@@YAXPEAX_K@Z 00000001400124e0 f i win32_layer.obj
 0001:000114f0       ?_Orphan_all@_Container_base12@std@@QEAAXXZ 00000001400124f0 f i win32_layer.obj
 0001:00011550       ?_Osfx@?$basic_ostream@DU?$char_traits@D@std@@@std@@QEAAXXZ 0000000140012550 f i win32_layer.obj
 0001:00011600       ?_Pnavail@?$basic_streambuf@DU?$char_traits@D@std@@@std@@IEBA_JXZ 0000000140012600 f i win32_layer.obj
 0001:00011620       ?_Rep@?$num_put@DV?$ostreambuf_iterator@DU?$char_traits@D@std@@@std@@@std@@AEBA?AV?$ostreambuf_iterator@DU?$char_traits@D@std@@@2@V32@D_K@Z 0000000140012620 f i win32_layer.obj
 0001:000116d0       ?_Reset_back@?$basic_filebuf@DU?$char_traits@D@std@@@std@@AEAAXXZ 00000001400126d0 f i win32_layer.obj
 0001:00011700       ?_Throw_bad_array_new_length@std@@YAXXZ 0000000140012700 f i win32_layer.obj
 0001:00011720       ?_Throw_bad_cast@std@@YAXXZ 0000000140012720 f i win32_layer.obj
 0001:00011740       ?_Unlock@?$basic_filebuf@DU?$char_traits@D@std@@@std@@UEAAXXZ 0000000140012740 f i win32_layer.obj
 0001:00011760       ?_Xlen_string@std@@YAXXZ   0000000140012760 f i win32_layer.obj
 0001:00011780       ?_Xran@?$_String_val@U?$_Simple_types@D@std@@@std@@SAXXZ 0000000140012780 f i win32_layer.obj
 0001:000117a0       ?append@?$basic_string@DU?$char_traits@D@std@@V?$allocator@D@2@@std@@QEAAAEAV12@QEBD_K@Z 00000001400127a0 f i win32_layer.obj
 0001:00011900       ?assign@?$basic_string@DU?$char_traits@D@std@@V?$allocator@D@2@@std@@QEAAAEAV12@QEBD_K@Z 0000000140012900 f i win32_layer.obj
 0001:000119f0       ?clear@ios_base@std@@QEAAXH@Z 00000001400129f0 f i win32_layer.obj
 0001:00011a70       ?default_error_condition@error_category@std@@UEBA?AVerror_condition@2@H@Z 0000000140012a70 f i win32_layer.obj
 0001:00011a80       _should_initialize_environment 0000000140012a80 f i LIBCMTD:env_mode.obj
 0001:00011a80       ?do_always_noconv@?$codecvt@DDU_Mbstatet@@@std@@MEBA_NXZ 0000000140012a80 f i win32_layer.obj
 0001:00011a90       ?do_always_noconv@codecvt_base@std@@MEBA_NXZ 0000000140012a90 f i win32_layer.obj
 0001:00011aa0       ?do_decimal_point@?$numpunct@D@std@@MEBADXZ 0000000140012aa0 f i win32_layer.obj
 0001:00011ab0       _get_startup_argv_mode     0000000140012ab0 f i LIBCMTD:argv_mode.obj
 0001:00011ab0       ?do_max_length@codecvt_base@std@@MEBAHXZ 0000000140012ab0 f i win32_layer.obj
 0001:00011ab0       ?do_encoding@codecvt_base@std@@MEBAHXZ 0000000140012ab0 f i win32_layer.obj
 0001:00011ac0       ?do_falsename@?$numpunct@D@std@@MEBA?AV?$basic_string@DU?$char_traits@D@std@@V?$allocator@D@2@@2@XZ 0000000140012ac0 f i win32_layer.obj
 0001:00011b00       ?do_grouping@?$numpunct@D@std@@MEBA?AV?$basic_string@DU?$char_traits@D@std@@V?$allocator@D@2@@2@XZ 0000000140012b00 f i win32_layer.obj
 0001:00011b40       ?do_out@?$codecvt@DDU_Mbstatet@@@std@@MEBAHAEAU_Mbstatet@@PEBD1AEAPEBDPEAD3AEAPEAD@Z 0000000140012b40 f i win32_layer.obj
 0001:00011b40       ?do_in@?$codecvt@DDU_Mbstatet@@@std@@MEBAHAEAU_Mbstatet@@PEBD1AEAPEBDPEAD3AEAPEAD@Z 0000000140012b40 f i win32_layer.obj
 0001:00011b60       ?do_length@?$codecvt@DDU_Mbstatet@@@std@@MEBAHAEAU_Mbstatet@@PEBD1_K@Z 0000000140012b60 f i win32_layer.obj
 0001:00011b80       ?do_widen@?$ctype@D@std@@MEBADD@Z 0000000140012b80 f i win32_layer.obj
 0001:00011b80       ?do_narrow@?$ctype@D@std@@MEBADDD@Z 0000000140012b80 f i win32_layer.obj
 0001:00011b90       ?do_narrow@?$ctype@D@std@@MEBAPEBDPEBD0DPEAD@Z 0000000140012b90 f i win32_layer.obj
 0001:00011bd0       ?do_put@?$num_put@DV?$ostreambuf_iterator@DU?$char_traits@D@std@@@std@@@std@@MEBA?AV?$ostreambuf_iterator@DU?$char_traits@D@std@@@2@V32@AEAVios_base@2@DJ@Z 0000000140012bd0 f i win32_layer.obj
 0001:00011cf0       ?do_put@?$num_put@DV?$ostreambuf_iterator@DU?$char_traits@D@std@@@std@@@std@@MEBA?AV?$ostreambuf_iterator@DU?$char_traits@D@std@@@2@V32@AEAVios_base@2@DK@Z 0000000140012cf0 f i win32_layer.obj
 0001:00011e10       ?do_put@?$num_put@DV?$ostreambuf_iterator@DU?$char_traits@D@std@@@std@@@std@@MEBA?AV?$ostreambuf_iterator@DU?$char_traits@D@std@@@2@V32@AEAVios_base@2@DN@Z 0000000140012e10 f i win32_layer.obj
 0001:000121d0       ?do_put@?$num_put@DV?$ostreambuf_iterator@DU?$char_traits@D@std@@@std@@@std@@MEBA?AV?$ostreambuf_iterator@DU?$char_traits@D@std@@@2@V32@AEAVios_base@2@DO@Z 00000001400131d0 f i win32_layer.obj
 0001:000125a0       ?do_put@?$num_put@DV?$ostreambuf_iterator@DU?$char_traits@D@std@@@std@@@std@@MEBA?AV?$ostreambuf_iterator@DU?$char_traits@D@std@@@2@V32@AEAVios_base@2@DPEBX@Z 00000001400135a0 f i win32_layer.obj
 0001:00012640       ?do_put@?$num_put@DV?$ostreambuf_iterator@DU?$char_traits@D@std@@@std@@@std@@MEBA?AV?$ostreambuf_iterator@DU?$char_traits@D@std@@@2@V32@AEAVios_base@2@D_J@Z 0000000140013640 f i win32_layer.obj
 0001:00012760       ?do_put@?$num_put@DV?$ostreambuf_iterator@DU?$char_traits@D@std@@@std@@@std@@MEBA?AV?$ostreambuf_iterator@DU?$char_traits@D@std@@@2@V32@AEAVios_base@2@D_K@Z 0000000140013760 f i win32_layer.obj
 0001:00012880       ?do_put@?$num_put@DV?$ostreambuf_iterator@DU?$char_traits@D@std@@@std@@@std@@MEBA?AV?$ostreambuf_iterator@DU?$char_traits@D@std@@@2@V32@AEAVios_base@2@D_N@Z 0000000140013880 f i win32_layer.obj
 0001:000132a0       ?do_thousands_sep@?$numpunct@D@std@@MEBADXZ 00000001400142a0 f i win32_layer.obj
 0001:000132b0       ?do_tolower@?$ctype@D@std@@MEBADD@Z 00000001400142b0 f i win32_layer.obj
 0001:000132c0       ?do_tolower@?$ctype@D@std@@MEBAPEBDPEADPEBD@Z 00000001400142c0 f i win32_layer.obj
 0001:00013320       ?do_toupper@?$ctype@D@std@@MEBADD@Z 0000000140014320 f i win32_layer.obj
 0001:00013330       ?do_toupper@?$ctype@D@std@@MEBAPEBDPEADPEBD@Z 0000000140014330 f i win32_layer.obj
 0001:00013390       ?do_truename@?$numpunct@D@std@@MEBA?AV?$basic_string@DU?$char_traits@D@std@@V?$allocator@D@2@@2@XZ 0000000140014390 f i win32_layer.obj
 0001:000133d0       ?do_unshift@?$codecvt@DDU_Mbstatet@@@std@@MEBAHAEAU_Mbstatet@@PEAD1AEAPEAD@Z 00000001400143d0 f i win32_layer.obj
 0001:000133e0       ?do_widen@?$ctype@D@std@@MEBAPEBDPEBD0PEAD@Z 00000001400143e0 f i win32_layer.obj
 0001:00013430       ?equivalent@error_category@std@@UEBA_NAEBVerror_code@2@H@Z 0000000140014430 f i win32_layer.obj
 0001:00013450       ?equivalent@error_category@std@@UEBA_NHAEBVerror_condition@2@@Z 0000000140014450 f i win32_layer.obj
 0001:00013490       ?flush@?$basic_ostream@DU?$char_traits@D@std@@@std@@QEAAAEAV12@XZ 0000000140014490 f i win32_layer.obj
 0001:00013580       ?grouping@?$numpunct@D@std@@QEBA?AV?$basic_string@DU?$char_traits@D@std@@V?$allocator@D@2@@2@XZ 0000000140014580 f i win32_layer.obj
 0001:000135b0       ?imbue@?$basic_filebuf@DU?$char_traits@D@std@@@std@@MEAAXAEBVlocale@2@@Z 00000001400145b0 f i win32_layer.obj
 0001:000135e0       ?make_error_code@std@@YA?AVerror_code@1@W4io_errc@1@@Z 00000001400145e0 f i win32_layer.obj
 0001:00013600       ?message@_Iostream_error_category2@std@@UEBA?AV?$basic_string@DU?$char_traits@D@std@@V?$allocator@D@2@@2@H@Z 0000000140014600 f i win32_layer.obj
 0001:00013660       ?name@_Iostream_error_category2@std@@UEBAPEBDXZ 0000000140014660 f i win32_layer.obj
 0001:00013670       ?open@?$basic_ofstream@DU?$char_traits@D@std@@@std@@QEAAXPEBDHH@Z 0000000140014670 f i win32_layer.obj
 0001:00013830       ?overflow@?$basic_filebuf@DU?$char_traits@D@std@@@std@@MEAAHH@Z 0000000140014830 f i win32_layer.obj
 0001:000139d0       ?underflow@?$basic_streambuf@DU?$char_traits@D@std@@@std@@MEAAHXZ 00000001400149d0 f i win32_layer.obj
 0001:000139d0       ?overflow@?$basic_streambuf@DU?$char_traits@D@std@@@std@@MEAAHH@Z 00000001400149d0 f i win32_layer.obj
 0001:000139d0       ?pbackfail@?$basic_streambuf@DU?$char_traits@D@std@@@std@@MEAAHH@Z 00000001400149d0 f i win32_layer.obj
 0001:000139e0       ?pbackfail@?$basic_filebuf@DU?$char_traits@D@std@@@std@@MEAAHH@Z 00000001400149e0 f i win32_layer.obj
 0001:00013ad0       ?put@?$basic_ostream@DU?$char_traits@D@std@@@std@@QEAAAEAV12@D@Z 0000000140014ad0 f i win32_layer.obj
 0001:00013c80       ?resize@?$basic_string@DU?$char_traits@D@std@@V?$allocator@D@2@@std@@QEAAX_KD@Z 0000000140014c80 f i win32_layer.obj
 0001:00013e00       ?seekoff@?$basic_filebuf@DU?$char_traits@D@std@@@std@@MEAA?AV?$fpos@U_Mbstatet@@@2@_JHH@Z 0000000140014e00 f i win32_layer.obj
 0001:00013ed0       ?seekpos@?$basic_streambuf@DU?$char_traits@D@std@@@std@@MEAA?AV?$fpos@U_Mbstatet@@@2@V32@H@Z 0000000140014ed0 f i win32_layer.obj
 0001:00013ed0       ?seekoff@?$basic_streambuf@DU?$char_traits@D@std@@@std@@MEAA?AV?$fpos@U_Mbstatet@@@2@_JHH@Z 0000000140014ed0 f i win32_layer.obj
 0001:00013ef0       ?seekpos@?$basic_filebuf@DU?$char_traits@D@std@@@std@@MEAA?AV?$fpos@U_Mbstatet@@@2@V32@H@Z 0000000140014ef0 f i win32_layer.obj
 0001:00013fd0       ?setbuf@?$basic_filebuf@DU?$char_traits@D@std@@@std@@MEAAPEAV?$basic_streambuf@DU?$char_traits@D@std@@@2@PEAD_J@Z 0000000140014fd0 f i win32_layer.obj
 0001:00014030       ?setbuf@?$basic_streambuf@DU?$char_traits@D@std@@@std@@MEAAPEAV12@PEAD_J@Z 0000000140015030 f i win32_layer.obj
 0001:00014040       _get_startup_new_mode      0000000140015040 f i LIBCMTD:new_mode.obj
 0001:00014040       __scrt_stub_for_initialize_mta 0000000140015040 f i LIBCMTD:utility_desktop.obj
 0001:00014040       __scrt_initialize_winrt    0000000140015040 f i LIBCMTD:utility_desktop.obj
 0001:00014040       ?get_invalid_value@__crt_hmodule_traits@@SAPEAUHINSTANCE__@@XZ 0000000140015040 f i libucrtd:exit.obj
 0001:00014040       ?sync@?$basic_streambuf@DU?$char_traits@D@std@@@std@@MEAAHXZ 0000000140015040 f i win32_layer.obj
 0001:00014040       _get_startup_thread_locale_mode 0000000140015040 f i LIBCMTD:thread_locale.obj
 0001:00014040       __scrt_exe_initialize_mta  0000000140015040 f i LIBCMTD:utility_desktop.obj
 0001:00014040       ?showmanyc@?$basic_streambuf@DU?$char_traits@D@std@@@std@@MEAA_JXZ 0000000140015040 f i win32_layer.obj
 0001:00014040       ?get_current_state_index@__crt_state_management@@YA_KXZ 0000000140015040 f i libucrtd:invalid_parameter.obj
 0001:00014040       _get_startup_commit_mode   0000000140015040 f i LIBCMTD:commit_mode.obj
 0001:00014050       ?sync@?$basic_filebuf@DU?$char_traits@D@std@@@std@@MEAAHXZ 0000000140015050 f i win32_layer.obj
 0001:000140a0       ?uflow@?$basic_filebuf@DU?$char_traits@D@std@@@std@@MEAAHXZ 00000001400150a0 f i win32_layer.obj
 0001:00014730       ?uflow@?$basic_streambuf@DU?$char_traits@D@std@@@std@@MEAAHXZ 0000000140015730 f i win32_layer.obj
 0001:00014770       ?underflow@?$basic_filebuf@DU?$char_traits@D@std@@@std@@MEAAHXZ 0000000140015770 f i win32_layer.obj
 0001:000147e0       ?what@exception@std@@UEBAPEBDXZ 00000001400157e0 f i win32_layer.obj
 0001:00014800       ?widen@?$basic_ios@DU?$char_traits@D@std@@@std@@QEBADD@Z 0000000140015800 f i win32_layer.obj
 0001:00014890       ?xsgetn@?$basic_filebuf@DU?$char_traits@D@std@@@std@@MEAA_JPEAD_J@Z 0000000140015890 f i win32_layer.obj
 0001:00014a50       ?xsgetn@?$basic_streambuf@DU?$char_traits@D@std@@@std@@MEAA_JPEAD_J@Z 0000000140015a50 f i win32_layer.obj
 0001:00014b00       ?xsputn@?$basic_filebuf@DU?$char_traits@D@std@@@std@@MEAA_JPEBD_J@Z 0000000140015b00 f i win32_layer.obj
 0001:00014c30       ?xsputn@?$basic_streambuf@DU?$char_traits@D@std@@@std@@MEAA_JPEBD_J@Z 0000000140015c30 f i win32_layer.obj
 0001:00014cf0       WinMain                    0000000140015cf0 f   win32_layer.obj
 0001:00014fb0       __local_stdio_printf_options 0000000140015fb0 f i win32_layer.obj
 0001:00014fc0       sprintf_s                  0000000140015fc0 f i win32_layer.obj
 0001:00015020       ??0_Init_locks@std@@QEAA@XZ 0000000140016020 f   libcpmtd:xlock.obj
 0001:000150b0       ??0_Lockit@std@@QEAA@H@Z   00000001400160b0 f   libcpmtd:xlock.obj
 0001:00015110       ??1_Init_locks@std@@QEAA@XZ 0000000140016110 f   libcpmtd:xlock.obj
 0001:00015190       ??1_Lockit@std@@QEAA@XZ    0000000140016190 f   libcpmtd:xlock.obj
 0001:000151e0       ??0bad_alloc@std@@QEAA@XZ  00000001400161e0 f i libcpmtd:xthrow.obj
 0001:00015220       ??0length_error@std@@QEAA@AEBV01@@Z 0000000140016220 f i libcpmtd:xthrow.obj
 0001:00015260       ??0length_error@std@@QEAA@PEBD@Z 0000000140016260 f i libcpmtd:xthrow.obj
 0001:000152a0       ??0logic_error@std@@QEAA@AEBV01@@Z 00000001400162a0 f i libcpmtd:xthrow.obj
 0001:000152e0       ??0logic_error@std@@QEAA@PEBD@Z 00000001400162e0 f i libcpmtd:xthrow.obj
 0001:00015320       ??0out_of_range@std@@QEAA@AEBV01@@Z 0000000140016320 f i libcpmtd:xthrow.obj
 0001:00015360       ??0out_of_range@std@@QEAA@PEBD@Z 0000000140016360 f i libcpmtd:xthrow.obj
 0001:000153a0       ??0runtime_error@std@@QEAA@PEBD@Z 00000001400163a0 f i libcpmtd:xthrow.obj
 0001:000153e0       ??1out_of_range@std@@UEAA@XZ 00000001400163e0 f i libcpmtd:xthrow.obj
 0001:000153e0       ??1length_error@std@@UEAA@XZ 00000001400163e0 f i libcpmtd:xthrow.obj
 0001:00015400       ??1logic_error@std@@UEAA@XZ 0000000140016400 f i libcpmtd:xthrow.obj
 0001:00015400       ??1bad_exception@std@@UEAA@XZ 0000000140016400 f i libvcruntimed:frame.obj
 0001:00015420       ??_Glength_error@std@@UEAAPEAXI@Z 0000000140016420 f i libcpmtd:xthrow.obj
 0001:00015420       ??_Eout_of_range@std@@UEAAPEAXI@Z 0000000140016420 f i libcpmtd:xthrow.obj
 0001:00015420       ??_Gout_of_range@std@@UEAAPEAXI@Z 0000000140016420 f i libcpmtd:xthrow.obj
 0001:00015420       ??_Elength_error@std@@UEAAPEAXI@Z 0000000140016420 f i libcpmtd:xthrow.obj
 0001:00015460       ??_Glogic_error@std@@UEAAPEAXI@Z 0000000140016460 f i libcpmtd:xthrow.obj
 0001:00015460       ??_Ebad_exception@std@@UEAAPEAXI@Z 0000000140016460 f i libvcruntimed:frame.obj
 0001:00015460       ??_Gbad_exception@std@@UEAAPEAXI@Z 0000000140016460 f i libvcruntimed:frame.obj
 0001:00015460       ??_Elogic_error@std@@UEAAPEAXI@Z 0000000140016460 f i libcpmtd:xthrow.obj
 0001:000154a0       ?_Xbad_alloc@std@@YAXXZ    00000001400164a0 f   libcpmtd:xthrow.obj
 0001:000154a0       ?__scrt_throw_std_bad_alloc@@YAXXZ 00000001400164a0 f   LIBCMTD:throw_bad_alloc.obj
 0001:000154d0       ?_Xlength_error@std@@YAXPEBD@Z 00000001400164d0 f   libcpmtd:xthrow.obj
 0001:00015500       ?_Xout_of_range@std@@YAXPEBD@Z 0000000140016500 f   libcpmtd:xthrow.obj
 0001:00015530       ?_Xruntime_error@std@@YAXPEBD@Z 0000000140016530 f   libcpmtd:xthrow.obj
 0001:00015560       ?uncaught_exception@std@@YA_NXZ 0000000140016560 f   libcpmtd:uncaught_exception.obj
 0001:00015570       ?_Syserror_map@std@@YAPEBDH@Z 0000000140016570 f   libcpmtd:syserror.obj
 0001:000155f0       ??0?$_Yarn@D@std@@QEAA@PEBD@Z 00000001400165f0 f i libcpmtd:locale0.obj
 0001:00015630       ??0_Fac_node@std@@QEAA@PEAU01@PEAV_Facet_base@1@@Z 0000000140016630 f i libcpmtd:locale0.obj
 0001:00015630       ??0iterator@UWMap4@FH4@@QEAA@AEAV12@PEAE@Z 0000000140016630 f i libvcruntimed:frame.obj
 0001:00015630       ??0TryBlockMap@__FrameHandler3@@QEAA@PEBU_s_FuncInfo@@_K@Z 0000000140016630 f i libvcruntimed:frame.obj
 0001:00015660       ??0_Locimp@locale@std@@AEAA@_N@Z 0000000140016660 f i libcpmtd:locale0.obj
 0001:000156f0       ??0locale@std@@AEAA@PEAV_Locimp@01@@Z 00000001400166f0 f i libcpmtd:locale0.obj
 0001:00015710       ??0locale@std@@QEAA@W4_Uninitialized@1@@Z 0000000140016710 f i libcpmtd:locale0.obj
 0001:00015720       ??1_Fac_node@std@@QEAA@XZ  0000000140016720 f i libcpmtd:locale0.obj
 0001:000157b0       ??1_Fac_tidy_reg_t@std@@QEAA@XZ 00000001400167b0 f i libcpmtd:locale0.obj
 0001:00015820       ??1_Locimp@locale@std@@MEAA@XZ 0000000140016820 f i libcpmtd:locale0.obj
 0001:00015870       ??2_Fac_node@std@@SAPEAX_K@Z 0000000140016870 f i libcpmtd:locale0.obj
 0001:000158d0       ??3_Fac_node@std@@SAXPEAX@Z 00000001400168d0 f i libcpmtd:locale0.obj
 0001:000158f0       ??4?$_Yarn@D@std@@QEAAAEAV01@PEBD@Z 00000001400168f0 f i libcpmtd:locale0.obj
 0001:000159c0       ??_G_Fac_node@std@@QEAAPEAXI@Z 00000001400169c0 f i libcpmtd:locale0.obj
 0001:00015a20       ??_E_Locimp@locale@std@@MEAAPEAXI@Z 0000000140016a20 f i libcpmtd:locale0.obj
 0001:00015a20       ??_G_Locimp@locale@std@@MEAAPEAXI@Z 0000000140016a20 f i libcpmtd:locale0.obj
 0001:00015a80       ?_C_str@?$_Yarn@D@std@@QEBAPEBDXZ 0000000140016a80 f i libcpmtd:locale0.obj
 0001:00015ac0       ?_Empty@?$_Yarn@D@std@@QEBA_NXZ 0000000140016ac0 f i libcpmtd:locale0.obj
 0001:00015af0       ?_Facet_Register@std@@YAXPEAV_Facet_base@1@@Z 0000000140016af0 f   libcpmtd:locale0.obj
 0001:00015b60       ?_Getgloballocale@locale@std@@CAPEAV_Locimp@12@XZ 0000000140016b60 f   libcpmtd:locale0.obj
 0001:00015b70       ?_Init@locale@std@@CAPEAV_Locimp@12@_N@Z 0000000140016b70 f   libcpmtd:locale0.obj
 0001:00015c80       ?_Locimp_dtor@_Locimp@locale@std@@CAXPEAV123@@Z 0000000140016c80 f   libcpmtd:locale0.obj
 0001:00015d80       ?_Locinfo_ctor@_Locinfo@std@@SAXPEAV12@PEBD@Z 0000000140016d80 f   libcpmtd:locale0.obj
 0001:00015e30       ?_Locinfo_dtor@_Locinfo@std@@SAXPEAV12@@Z 0000000140016e30 f   libcpmtd:locale0.obj
 0001:00015e80       ?_New_Locimp@_Locimp@locale@std@@CAPEAV123@_N@Z 0000000140016e80 f   libcpmtd:locale0.obj
 0001:00015ee0       ?_Setgloballocale@locale@std@@CAXPEAX@Z 0000000140016ee0 f   libcpmtd:locale0.obj
 0001:00015f20       _Deletegloballocale        0000000140016f20 f   libcpmtd:locale0.obj
 0001:00015ff0       _Getctype                  0000000140016ff0 f   libcpmtd:_tolower.obj
 0001:000160d0       _Tolower                   00000001400170d0 f   libcpmtd:_tolower.obj
 0001:00016370       _Getcvt                    0000000140017370 f   libcpmtd:xwctomb.obj
 0001:000164a0       _Toupper                   00000001400174a0 f   libcpmtd:_toupper.obj
 0001:00016740       ?_Addstd@ios_base@std@@SAXPEAV12@@Z 0000000140017740 f   libcpmtd:ios.obj
 0001:00016810       ?_Callfns@ios_base@std@@AEAAXW4event@12@@Z 0000000140017810 f i libcpmtd:ios.obj
 0001:00016880       ?_Ios_base_dtor@ios_base@std@@CAXPEAV12@@Z 0000000140017880 f   libcpmtd:ios.obj
 0001:00016920       ?_Tidy@ios_base@std@@AEAAXXZ 0000000140017920 f i libcpmtd:ios.obj
 0001:000169e0       ??$_Xfiopen@D@std@@YAPEAU_iobuf@@PEBDHH@Z 00000001400179e0 f i libcpmtd:fiopen.obj
 0001:00016b60       ?_Fiopen@std@@YAPEAU_iobuf@@PEBDHH@Z 0000000140017b60 f   libcpmtd:fiopen.obj
 0001:00016b90       ?_Xfsopen@std@@YAPEAU_iobuf@@PEBDHH@Z 0000000140017b90 f   libcpmtd:fiopen.obj
 0001:00016bd0       ??0?$basic_filebuf@DU?$char_traits@D@std@@@std@@QEAA@QEAU_iobuf@@@Z 0000000140017bd0 f i libcpmtd:cout.obj
 0001:00016c20       ??0_Init_cout@std@@QEAA@XZ 0000000140017c20 f i libcpmtd:cout.obj
 0001:00016d00       ?tie@?$basic_ios@DU?$char_traits@D@std@@@std@@QEAAPEAV?$basic_ostream@DU?$char_traits@D@std@@@2@PEAV32@@Z 0000000140017d00 f i libcpmtd:cout.obj
 0001:00016d40       _Mtxdst                    0000000140017d40 f   libcpmtd:xmtx.obj
 0001:00016d60       _Mtxinit                   0000000140017d60 f   libcpmtd:xmtx.obj
 0001:00016d90       _Mtxlock                   0000000140017d90 f   libcpmtd:xmtx.obj
 0001:00016db0       _Mtxunlock                 0000000140017db0 f   libcpmtd:xmtx.obj
 0001:00016dd0       ??1_Init_atexit@@QEAA@XZ   0000000140017dd0 f i libcpmtd:iosptrs.obj
 0001:00016e40       ?_Atexit@@YAXP6AXXZ@Z      0000000140017e40 f   libcpmtd:iosptrs.obj
 0001:00016ea0       ??0?$string_output_adapter@D@__crt_stdio_output@@QEAA@QEAU?$string_output_adapter_context@D@1@@Z 0000000140017ea0 f i libucrtd:output.obj
 0001:00016ea0       ??0__crt_stdio_stream@@QEAA@QEAU__crt_stdio_stream_data@@@Z 0000000140017ea0 f i libucrtd:fflush.obj
 0001:00016ea0       ??0?$__crt_unique_heap_ptr@U__crt_stdio_stream_data@@U__crt_internal_free_policy@@@@QEAA@QEAU__crt_stdio_stream_data@@@Z 0000000140017ea0 f i libucrtd:stream.obj
 0001:00016ea0       ??0?$__crt_unique_heap_ptr@U__crt_lc_time_data@@U__crt_internal_free_policy@@@@QEAA@QEAU__crt_lc_time_data@@@Z 0000000140017ea0 f i libucrtd:inittime.obj
 0001:00016ea0       ??0?$__crt_scoped_stack_ptr_tag@_W@@QEAA@QEA_W@Z 0000000140017ea0 f i libcpmtd:StlLCMapStringA.obj
 0001:00016ea0       ??0?$__crt_scoped_stack_ptr@_W@@QEAA@U?$__crt_scoped_stack_ptr_tag@_W@@@Z 0000000140017ea0 f i libcpmtd:StlLCMapStringA.obj
 0001:00016ea0       ??0__crt_stdio_stream@@QEAA@QEAU_iobuf@@@Z 0000000140017ea0 f i libucrtd:_file.obj
 0001:00016ea0       ??0?$__crt_unique_heap_ptr@DU__crt_internal_free_policy@@@@QEAA@QEAD@Z 0000000140017ea0 f i libvcruntimed:std_type_info.obj
 0001:00016ea0       ??0?$__crt_unique_heap_ptr@PEADU__crt_internal_free_policy@@@@QEAA@QEAPEAD@Z 0000000140017ea0 f i libucrtd:argv_parsing.obj
 0001:00016ea0       ??0?$string_output_adapter@_W@__crt_stdio_output@@QEAA@QEAU?$string_output_adapter_context@_W@1@@Z 0000000140017ea0 f i libucrtd:output.obj
 0001:00016ea0       ??0?$__crt_unique_heap_ptr@PEAU__crt_stdio_stream_data@@U__crt_internal_free_policy@@@@QEAA@QEAPEAU__crt_stdio_stream_data@@@Z 0000000140017ea0 f i libucrtd:_file.obj
 0001:00016ea0       ??0?$__crt_unique_heap_ptr@_WU__crt_internal_free_policy@@@@QEAA@QEA_W@Z 0000000140017ea0 f i libucrtd:setlocale.obj
 0001:00016ea0       ??0?$__crt_unique_heap_ptr@DU__crt_public_free_policy@@@@QEAA@QEAD@Z 0000000140017ea0 f i libvcruntimed:std_exception.obj
 0001:00016ea0       ??0?$__crt_unique_heap_ptr@EU__crt_internal_free_policy@@@@QEAA@QEAE@Z 0000000140017ea0 f i libcpmtd:xwcsxfrm.obj
 0001:00016ea0       ??0?$__crt_unique_heap_ptr@Ulconv@@U__crt_internal_free_policy@@@@QEAA@QEAUlconv@@@Z 0000000140017ea0 f i libucrtd:initmon.obj
 0001:00016ea0       ??0?$__crt_unique_heap_ptr@P6AXXZU__crt_internal_free_policy@@@@QEAA@QEAP6AXXZ@Z 0000000140017ea0 f i libucrtd:onexit.obj
 0001:00016ea0       ??0?$__crt_unique_heap_ptr@JU__crt_internal_free_policy@@@@QEAA@QEAJ@Z 0000000140017ea0 f i libucrtd:initctype.obj
 0001:00016ea0       ??0?$__crt_unique_heap_ptr@U__crt_multibyte_data@@U__crt_internal_free_policy@@@@QEAA@QEAU__crt_multibyte_data@@@Z 0000000140017ea0 f i libucrtd:wsetlocale.obj
 0001:00016ea0       ??0?$__crt_unique_handle_t@U__crt_findfile_traits@@@@QEAA@QEAX@Z 0000000140017ea0 f i libucrtd:argv_wildcards.obj
 0001:00016ea0       ??0?$__crt_unique_heap_ptr@U__acrt_ptd@@U__crt_internal_free_policy@@@@QEAA@QEAU__acrt_ptd@@@Z 0000000140017ea0 f i libucrtd:per_thread_data.obj
 0001:00016ea0       ??0?$__crt_unique_heap_ptr@GU__crt_internal_free_policy@@@@QEAA@QEAG@Z 0000000140017ea0 f i libucrtd:initctype.obj
 0001:00016ea0       ??0?$__crt_unique_heap_ptr@U__crt_locale_data@@U__crt_internal_free_policy@@@@QEAA@QEAU__crt_locale_data@@@Z 0000000140017ea0 f i libucrtd:wsetlocale.obj
 0001:00016ea0       ??0?$__crt_unique_handle_t@U__crt_hmodule_traits@@@@QEAA@QEAUHINSTANCE__@@@Z 0000000140017ea0 f i libucrtd:exit.obj
 0001:00016ea0       ??0?$__crt_unique_heap_ptr@U__crt_lowio_handle_data@@U__crt_internal_free_policy@@@@QEAA@QEAU__crt_lowio_handle_data@@@Z 0000000140017ea0 f i libucrtd:osfinfo.obj
 0001:00016ea0       ??0?$__crt_unique_heap_ptr@U__vcrt_ptd@@U__crt_internal_free_policy@@@@QEAA@QEAU__vcrt_ptd@@@Z 0000000140017ea0 f i libvcruntimed:per_thread_data.obj
 0001:00016ec0       ??1?$__crt_scoped_stack_ptr@_W@@QEAA@XZ 0000000140017ec0 f i libcpmtd:StlLCMapStringA.obj
 0001:00016ee0       ?is_valid@?$__crt_unique_heap_ptr@EU__crt_internal_free_policy@@@@QEBA_NXZ 0000000140017ee0 f i libcpmtd:xwcsxfrm.obj
 0001:00016ee0       ?is_valid@?$__crt_unique_heap_ptr@DU__crt_internal_free_policy@@@@QEBA_NXZ 0000000140017ee0 f i libvcruntimed:std_type_info.obj
 0001:00016ee0       ?is_valid@?$__crt_unique_heap_ptr@U__acrt_ptd@@U__crt_internal_free_policy@@@@QEBA_NXZ 0000000140017ee0 f i libucrtd:per_thread_data.obj
 0001:00016ee0       ??B?$__crt_scoped_stack_ptr@_W@@QEBA_NXZ 0000000140017ee0 f i libcpmtd:StlLCMapStringA.obj
 0001:00016ee0       ?valid@__crt_stdio_stream@@QEBA_NXZ 0000000140017ee0 f i libucrtd:fclose.obj
 0001:00016ee0       ?is_valid@?$__crt_unique_heap_ptr@U__crt_lowio_handle_data@@U__crt_internal_free_policy@@@@QEBA_NXZ 0000000140017ee0 f i libucrtd:osfinfo.obj
 0001:00016ee0       ?is_valid@?$__crt_unique_heap_ptr@U__vcrt_ptd@@U__crt_internal_free_policy@@@@QEBA_NXZ 0000000140017ee0 f i libvcruntimed:per_thread_data.obj
 0001:00016ee0       ?is_valid@?$__crt_unique_heap_ptr@DU__crt_public_free_policy@@@@QEBA_NXZ 0000000140017ee0 f i libvcruntimed:std_exception.obj
 0001:00016ee0       ?is_valid@?$__crt_unique_heap_ptr@U__crt_multibyte_data@@U__crt_internal_free_policy@@@@QEBA_NXZ 0000000140017ee0 f i libucrtd:wsetlocale.obj
 0001:00016ee0       ?is_valid@?$__crt_unique_heap_ptr@U__crt_lc_time_data@@U__crt_internal_free_policy@@@@QEBA_NXZ 0000000140017ee0 f i libucrtd:inittime.obj
 0001:00016f10       ?get@?$__crt_unique_heap_ptr@U__crt_multibyte_data@@U__crt_internal_free_policy@@@@QEBAPEAU__crt_multibyte_data@@XZ 0000000140017f10 f i libucrtd:wsetlocale.obj
 0001:00016f10       ?get@?$__crt_unique_heap_ptr@U__crt_lowio_handle_data@@U__crt_internal_free_policy@@@@QEBAPEAU__crt_lowio_handle_data@@XZ 0000000140017f10 f i libucrtd:osfinfo.obj
 0001:00016f10       ??C__crt_stdio_stream@@QEBAPEAU__crt_stdio_stream_data@@XZ 0000000140017f10 f i libucrtd:_file.obj
 0001:00016f10       ?save_state@?$c_string_character_source@D@__crt_strtox@@QEBAPEBDXZ 0000000140017f10 f i libucrtd:strtod.obj
 0001:00016f10       ?get@?$__crt_unique_heap_ptr@DU__crt_public_free_policy@@@@QEBAPEADXZ 0000000140017f10 f i libvcruntimed:std_exception.obj
 0001:00016f10       ?save_state@?$c_string_character_source@_W@__crt_strtox@@QEBAPEB_WXZ 0000000140017f10 f i libucrtd:strtod.obj
 0001:00016f10       ?get@?$__crt_unique_heap_ptr@PEADU__crt_internal_free_policy@@@@QEBAPEAPEADXZ 0000000140017f10 f i libucrtd:argv_parsing.obj
 0001:00016f10       ?get@?$__crt_unique_heap_ptr@EU__crt_internal_free_policy@@@@QEBAPEAEXZ 0000000140017f10 f i libcpmtd:xwcsxfrm.obj
 0001:00016f10       ?get@?$__crt_unique_heap_ptr@DU__crt_internal_free_policy@@@@QEBAPEADXZ 0000000140017f10 f i libvcruntimed:std_type_info.obj
 0001:00016f10       ?get@?$__crt_unique_heap_ptr@U__vcrt_ptd@@U__crt_internal_free_policy@@@@QEBAPEAU__vcrt_ptd@@XZ 0000000140017f10 f i libvcruntimed:per_thread_data.obj
 0001:00016f10       ?get@?$__crt_unique_handle_t@U__crt_findfile_traits@@@@QEBAPEAXXZ 0000000140017f10 f i libucrtd:argv_wildcards.obj
 0001:00016f10       ?get@?$__crt_unique_handle_t@U__crt_hmodule_traits@@@@QEBAPEAUHINSTANCE__@@XZ 0000000140017f10 f i libucrtd:exit.obj
 0001:00016f10       ?public_stream@__crt_stdio_stream@@QEBAPEAU_iobuf@@XZ 0000000140017f10 f i libucrtd:fclose.obj
 0001:00016f10       ?get@?$__crt_unique_heap_ptr@_WU__crt_internal_free_policy@@@@QEBAPEA_WXZ 0000000140017f10 f i libucrtd:setlocale.obj
 0001:00016f10       ?get@?$__crt_scoped_stack_ptr@_W@@QEBAPEA_WXZ 0000000140017f10 f i libcpmtd:StlLCMapStringA.obj
 0001:00016f10       ?get@?$__crt_unique_heap_ptr@U__acrt_ptd@@U__crt_internal_free_policy@@@@QEBAPEAU__acrt_ptd@@XZ 0000000140017f10 f i libucrtd:per_thread_data.obj
 0001:00016f10       ?get@?$__crt_unique_heap_ptr@U__crt_lc_time_data@@U__crt_internal_free_policy@@@@QEBAPEAU__crt_lc_time_data@@XZ 0000000140017f10 f i libucrtd:inittime.obj
 0001:00016f20       _MallocaComputeSize        0000000140017f20 f i libcpmtd:StlLCMapStringA.obj
 0001:00016f60       _MarkAllocaS               0000000140017f60 f i libcpmtd:StlLCMapStringA.obj
 0001:00016f90       __crtLCMapStringA          0000000140017f90 f   libcpmtd:StlLCMapStringA.obj
 0001:00017500       _freea_crt                 0000000140018500 f i libcpmtd:StlLCMapStringA.obj
 0001:000175a0       ??$?RU__acrt_ptd@@@__crt_internal_free_policy@@QEBAXQEBU__acrt_ptd@@@Z 00000001400185a0 f i libucrtd:per_thread_data.obj
 0001:000175a0       ??$?RU__crt_lc_time_data@@@__crt_internal_free_policy@@QEBAXQEBU__crt_lc_time_data@@@Z 00000001400185a0 f i libucrtd:inittime.obj
 0001:000175a0       ??$?RPEAU__crt_stdio_stream_data@@@__crt_internal_free_policy@@QEBAXQEBQEAU__crt_stdio_stream_data@@@Z 00000001400185a0 f i libucrtd:_file.obj
 0001:000175a0       ??$?RU__crt_multibyte_data@@@__crt_internal_free_policy@@QEBAXQEBU__crt_multibyte_data@@@Z 00000001400185a0 f i libucrtd:wsetlocale.obj
 0001:000175a0       ??$?RE@__crt_internal_free_policy@@QEBAXQEBE@Z 00000001400185a0 f i libcpmtd:xwcsxfrm.obj
 0001:000175a0       ??$?RU__crt_stdio_stream_data@@@__crt_internal_free_policy@@QEBAXQEBU__crt_stdio_stream_data@@@Z 00000001400185a0 f i libucrtd:stream.obj
 0001:000175a0       ??$?RD@__crt_internal_free_policy@@QEBAXQEBD@Z 00000001400185a0 f i libvcruntimed:std_type_info.obj
 0001:000175a0       ??$?RJ@__crt_internal_free_policy@@QEBAXQEBJ@Z 00000001400185a0 f i libucrtd:initctype.obj
 0001:000175a0       ??$?RP6AXXZ@__crt_internal_free_policy@@QEBAXQEBQ6AXXZ@Z 00000001400185a0 f i libucrtd:onexit.obj
 0001:000175a0       ??$?RU__crt_locale_data@@@__crt_internal_free_policy@@QEBAXQEBU__crt_locale_data@@@Z 00000001400185a0 f i libucrtd:wsetlocale.obj
 0001:000175a0       ??$?RG@__crt_internal_free_policy@@QEBAXQEBG@Z 00000001400185a0 f i libucrtd:initctype.obj
 0001:000175a0       ??$?RU__crt_lowio_handle_data@@@__crt_internal_free_policy@@QEBAXQEBU__crt_lowio_handle_data@@@Z 00000001400185a0 f i libucrtd:osfinfo.obj
 0001:000175a0       ??$?RPEAD@__crt_internal_free_policy@@QEBAXQEBQEAD@Z 00000001400185a0 f i libucrtd:argv_parsing.obj
 0001:000175a0       ??$?RUlconv@@@__crt_internal_free_policy@@QEBAXQEBUlconv@@@Z 00000001400185a0 f i libucrtd:initmon.obj
 0001:000175a0       ??$?RU__vcrt_ptd@@@__crt_internal_free_policy@@QEBAXQEBU__vcrt_ptd@@@Z 00000001400185a0 f i libvcruntimed:per_thread_data.obj
 0001:000175a0       ??$?R_W@__crt_internal_free_policy@@QEBAXQEB_W@Z 00000001400185a0 f i libucrtd:setlocale.obj
 0001:000175d0       ??1?$__crt_unique_heap_ptr@JU__crt_internal_free_policy@@@@QEAA@XZ 00000001400185d0 f i libucrtd:initctype.obj
 0001:000175d0       ??1?$__crt_unique_heap_ptr@U__crt_lc_time_data@@U__crt_internal_free_policy@@@@QEAA@XZ 00000001400185d0 f i libucrtd:inittime.obj
 0001:000175d0       ??1?$__crt_unique_heap_ptr@P6AXXZU__crt_internal_free_policy@@@@QEAA@XZ 00000001400185d0 f i libucrtd:onexit.obj
 0001:000175d0       ??1?$__crt_unique_heap_ptr@_WU__crt_internal_free_policy@@@@QEAA@XZ 00000001400185d0 f i libucrtd:setlocale.obj
 0001:000175d0       ??1?$__crt_unique_heap_ptr@Ulconv@@U__crt_internal_free_policy@@@@QEAA@XZ 00000001400185d0 f i libucrtd:initmon.obj
 0001:000175d0       ??1?$__crt_unique_heap_ptr@U__crt_lowio_handle_data@@U__crt_internal_free_policy@@@@QEAA@XZ 00000001400185d0 f i libucrtd:osfinfo.obj
 0001:000175d0       ??1?$__crt_unique_heap_ptr@U__crt_stdio_stream_data@@U__crt_internal_free_policy@@@@QEAA@XZ 00000001400185d0 f i libucrtd:stream.obj
 0001:000175d0       ??1?$__crt_unique_heap_ptr@PEADU__crt_internal_free_policy@@@@QEAA@XZ 00000001400185d0 f i libucrtd:argv_parsing.obj
 0001:000175d0       ??1?$__crt_unique_heap_ptr@U__crt_locale_data@@U__crt_internal_free_policy@@@@QEAA@XZ 00000001400185d0 f i libucrtd:wsetlocale.obj
 0001:000175d0       ??1?$__crt_unique_heap_ptr@GU__crt_internal_free_policy@@@@QEAA@XZ 00000001400185d0 f i libucrtd:initctype.obj
 0001:000175d0       ??1?$__crt_unique_heap_ptr@EU__crt_internal_free_policy@@@@QEAA@XZ 00000001400185d0 f i libcpmtd:xwcsxfrm.obj
 0001:000175d0       ??1?$__crt_unique_heap_ptr@PEAU__crt_stdio_stream_data@@U__crt_internal_free_policy@@@@QEAA@XZ 00000001400185d0 f i libucrtd:_file.obj
 0001:000175d0       ??1?$__crt_unique_heap_ptr@U__vcrt_ptd@@U__crt_internal_free_policy@@@@QEAA@XZ 00000001400185d0 f i libvcruntimed:per_thread_data.obj
 0001:000175d0       ??1?$__crt_unique_heap_ptr@DU__crt_internal_free_policy@@@@QEAA@XZ 00000001400185d0 f i libvcruntimed:std_type_info.obj
 0001:000175d0       ??1?$__crt_unique_heap_ptr@U__crt_multibyte_data@@U__crt_internal_free_policy@@@@QEAA@XZ 00000001400185d0 f i libucrtd:wsetlocale.obj
 0001:000175d0       ??1?$__crt_unique_heap_ptr@U__acrt_ptd@@U__crt_internal_free_policy@@@@QEAA@XZ 00000001400185d0 f i libucrtd:per_thread_data.obj
 0001:000175f0       ??B?$__crt_unique_heap_ptr@U__vcrt_ptd@@U__crt_internal_free_policy@@@@QEBA_NXZ 00000001400185f0 f i libvcruntimed:per_thread_data.obj
 0001:000175f0       ??B?$__crt_unique_heap_ptr@DU__crt_internal_free_policy@@@@QEBA_NXZ 00000001400185f0 f i libvcruntimed:std_type_info.obj
 0001:000175f0       ??B?$__crt_unique_heap_ptr@U__crt_lc_time_data@@U__crt_internal_free_policy@@@@QEBA_NXZ 00000001400185f0 f i libucrtd:inittime.obj
 0001:000175f0       ??B?$__crt_unique_heap_ptr@U__acrt_ptd@@U__crt_internal_free_policy@@@@QEBA_NXZ 00000001400185f0 f i libucrtd:per_thread_data.obj
 0001:000175f0       ??B?$__crt_unique_heap_ptr@U__crt_multibyte_data@@U__crt_internal_free_policy@@@@QEBA_NXZ 00000001400185f0 f i libucrtd:wsetlocale.obj
 0001:000175f0       ??B?$__crt_unique_heap_ptr@U__crt_lowio_handle_data@@U__crt_internal_free_policy@@@@QEBA_NXZ 00000001400185f0 f i libucrtd:osfinfo.obj
 0001:000175f0       ??B?$__crt_unique_heap_ptr@DU__crt_public_free_policy@@@@QEBA_NXZ 00000001400185f0 f i libvcruntimed:std_exception.obj
 0001:000175f0       ??B?$__crt_unique_heap_ptr@EU__crt_internal_free_policy@@@@QEBA_NXZ 00000001400185f0 f i libcpmtd:xwcsxfrm.obj
 0001:00017610       ?release@?$__crt_unique_heap_ptr@JU__crt_internal_free_policy@@@@QEAAXXZ 0000000140018610 f i libucrtd:initctype.obj
 0001:00017610       ?release@?$__crt_unique_heap_ptr@_WU__crt_internal_free_policy@@@@QEAAXXZ 0000000140018610 f i libucrtd:setlocale.obj
 0001:00017610       ?release@?$__crt_unique_heap_ptr@DU__crt_internal_free_policy@@@@QEAAXXZ 0000000140018610 f i libvcruntimed:std_type_info.obj
 0001:00017610       ?release@?$__crt_unique_heap_ptr@P6AXXZU__crt_internal_free_policy@@@@QEAAXXZ 0000000140018610 f i libucrtd:onexit.obj
 0001:00017610       ?release@?$__crt_unique_heap_ptr@U__crt_stdio_stream_data@@U__crt_internal_free_policy@@@@QEAAXXZ 0000000140018610 f i libucrtd:stream.obj
 0001:00017610       ?release@?$__crt_unique_heap_ptr@GU__crt_internal_free_policy@@@@QEAAXXZ 0000000140018610 f i libucrtd:initctype.obj
 0001:00017610       ?release@?$__crt_unique_heap_ptr@PEAU__crt_stdio_stream_data@@U__crt_internal_free_policy@@@@QEAAXXZ 0000000140018610 f i libucrtd:_file.obj
 0001:00017610       ?release@?$__crt_unique_heap_ptr@Ulconv@@U__crt_internal_free_policy@@@@QEAAXXZ 0000000140018610 f i libucrtd:initmon.obj
 0001:00017610       ?release@?$__crt_unique_heap_ptr@EU__crt_internal_free_policy@@@@QEAAXXZ 0000000140018610 f i libcpmtd:xwcsxfrm.obj
 0001:00017610       ?release@?$__crt_unique_heap_ptr@U__crt_lowio_handle_data@@U__crt_internal_free_policy@@@@QEAAXXZ 0000000140018610 f i libucrtd:osfinfo.obj
 0001:00017610       ?release@?$__crt_unique_heap_ptr@U__crt_multibyte_data@@U__crt_internal_free_policy@@@@QEAAXXZ 0000000140018610 f i libucrtd:wsetlocale.obj
 0001:00017610       ?release@?$__crt_unique_heap_ptr@U__vcrt_ptd@@U__crt_internal_free_policy@@@@QEAAXXZ 0000000140018610 f i libvcruntimed:per_thread_data.obj
 0001:00017610       ?release@?$__crt_unique_heap_ptr@U__crt_locale_data@@U__crt_internal_free_policy@@@@QEAAXXZ 0000000140018610 f i libucrtd:wsetlocale.obj
 0001:00017610       ?release@?$__crt_unique_heap_ptr@PEADU__crt_internal_free_policy@@@@QEAAXXZ 0000000140018610 f i libucrtd:argv_parsing.obj
 0001:00017610       ?release@?$__crt_unique_heap_ptr@U__crt_lc_time_data@@U__crt_internal_free_policy@@@@QEAAXXZ 0000000140018610 f i libucrtd:inittime.obj
 0001:00017610       ?release@?$__crt_unique_heap_ptr@U__acrt_ptd@@U__crt_internal_free_policy@@@@QEAAXXZ 0000000140018610 f i libucrtd:per_thread_data.obj
 0001:00017640       ??2@YAPEAX_K@Z             0000000140018640 f   LIBCMTD:new_scalar.obj
 0001:00017690       ??3@YAXPEAX_K@Z            0000000140018690 f   LIBCMTD:delete_scalar_size.obj
 0001:000176b0       ??_V@YAXPEAX@Z             00000001400186b0 f   LIBCMTD:delete_array.obj
 0001:000176d0       __GSHandlerCheck           00000001400186d0 f   LIBCMTD:gshandler.obj
 0001:00017710       __GSHandlerCheckCommon     0000000140018710 f   LIBCMTD:gshandler.obj
 0001:00017810       __GSHandlerCheck_EH4       0000000140018810 f   LIBCMTD:gshandlereh4.obj
 0001:000178d0       __chkstk                   00000001400188d0 f   LIBCMTD:chkstk.obj
 0001:000178d0       _alloca_probe              00000001400188d0 f   LIBCMTD:chkstk.obj
 0001:00017930       __security_check_cookie    0000000140018930 f   LIBCMTD:amdsecgs.obj
 0001:00017950       ??1type_info@@UEAA@XZ      0000000140018950 f   LIBCMTD:std_type_info_static.obj
 0001:00017970       ??_Etype_info@@UEAAPEAXI@Z 0000000140018970 f i LIBCMTD:std_type_info_static.obj
 0001:00017970       ??_Gtype_info@@UEAAPEAXI@Z 0000000140018970 f i LIBCMTD:std_type_info_static.obj
 0001:00017c60       ?configure_argv@__scrt_narrow_argv_policy@@SAHXZ 0000000140018c60 f i LIBCMTD:exe_winmain.obj
 0001:00017c80       ?initialize_environment@__scrt_narrow_environment_policy@@SAHXZ 0000000140018c80 f i LIBCMTD:exe_winmain.obj
 0001:00017cd0       ?set_app_type@__scrt_winmain_policy@@SAXXZ 0000000140018cd0 f i LIBCMTD:exe_winmain.obj
 0001:00017cf0       ?set_commode@__scrt_file_policy@@SAXXZ 0000000140018cf0 f i LIBCMTD:exe_winmain.obj
 0001:00017d10       ?set_fmode@__scrt_file_policy@@SAXXZ 0000000140018d10 f i LIBCMTD:exe_winmain.obj
 0001:00017d30       WinMainCRTStartup          0000000140018d30 f   LIBCMTD:exe_winmain.obj
 0001:00017eb0       NtCurrentTeb               0000000140018eb0 f i LIBCMTD:utility.obj
 0001:00017ec0       __scrt_acquire_startup_lock 0000000140018ec0 f   LIBCMTD:utility.obj
 0001:00017f30       __scrt_initialize_crt      0000000140018f30 f   LIBCMTD:utility.obj
 0001:00017f80       __scrt_initialize_onexit_tables 0000000140018f80 f   LIBCMTD:utility.obj
 0001:00018090       __scrt_is_nonwritable_in_current_image 0000000140019090 f   LIBCMTD:utility.obj
 0001:00018120       __scrt_release_startup_lock 0000000140019120 f   LIBCMTD:utility.obj
 0001:00018150       __scrt_uninitialize_crt    0000000140019150 f   LIBCMTD:utility.obj
 0001:00018190       _onexit                    0000000140019190 f   LIBCMTD:utility.obj
 0001:00018210       atexit                     0000000140019210 f   LIBCMTD:utility.obj
 0001:00018250       _guard_check_icall_nop     0000000140019250 f i LIBCMTD:guard_support.obj
 0001:00018250       ??1scoped_global_state_reset@__crt_state_management@@QEAA@XZ 0000000140019250 f i libucrtd:onexit.obj
 0001:00018250       ??1?$__crt_simd_cleanup_guard@$0A@@@QEAA@XZ 0000000140019250 f i libucrtd:strnlen.obj
 0001:00018260       ReadNoFence64              0000000140019260 f i LIBCMTD:guard_support.obj
 0001:00018280       ReadPointerNoFence         0000000140019280 f i LIBCMTD:guard_support.obj
 0001:000182a0       _guard_icall_checks_enforced 00000001400192a0 f i LIBCMTD:guard_support.obj
 0001:000182e0       __raise_securityfailure    00000001400192e0 f   LIBCMTD:gs_report.obj
 0001:00018320       __report_gsfailure         0000000140019320 f   LIBCMTD:gs_report.obj
 0001:00018400       __report_rangecheckfailure 0000000140019400 f   LIBCMTD:gs_report.obj
 0001:00018420       __report_securityfailure   0000000140019420 f   LIBCMTD:gs_report.obj
 0001:00018620       ??3@YAXPEAX@Z              0000000140019620 f   LIBCMTD:delete_scalar.obj
 0001:00018640       ?__scrt_throw_std_bad_array_new_length@@YAXXZ 0000000140019640 f   LIBCMTD:throw_bad_alloc.obj
 0001:00018730       __security_init_cookie     0000000140019730 f   LIBCMTD:gs_support.obj
 0001:000187b0       ?get_current_state_index@__crt_state_management@@YA_KAEBV__crt_scoped_get_last_error_reset@@@Z 00000001400197b0 f   libucrtd:per_thread_data.obj
 0001:000187b0       ?getESTypes@__FrameHandler4@@SAPEBU_s_ESTypeList@@PEAUFuncInfo4@FH4@@@Z 00000001400197b0 f   libvcruntimed:frame.obj
 0001:000187b0       _matherr                   00000001400197b0 f   LIBCMTD:matherr.obj
 0001:000187c0       _get_startup_file_mode     00000001400197c0 f   LIBCMTD:file_mode.obj
 0001:000187d0       ?__scrt_initialize_type_info@@YAXXZ 00000001400197d0 f   LIBCMTD:tncleanup.obj
 0001:000187f0       __local_stdio_scanf_options 00000001400197f0 f i LIBCMTD:default_local_stdio_options.obj
 0001:00018800       __scrt_initialize_default_local_stdio_options 0000000140019800 f   LIBCMTD:default_local_stdio_options.obj
 0001:00018850       __scrt_is_user_matherr_present 0000000140019850 f   LIBCMTD:matherr_detection.obj
 0001:00018880       __scrt_get_dyn_tls_init_callback 0000000140019880 f   LIBCMTD:dyn_tls_init.obj
 0001:00018890       __scrt_get_dyn_tls_dtor_callback 0000000140019890 f   LIBCMTD:dyn_tls_dtor.obj
 0001:000188a0       __crt_debugger_hook        00000001400198a0 f   LIBCMTD:utility_desktop.obj
 0001:000188b0       __scrt_fastfail            00000001400198b0 f   LIBCMTD:utility_desktop.obj
 0001:00018a50       __scrt_get_show_window_mode 0000000140019a50 f   LIBCMTD:utility_desktop.obj
 0001:00018ab0       __scrt_initialize_mta      0000000140019ab0 f   LIBCMTD:utility_desktop.obj
 0001:00018ac0       __scrt_is_managed_app      0000000140019ac0 f   LIBCMTD:utility_desktop.obj
 0001:00018b70       __scrt_set_unhandled_exception_filter 0000000140019b70 f   LIBCMTD:utility_desktop.obj
 0001:00018b90       __scrt_unhandled_exception_filter 0000000140019b90 f   LIBCMTD:utility_desktop.obj
 0001:00018c30       _RTC_Initialize            0000000140019c30 f   LIBCMTD:initsect.obj
 0001:00018c80       _RTC_Terminate             0000000140019c80 f   LIBCMTD:initsect.obj
 0001:00018cd0       __isa_available_init       0000000140019cd0 f   LIBCMTD:cpu_disp.obj
 0001:00019070       __scrt_is_ucrt_dll_in_use  000000014001a070 f   LIBCMTD:ucrt_detection.obj
 0001:000190a0       ??$__crt_interlocked_read_pointer@$$A6AXXZ@@YAP6AXXZPEDS6AXXZ@Z 000000014001a0a0 f i libvcruntimed:purevirt.obj
 0001:000190a0       ??$__crt_interlocked_read_pointer@X@@YAPEAXPEDSEAX@Z 000000014001a0a0 f i libvcruntimed:winapi_downlevel.obj
 0001:000190a0       ??$__crt_interlocked_read_pointer@UHINSTANCE__@@@@YAPEAUHINSTANCE__@@PEDSEAU0@@Z 000000014001a0a0 f i libvcruntimed:winapi_downlevel.obj
 0001:000190c0       ?__crt_interlocked_read_64@@YA_JPED_J@Z 000000014001a0c0 f i libvcruntimed:purevirt.obj
 0001:000190e0       _get_purecall_handler      000000014001a0e0 f   libvcruntimed:purevirt.obj
 0001:00019100       _purecall                  000000014001a100 f   libvcruntimed:purevirt.obj
 0001:00019140       ??$?RD@__crt_public_free_policy@@QEBAXQEBD@Z 000000014001a140 f i libvcruntimed:std_exception.obj
 0001:00019160       ??1?$__crt_unique_heap_ptr@DU__crt_public_free_policy@@@@QEAA@XZ 000000014001a160 f i libvcruntimed:std_exception.obj
 0001:00019180       ?detach@?$__crt_unique_heap_ptr@Ulconv@@U__crt_internal_free_policy@@@@QEAAPEAUlconv@@XZ 000000014001a180 f i libucrtd:initmon.obj
 0001:00019180       ?detach@?$__crt_unique_heap_ptr@U__crt_locale_data@@U__crt_internal_free_policy@@@@QEAAPEAU__crt_locale_data@@XZ 000000014001a180 f i libucrtd:wsetlocale.obj
 0001:00019180       ?detach@?$__crt_unique_heap_ptr@DU__crt_internal_free_policy@@@@QEAAPEADXZ 000000014001a180 f i libucrtd:setvbuf.obj
 0001:00019180       ?detach@?$__crt_unique_heap_ptr@GU__crt_internal_free_policy@@@@QEAAPEAGXZ 000000014001a180 f i libucrtd:initctype.obj
 0001:00019180       ?detach@?$__crt_unique_heap_ptr@U__crt_lowio_handle_data@@U__crt_internal_free_policy@@@@QEAAPEAU__crt_lowio_handle_data@@XZ 000000014001a180 f i libucrtd:osfinfo.obj
 0001:00019180       ?detach@?$__crt_unique_heap_ptr@U__crt_multibyte_data@@U__crt_internal_free_policy@@@@QEAAPEAU__crt_multibyte_data@@XZ 000000014001a180 f i libucrtd:wsetlocale.obj
 0001:00019180       ?detach@?$__crt_unique_heap_ptr@PEAU__crt_stdio_stream_data@@U__crt_internal_free_policy@@@@QEAAPEAPEAU__crt_stdio_stream_data@@XZ 000000014001a180 f i libucrtd:_file.obj
 0001:00019180       ?detach@?$__crt_unique_heap_ptr@_WU__crt_internal_free_policy@@@@QEAAPEA_WXZ 000000014001a180 f i libucrtd:wcsftime.obj
 0001:00019180       ?detach@?$__crt_unique_heap_ptr@U__vcrt_ptd@@U__crt_internal_free_policy@@@@QEAAPEAU__vcrt_ptd@@XZ 000000014001a180 f i libvcruntimed:per_thread_data.obj
 0001:00019180       ?detach@?$__crt_unique_heap_ptr@P6AXXZU__crt_internal_free_policy@@@@QEAAPEAP6AXXZXZ 000000014001a180 f i libucrtd:onexit.obj
 0001:00019180       ?detach@?$__crt_unique_heap_ptr@EU__crt_internal_free_policy@@@@QEAAPEAEXZ 000000014001a180 f i libucrtd:initctype.obj
 0001:00019180       ?detach@?$__crt_unique_heap_ptr@U__crt_lc_time_data@@U__crt_internal_free_policy@@@@QEAAPEAU__crt_lc_time_data@@XZ 000000014001a180 f i libucrtd:inittime.obj
 0001:00019180       ?detach@?$__crt_unique_heap_ptr@JU__crt_internal_free_policy@@@@QEAAPEAJXZ 000000014001a180 f i libucrtd:initctype.obj
 0001:00019180       ?detach@?$__crt_unique_heap_ptr@PEADU__crt_internal_free_policy@@@@QEAAPEAPEADXZ 000000014001a180 f i libucrtd:argv_parsing.obj
 0001:00019180       ?detach@?$__crt_unique_heap_ptr@DU__crt_public_free_policy@@@@QEAAPEADXZ 000000014001a180 f i libvcruntimed:std_exception.obj
 0001:00019180       ?detach@?$__crt_unique_heap_ptr@U__crt_stdio_stream_data@@U__crt_internal_free_policy@@@@QEAAPEAU__crt_stdio_stream_data@@XZ 000000014001a180 f i libucrtd:stream.obj
 0001:00019180       ?detach@?$__crt_unique_heap_ptr@U__acrt_ptd@@U__crt_internal_free_policy@@@@QEAAPEAU__acrt_ptd@@XZ 000000014001a180 f i libucrtd:per_thread_data.obj
 0001:000191b0       ?release@?$__crt_unique_heap_ptr@DU__crt_public_free_policy@@@@QEAAXXZ 000000014001a1b0 f i libvcruntimed:std_exception.obj
 0001:000191e0       __std_exception_copy       000000014001a1e0 f   libvcruntimed:std_exception.obj
 0001:00019320       __std_exception_destroy    000000014001a320 f   libvcruntimed:std_exception.obj
 0001:00019360       _CxxThrowException         000000014001a360 f   libvcruntimed:throw.obj
 0001:00019490       ??$?0AEAViterator@TryBlockMap@__FrameHandler3@@AEAV012@$0A@@?$pair@Viterator@TryBlockMap@__FrameHandler3@@V123@@std@@QEAA@AEAViterator@TryBlockMap@__FrameHandler3@@0@Z 000000014001a490 f i libvcruntimed:risctrnsctrl.obj
 0001:00019490       ??$?0AEAViterator@TryBlockMap4@FH4@@AEAV012@$0A@@?$pair@Viterator@TryBlockMap4@FH4@@V123@@std@@QEAA@AEAViterator@TryBlockMap4@FH4@@0@Z 000000014001a490 f i libvcruntimed:risctrnsctrl.obj
 0001:00019660       ??$_CallSETranslator@V__FrameHandler3@@@@YAHPEAUEHExceptionRecord@@PEA_KPEAU_CONTEXT@@PEAU_xDISPATCHER_CONTEXT@@PEBU_s_FuncInfo@@K1H@Z 000000014001a660 f i libvcruntimed:risctrnsctrl.obj
 0001:000196f0       ??$_CallSETranslator@V__FrameHandler4@@@@YAHPEAUEHExceptionRecord@@PEA_KPEAU_CONTEXT@@PEAU_xDISPATCHER_CONTEXT@@PEAUFuncInfo4@FH4@@K1H@Z 000000014001a6f0 f i libvcruntimed:risctrnsctrl.obj
 0001:00019780       ?dangerous_get_state_array@?$dual_state_global@PEAPEA_W@__crt_state_management@@QEAAPEAPEAPEA_WXZ 000000014001a780 f i libucrtd:timeset.obj
 0001:00019780       ??$forward@AEAViterator@TryBlockMap@__FrameHandler3@@@std@@YAAEAViterator@TryBlockMap@__FrameHandler3@@AEAV123@@Z 000000014001a780 f i libvcruntimed:risctrnsctrl.obj
 0001:00019780       ??$forward@AEAViterator@TryBlockMap4@FH4@@@std@@YAAEAViterator@TryBlockMap4@FH4@@AEAV123@@Z 000000014001a780 f i libvcruntimed:risctrnsctrl.obj
 0001:00019780       ?dangerous_get_state_array@?$dual_state_global@P6AXPEB_W00I_K@Z@__crt_state_management@@QEAAPEAP6AXPEB_W00I_K@ZXZ 000000014001a780 f i libucrtd:invalid_parameter.obj
 0001:00019780       ?dangerous_get_state_array@?$dual_state_global@PEAPEAD@__crt_state_management@@QEAAPEAPEAPEADXZ 000000014001a780 f i libucrtd:timeset.obj
 0001:00019780       ?get_address_of@?$__crt_unique_heap_ptr@PEADU__crt_internal_free_policy@@@@QEAAPEAPEAPEADXZ 000000014001a780 f i libucrtd:argv_parsing.obj
 0001:00019780       ?debug_info@?$__crt_win32_buffer@DU__crt_win32_buffer_no_resizing@@@@QEBAAEBV__crt_win32_buffer_empty_debug_info@@XZ 000000014001a780 f i libucrtd:strftime.obj
 0001:00019780       ?debug_info@?$__crt_win32_buffer@_WU__crt_win32_buffer_internal_dynamic_resizing@@@@QEBAAEBV__crt_win32_buffer_empty_debug_info@@XZ 000000014001a780 f i libucrtd:strftime.obj
 0001:00019780       ?dangerous_get_state_array@?$dual_state_global@PEAU__crt_locale_data@@@__crt_state_management@@QEAAPEAPEAU__crt_locale_data@@XZ 000000014001a780 f i libucrtd:per_thread_data.obj
 0001:00019780       ?dangerous_get_state_array@?$dual_state_global@PEAU__crt_multibyte_data@@@__crt_state_management@@QEAAPEAPEAU__crt_multibyte_data@@XZ 000000014001a780 f i libucrtd:mbctype.obj
 0001:00019780       ?dangerous_get_state_array@?$dual_state_global@H@__crt_state_management@@QEAAPEAHXZ 000000014001a780 f i libucrtd:txtmode.obj
 0001:00019780       ?dangerous_get_state_array@?$dual_state_global@PEAE@__crt_state_management@@QEAAPEAPEAEXZ 000000014001a780 f i libucrtd:mbctype.obj
 0001:00019780       ?get_address_of@?$__crt_unique_handle_t@U__crt_hmodule_traits@@@@QEAAPEAPEAUHINSTANCE__@@XZ 000000014001a780 f i libucrtd:exit.obj
 0001:00019780       ?debug_info@?$__crt_win32_buffer@DU__crt_win32_buffer_internal_dynamic_resizing@@@@QEBAAEBV__crt_win32_buffer_empty_debug_info@@XZ 000000014001a780 f i libucrtd:argv_wildcards.obj
 0001:00019790       ??0FuncInfo4@FH4@@QEAA@XZ  000000014001a790 f i libvcruntimed:risctrnsctrl.obj
 0001:00019800       ??0FuncInfoHeader@FH4@@QEAA@XZ 000000014001a800 f i libvcruntimed:risctrnsctrl.obj
 0001:00019820       ??0iterator@HandlerMap@__FrameHandler3@@QEAA@AEAV12@I@Z 000000014001a820 f i libvcruntimed:frame.obj
 0001:00019820       ??0iterator@TryBlockMap@__FrameHandler3@@QEAA@AEAV12@I@Z 000000014001a820 f i libvcruntimed:risctrnsctrl.obj
 0001:00019820       ??0iterator@TryBlockMap4@FH4@@QEAA@AEAV12@I@Z 000000014001a820 f i libvcruntimed:risctrnsctrl.obj
 0001:00019820       ??0iterator@HandlerMap4@FH4@@QEAA@AEAV12@I@Z 000000014001a820 f i libvcruntimed:frame.obj
 0001:00019850       ??4iterator@TryBlockMap4@FH4@@QEAAAEAV012@AEBV012@@Z 000000014001a850 f i libvcruntimed:risctrnsctrl.obj
 0001:00019870       ??9iterator@TryBlockMap4@FH4@@QEBA_NAEBV012@@Z 000000014001a870 f i libvcruntimed:risctrnsctrl.obj
 0001:000198b0       ??Diterator@TryBlockMap4@FH4@@QEAA?AUTryBlockMapEntry4@2@XZ 000000014001a8b0 f i libvcruntimed:risctrnsctrl.obj
 0001:000198e0       ??Eiterator@TryBlockMap4@FH4@@QEAAAEAV012@XZ 000000014001a8e0 f i libvcruntimed:risctrnsctrl.obj
 0001:00019920       ?CatchTryBlock@__FrameHandler3@@SAPEBU_s_TryBlockMapEntry@@PEBU_s_FuncInfo@@H@Z 000000014001a920 f   libvcruntimed:risctrnsctrl.obj
 0001:000199b0       ?DecompFuncInfo@FH4@@YA_JPEAEAEAUFuncInfo4@1@_KH@Z 000000014001a9b0 f i libvcruntimed:risctrnsctrl.obj
 0001:000199f0       ?DecompFuncInfo@FH4@@YA_JPEAEAEAUFuncInfo4@1@_KH_N@Z 000000014001a9f0 f i libvcruntimed:risctrnsctrl.obj
 0001:00019bc0       ?DecompTryBlock@TryBlockMap4@FH4@@AEAAXXZ 000000014001abc0 f i libvcruntimed:risctrnsctrl.obj
 0001:00019c40       ?ExecutionInCatch@__FrameHandler3@@SA_NPEAU_xDISPATCHER_CONTEXT@@PEBU_s_FuncInfo@@@Z 000000014001ac40 f   libvcruntimed:risctrnsctrl.obj
 0001:00019c90       ?ExecutionInCatch@__FrameHandler4@@SA_NPEAU_xDISPATCHER_CONTEXT@@PEAUFuncInfo4@FH4@@@Z 000000014001ac90 f   libvcruntimed:risctrnsctrl.obj
 0001:00019cb0       ?FrameUnwindToEmptyState@__FrameHandler3@@SAXPEA_KPEAU_xDISPATCHER_CONTEXT@@PEBU_s_FuncInfo@@@Z 000000014001acb0 f   libvcruntimed:risctrnsctrl.obj
 0001:00019d50       ?FrameUnwindToEmptyState@__FrameHandler4@@SAXPEA_KPEAU_xDISPATCHER_CONTEXT@@PEAUFuncInfo4@FH4@@@Z 000000014001ad50 f   libvcruntimed:risctrnsctrl.obj
 0001:00019da0       ?GetEstablisherFrame@__FrameHandler3@@SAPEA_KPEA_KPEAU_xDISPATCHER_CONTEXT@@PEBU_s_FuncInfo@@0@Z 000000014001ada0 f   libvcruntimed:risctrnsctrl.obj
 0001:00019f10       ?GetEstablisherFrame@__FrameHandler4@@SAPEA_KPEA_KPEAU_xDISPATCHER_CONTEXT@@PEAUFuncInfo4@FH4@@0@Z 000000014001af10 f   libvcruntimed:risctrnsctrl.obj
 0001:00019f80       ?GetRangeOfTrysToCheck@__FrameHandler3@@SA?AU?$pair@Viterator@TryBlockMap@__FrameHandler3@@V123@@std@@AEAVTryBlockMap@1@HPEAU_xDISPATCHER_CONTEXT@@PEBU_s_FuncInfo@@H@Z 000000014001af80 f   libvcruntimed:risctrnsctrl.obj
 0001:0001a1c0       ?GetRangeOfTrysToCheck@__FrameHandler4@@SA?AU?$pair@Viterator@TryBlockMap4@FH4@@V123@@std@@AEAVTryBlockMap4@FH4@@HPEAU_xDISPATCHER_CONTEXT@@PEAUFuncInfo4@5@H@Z 000000014001b1c0 f   libvcruntimed:risctrnsctrl.obj
 0001:0001a370       ?ReadInt@FH4@@YAHPEAPEAE@Z 000000014001b370 f i libvcruntimed:risctrnsctrl.obj
 0001:0001a3b0       ?ReadUnsigned@FH4@@YAIPEAPEAE@Z 000000014001b3b0 f i libvcruntimed:risctrnsctrl.obj
 0001:0001a440       ?UnwindNestedFrames@__FrameHandler3@@SAXPEA_KPEAUEHExceptionRecord@@PEAU_CONTEXT@@0PEAXPEBU_s_FuncInfo@@HHPEBU_s_HandlerType@@PEAU_xDISPATCHER_CONTEXT@@E@Z 000000014001b440 f   libvcruntimed:risctrnsctrl.obj
 0001:0001a5b0       ?UnwindNestedFrames@__FrameHandler4@@SAXPEA_KPEAUEHExceptionRecord@@PEAU_CONTEXT@@0PEAXPEAUFuncInfo4@FH4@@HHPEAUHandlerType4@5@PEAU_xDISPATCHER_CONTEXT@@E@Z 000000014001b5b0 f   libvcruntimed:risctrnsctrl.obj
 0001:0001a780       ?begin@HandlerMap4@FH4@@QEAA?AViterator@12@XZ 000000014001b780 f i libvcruntimed:frame.obj
 0001:0001a780       ?begin@TryBlockMap4@FH4@@QEAA?AViterator@12@XZ 000000014001b780 f i libvcruntimed:risctrnsctrl.obj
 0001:0001a780       ?begin@HandlerMap@__FrameHandler3@@QEAA?AViterator@12@XZ 000000014001b780 f i libvcruntimed:frame.obj
 0001:0001a7b0       ?end@TryBlockMap4@FH4@@QEAA?AViterator@12@XZ 000000014001b7b0 f i libvcruntimed:risctrnsctrl.obj
 0001:0001a7b0       ?end@HandlerMap@__FrameHandler3@@QEAA?AViterator@12@XZ 000000014001b7b0 f i libvcruntimed:frame.obj
 0001:0001a7b0       ?end@HandlerMap4@FH4@@QEAA?AViterator@12@XZ 000000014001b7b0 f i libvcruntimed:frame.obj
 0001:0001a7e0       ?imageRelToByteBuffer@FH4@@YAPEAE_KH@Z 000000014001b7e0 f i libvcruntimed:risctrnsctrl.obj
 0001:0001a800       ?incrementToSentinel@iterator@TryBlockMap4@FH4@@QEAAXXZ 000000014001b800 f i libvcruntimed:risctrnsctrl.obj
 0001:0001a820       ?setBuffer@TryBlockMap4@FH4@@QEAAXViterator@12@@Z 000000014001b820 f i libvcruntimed:risctrnsctrl.obj
 0001:0001a890       _CreateFrameInfo           000000014001b890 f   libvcruntimed:risctrnsctrl.obj
 0001:0001a900       _FindAndUnlinkFrame        000000014001b900 f   libvcruntimed:risctrnsctrl.obj
 0001:0001a980       _GetImageBase              000000014001b980 f   libvcruntimed:risctrnsctrl.obj
 0001:0001a9a0       _GetThrowImageBase         000000014001b9a0 f   libvcruntimed:risctrnsctrl.obj
 0001:0001a9c0       _SetImageBase              000000014001b9c0 f   libvcruntimed:risctrnsctrl.obj
 0001:0001a9e0       _SetThrowImageBase         000000014001b9e0 f   libvcruntimed:risctrnsctrl.obj
 0001:0001aa00       __CxxFrameHandler3         000000014001ba00 f   libvcruntimed:risctrnsctrl.obj
 0001:0001aae0       __CxxFrameHandler4         000000014001bae0 f   libvcruntimed:risctrnsctrl.obj
 0001:0001ac00       memcpy_repmovs             000000014001bc00 f   libvcruntimed:memcpy.obj
 0001:0001ac20       memcpy                     000000014001bc20 f   libvcruntimed:memcpy.obj
 0001:0001ac20       memmove                    000000014001bc20 f   libvcruntimed:memcpy.obj
 0001:0001b2b0       memset_repmovs             000000014001c2b0 f   libvcruntimed:memset.obj
 0001:0001b2d0       memset                     000000014001c2d0 f   libvcruntimed:memset.obj
 0001:0001b460       __uncaught_exception       000000014001c460 f   libvcruntimed:uncaught_exception.obj
 0001:0001b4c0       memchr                     000000014001c4c0 f   libvcruntimed:memchr.obj
 0001:0001b540       memcmp                     000000014001c540 f   libvcruntimed:memcmp.obj
 0001:0001b610       __C_specific_handler       000000014001c610 f   libvcruntimed:riscchandler.obj
 0001:0001ba80       __vcrt_initialize          000000014001ca80 f   libvcruntimed:initialization.obj
 0001:0001bac0       __vcrt_uninitialize        000000014001cac0 f   libvcruntimed:initialization.obj
 0001:0001bae0       __std_type_info_compare    000000014001cae0 f   libvcruntimed:std_type_info.obj
 0001:0001bb20       __DestructExceptionObject  000000014001cb20 f   libvcruntimed:ehhelpers.obj
 0001:0001bc20       ?_CallMemberFunction0@@YAXQEAX0@Z 000000014001cc20 f i libvcruntimed:ehhelpers.obj
 0001:0001bcf0       _IsExceptionObjectToBeDestroyed 000000014001ccf0 f   libvcruntimed:ehhelpers.obj
 0001:0001bd40       __AdjustPointer            000000014001cd40 f   libvcruntimed:ehhelpers.obj
 0001:0001bdc0       __FrameUnwindFilter        000000014001cdc0 f   libvcruntimed:ehhelpers.obj
 0001:0001be70       __current_exception        000000014001ce70 f   libvcruntimed:ehhelpers.obj
 0001:0001be90       __current_exception_context 000000014001ce90 f   libvcruntimed:ehhelpers.obj
 0001:0001bf30       __vcrt_freefls             000000014001cf30 f   libvcruntimed:per_thread_data.obj
 0001:0001bf70       __vcrt_getptd              000000014001cf70 f   libvcruntimed:per_thread_data.obj
 0001:0001bfa0       __vcrt_getptd_noexit       000000014001cfa0 f   libvcruntimed:per_thread_data.obj
 0001:0001c140       __vcrt_getptd_noinit       000000014001d140 f   libvcruntimed:per_thread_data.obj
 0001:0001c1a0       __vcrt_initialize_ptd      000000014001d1a0 f   libvcruntimed:per_thread_data.obj
 0001:0001c1f0       __vcrt_uninitialize_ptd    000000014001d1f0 f   libvcruntimed:per_thread_data.obj
 0001:0001c220       ?GetCurrentState@__FrameHandler3@@SAHPEA_KPEAU_xDISPATCHER_CONTEXT@@PEBU_s_FuncInfo@@@Z 000000014001d220 f   libvcruntimed:ehstate.obj
 0001:0001c280       ?GetUnwindTryBlock@__FrameHandler3@@SAHPEA_KPEAU_xDISPATCHER_CONTEXT@@PEBU_s_FuncInfo@@@Z 000000014001d280 f   libvcruntimed:ehstate.obj
 0001:0001c2d0       ?SetState@__FrameHandler3@@SAXPEA_KPEBU_s_FuncInfo@@H@Z 000000014001d2d0 f   libvcruntimed:ehstate.obj
 0001:0001c300       ?SetUnwindTryBlock@__FrameHandler3@@SAXPEA_KPEAU_xDISPATCHER_CONTEXT@@PEBU_s_FuncInfo@@H@Z 000000014001d300 f   libvcruntimed:ehstate.obj
 0001:0001c370       ?StateFromControlPc@__FrameHandler3@@SAHPEBU_s_FuncInfo@@PEAU_xDISPATCHER_CONTEXT@@@Z 000000014001d370 f   libvcruntimed:ehstate.obj
 0001:0001c3b0       ?StateFromControlPc@__FrameHandler4@@SAHPEAUFuncInfo4@FH4@@PEAU_xDISPATCHER_CONTEXT@@@Z 000000014001d3b0 f   libvcruntimed:ehstate.obj
 0001:0001c3f0       ?StateFromIp@__FrameHandler3@@SAHPEBU_s_FuncInfo@@PEAU_xDISPATCHER_CONTEXT@@_K@Z 000000014001d3f0 f   libvcruntimed:ehstate.obj
 0001:0001c4e0       ?StateFromIp@__FrameHandler4@@SAHPEAUFuncInfo4@FH4@@PEAU_xDISPATCHER_CONTEXT@@_K@Z 000000014001d4e0 f   libvcruntimed:ehstate.obj
 0001:0001c5d0       ?__FuncRelToRealOffset@@YA_KPEAU_xDISPATCHER_CONTEXT@@I@Z 000000014001d5d0 f i libvcruntimed:ehstate.obj
 0001:0001c600       ?__RVAtoRealOffset@@YA_KPEAU_xDISPATCHER_CONTEXT@@H@Z 000000014001d600 f i libvcruntimed:ehstate.obj
 0001:0001e860       ??$TypeMatchHelper@V__FrameHandler3@@@@YAHPEBU_s_HandlerType@@PEBU_s_CatchableType@@PEBU_s_ThrowInfo@@@Z 000000014001f860 f i libvcruntimed:frame.obj
 0001:0001ea60       ??$TypeMatchHelper@V__FrameHandler4@@@@YAHPEAUHandlerType4@FH4@@PEBU_s_CatchableType@@PEBU_s_ThrowInfo@@@Z 000000014001fa60 f i libvcruntimed:frame.obj
 0001:0001ec70       ??$__InternalCxxFrameHandler@V__FrameHandler3@@@@YA?AW4_EXCEPTION_DISPOSITION@@PEAUEHExceptionRecord@@PEA_KPEAU_CONTEXT@@PEAU_xDISPATCHER_CONTEXT@@PEBU_s_FuncInfo@@H1E@Z 000000014001fc70 f i libvcruntimed:frame.obj
 0001:0001f0e0       ??$__InternalCxxFrameHandler@V__FrameHandler4@@@@YA?AW4_EXCEPTION_DISPOSITION@@PEAUEHExceptionRecord@@PEA_KPEAU_CONTEXT@@PEAU_xDISPATCHER_CONTEXT@@PEAUFuncInfo4@FH4@@H1E@Z 00000001400200e0 f i libvcruntimed:frame.obj
 0001:0001f570       ??0HandlerMap4@FH4@@QEAA@PEBUTryBlockMapEntry4@1@_KH@Z 0000000140020570 f i libvcruntimed:frame.obj
 0001:0001f630       ??0HandlerMap@__FrameHandler3@@QEAA@PEBU_s_TryBlockMapEntry@@_KI@Z 0000000140020630 f i libvcruntimed:frame.obj
 0001:0001f680       ??0HandlerType4@FH4@@QEAA@XZ 0000000140020680 f i libvcruntimed:frame.obj
 0001:0001f6a0       ??0TryBlockMap4@FH4@@QEAA@PEBUFuncInfo4@1@_K@Z 00000001400206a0 f i libvcruntimed:frame.obj
 0001:0001f730       ??0UWMap4@FH4@@QEAA@PEBUFuncInfo4@1@_K@Z 0000000140020730 f i libvcruntimed:frame.obj
 0001:0001f7a0       ??0bad_exception@std@@QEAA@AEBV01@@Z 00000001400207a0 f i libvcruntimed:frame.obj
 0001:0001f7e0       ??0bad_exception@std@@QEAA@XZ 00000001400207e0 f i libvcruntimed:frame.obj
 0001:0001f820       ??4iterator@UWMap4@FH4@@QEAAAEAV012@AEBV012@@Z 0000000140020820 f i libvcruntimed:frame.obj
 0001:0001f870       ??8iterator@HandlerMap@__FrameHandler3@@QEBA_NAEBV012@@Z 0000000140020870 f i libvcruntimed:frame.obj
 0001:0001f870       ??8iterator@HandlerMap4@FH4@@QEBA_NAEBV012@@Z 0000000140020870 f i libvcruntimed:frame.obj
 0001:0001f8b0       ??8type_info@@QEBA_NAEBV0@@Z 00000001400208b0 f i libvcruntimed:frame.obj
 0001:0001f900       ??9iterator@HandlerMap@__FrameHandler3@@QEBA_NAEBV012@@Z 0000000140020900 f i libvcruntimed:frame.obj
 0001:0001f900       ??9iterator@HandlerMap4@FH4@@QEBA_NAEBV012@@Z 0000000140020900 f i libvcruntimed:frame.obj
 0001:0001f940       ??Diterator@HandlerMap4@FH4@@QEAA?AUHandlerType4@2@XZ 0000000140020940 f i libvcruntimed:frame.obj
 0001:0001f970       ??Diterator@HandlerMap@__FrameHandler3@@QEAA?BU_s_HandlerType@@XZ 0000000140020970 f i libvcruntimed:frame.obj
 0001:0001f9b0       ??Diterator@TryBlockMap@__FrameHandler3@@QEAA?BU_s_TryBlockMapEntry@@XZ 00000001400209b0 f i libvcruntimed:frame.obj
 0001:0001fa00       ??Diterator@UWMap4@FH4@@QEAA?AUUnwindMapEntry4@2@XZ 0000000140020a00 f i libvcruntimed:frame.obj
 0001:0001fa80       ??Eiterator@HandlerMap4@FH4@@QEAAAEAV012@XZ 0000000140020a80 f i libvcruntimed:frame.obj
 0001:0001fac0       ??Eiterator@TryBlockMap@__FrameHandler3@@QEAAAEAV012@XZ 0000000140020ac0 f i libvcruntimed:frame.obj
 0001:0001fac0       ??Eiterator@HandlerMap@__FrameHandler3@@QEAAAEAV012@XZ 0000000140020ac0 f i libvcruntimed:frame.obj
 0001:0001fae0       ??Eiterator@UWMap4@FH4@@QEAAAEAV012@XZ 0000000140020ae0 f i libvcruntimed:frame.obj
 0001:0001fb20       ??Giterator@UWMap4@FH4@@QEBA_JAEBV012@@Z 0000000140020b20 f i libvcruntimed:frame.obj
 0001:0001fb40       ??Miterator@TryBlockMap@__FrameHandler3@@QEBA_NAEBV012@@Z 0000000140020b40 f i libvcruntimed:frame.obj
 0001:0001fb40       ??Miterator@TryBlockMap4@FH4@@QEBA_NAEBV012@@Z 0000000140020b40 f i libvcruntimed:frame.obj
 0001:0001fb80       ??Oiterator@UWMap4@FH4@@QEBA_NAEBV012@@Z 0000000140020b80 f i libvcruntimed:frame.obj
 0001:0001fbc0       ??Piterator@UWMap4@FH4@@QEBA_NAEBV012@@Z 0000000140020bc0 f i libvcruntimed:frame.obj
 0001:0001fc00       ?BuildCatchObject@__FrameHandler3@@SAXPEAUEHExceptionRecord@@PEAXPEBU_s_HandlerType@@PEBU_s_CatchableType@@@Z 0000000140020c00 f   libvcruntimed:frame.obj
 0001:0001fc40       ?BuildCatchObject@__FrameHandler4@@SAXPEAUEHExceptionRecord@@PEAXPEAUHandlerType4@FH4@@PEBU_s_CatchableType@@@Z 0000000140020c40 f   libvcruntimed:frame.obj
 0001:0001fc80       ?CxxCallCatchBlock@__FrameHandler3@@SAPEAXPEAU_EXCEPTION_RECORD@@@Z 0000000140020c80 f   libvcruntimed:frame.obj
 0001:0001fee0       ?CxxCallCatchBlock@__FrameHandler4@@SAPEAXPEAU_EXCEPTION_RECORD@@@Z 0000000140020ee0 f   libvcruntimed:frame.obj
 0001:00020210       ?DecompHandler@HandlerMap4@FH4@@AEAAXXZ 0000000140021210 f i libvcruntimed:frame.obj
 0001:000205e0       ?FrameUnwindToState@__FrameHandler3@@SAXPEA_KPEAU_xDISPATCHER_CONTEXT@@PEBU_s_FuncInfo@@H@Z 00000001400215e0 f   libvcruntimed:frame.obj
 0001:00020830       ?FrameUnwindToState@__FrameHandler4@@SAXPEA_KPEAU_xDISPATCHER_CONTEXT@@PEAUFuncInfo4@FH4@@H@Z 0000000140021830 f   libvcruntimed:frame.obj
 0001:00020b40       ?GetHandlerSearchState@__FrameHandler3@@SAHPEA_KPEAU_xDISPATCHER_CONTEXT@@PEBU_s_FuncInfo@@@Z 0000000140021b40 f i libvcruntimed:frame.obj
 0001:00020bf0       ?GetHandlerSearchState@__FrameHandler4@@SAHPEA_KPEAU_xDISPATCHER_CONTEXT@@PEAUFuncInfo4@FH4@@@Z 0000000140021bf0 f i libvcruntimed:frame.obj
 0001:00020c70       ?GetMaxState@__FrameHandler3@@SAHPEAU_xDISPATCHER_CONTEXT@@PEBU_s_FuncInfo@@@Z 0000000140021c70 f i libvcruntimed:frame.obj
 0001:00020c90       ?GetMaxState@__FrameHandler4@@SAHPEAU_xDISPATCHER_CONTEXT@@PEAUFuncInfo4@FH4@@@Z 0000000140021c90 f i libvcruntimed:frame.obj
 0001:00020ec0       ?ReadEntry@UWMap4@FH4@@AEAAXPEAPEAE@Z 0000000140021ec0 f i libvcruntimed:frame.obj
 0001:00020f70       __TypeMatch                0000000140021f70 f   libvcruntimed:frame.obj
 0001:00020f70       ?TypeMatch@__FrameHandler3@@SAHPEBU_s_HandlerType@@PEBU_s_CatchableType@@PEBU_s_ThrowInfo@@@Z 0000000140021f70 f   libvcruntimed:frame.obj
 0001:00020fa0       ?TypeMatch@__FrameHandler4@@SAHPEAUHandlerType4@FH4@@PEBU_s_CatchableType@@PEBU_s_ThrowInfo@@@Z 0000000140021fa0 f   libvcruntimed:frame.obj
 0001:00020fd0       ?WalkBack@UWMap4@FH4@@AEAAXPEAPEAE@Z 0000000140021fd0 f i libvcruntimed:frame.obj
 0001:00021020       ?WalkBack@iterator@UWMap4@FH4@@QEAAXXZ 0000000140022020 f i libvcruntimed:frame.obj
 0001:00021060       ?WalkForward@UWMap4@FH4@@AEAAXPEAPEAE@Z 0000000140022060 f i libvcruntimed:frame.obj
 0001:00021090       ?_CallMemberFunction1@@YAXQEAX00@Z 0000000140022090 f i libvcruntimed:frame.obj
 0001:000210d0       ?_CallMemberFunction2@@YAXQEAX00H@Z 00000001400220d0 f i libvcruntimed:frame.obj
 0001:00021160       ?begin@UWMap4@FH4@@QEAA?AViterator@12@XZ 0000000140022160 f i libvcruntimed:frame.obj
 0001:00021190       ?getESTypes@__FrameHandler3@@SAPEBU_s_ESTypeList@@PEBU_s_FuncInfo@@@Z 0000000140022190 f i libvcruntimed:frame.obj
 0001:000211d0       ?getLastEntry@HandlerMap4@FH4@@QEAAPEAUHandlerType4@2@XZ 00000001400221d0 f i libvcruntimed:frame.obj
 0001:00021210       ?getLastEntry@HandlerMap@__FrameHandler3@@QEAAPEBU_s_HandlerType@@XZ 0000000140022210 f i libvcruntimed:frame.obj
 0001:00021230       ?getMagicNum@__FrameHandler3@@SAIPEBU_s_FuncInfo@@@Z 0000000140022230 f i libvcruntimed:frame.obj
 0001:00021250       ?getMagicNum@__FrameHandler4@@SAIPEAUFuncInfo4@FH4@@@Z 0000000140022250 f i libvcruntimed:frame.obj
 0001:00021260       ?getNumTryBlocks@TryBlockMap4@FH4@@QEAAIXZ 0000000140022260 f i libvcruntimed:frame.obj
 0001:00021270       ?getNumTryBlocks@TryBlockMap@__FrameHandler3@@QEAAIXZ 0000000140022270 f i libvcruntimed:frame.obj
 0001:00021290       ?getStartStop@UWMap4@FH4@@QEAAXHHAEAViterator@12@0@Z 0000000140022290 f i libvcruntimed:frame.obj
 0001:000213b0       ?getStateFromIterators@UWMap4@FH4@@SAHAEBViterator@12@H0H0@Z 00000001400223b0 f i libvcruntimed:frame.obj
 0001:000214f0       ?isEHs@__FrameHandler3@@SA_NPEBU_s_FuncInfo@@@Z 00000001400224f0 f i libvcruntimed:frame.obj
 0001:00021530       ?isEHs@__FrameHandler4@@SA_NPEAUFuncInfo4@FH4@@@Z 0000000140022530 f i libvcruntimed:frame.obj
 0001:00021550       ?isNoExcept@__FrameHandler3@@SA_NPEBU_s_FuncInfo@@@Z 0000000140022550 f i libvcruntimed:frame.obj
 0001:00021590       ?isNoExcept@__FrameHandler4@@SA_NPEAUFuncInfo4@FH4@@@Z 0000000140022590 f i libvcruntimed:frame.obj
 0001:000215b0       ?reset@HandlerType4@FH4@@QEAAXXZ 00000001400225b0 f i libvcruntimed:frame.obj
 0001:00021610       ?resetBuffer@HandlerMap4@FH4@@QEAAXXZ 0000000140022610 f i libvcruntimed:frame.obj
 0001:00021630       ?setBuffer@HandlerMap4@FH4@@QEAAXI@Z 0000000140022630 f i libvcruntimed:frame.obj
 0001:00021690       __vcrt_EncodePointer       0000000140022690 f i libvcruntimed:frame.obj
 0001:000216c0       _NLG_Notify                00000001400226c0 f   libvcruntimed:notify.obj
 0001:000216e0       __NLG_Dispatch2            00000001400226e0 f   libvcruntimed:notify.obj
 0001:000216f0       __NLG_Return2              00000001400226f0 f   libvcruntimed:notify.obj
 0001:00021700       __except_validate_context_record 0000000140022700 f   libvcruntimed:jbcxrval.obj
 0001:00021760       __vcrt_initialize_locks    0000000140022760 f   libvcruntimed:locks.obj
 0001:000217d0       __vcrt_uninitialize_locks  00000001400227d0 f   libvcruntimed:locks.obj
 0001:00021830       ??$__crt_interlocked_exchange_pointer@XPEAX@@YAPEAXPEDSEAXQEAX@Z 0000000140022830 f i libvcruntimed:winapi_downlevel.obj
 0001:00021830       ??$__crt_interlocked_exchange_pointer@UHINSTANCE__@@PEAU1@@@YAPEAUHINSTANCE__@@PEDSEAU0@QEAU0@@Z 0000000140022830 f i libvcruntimed:winapi_downlevel.obj
 0001:00021830       ??$__crt_interlocked_exchange_pointer@UHINSTANCE__@@PEAX@@YAPEAUHINSTANCE__@@PEDSEAU0@QEAX@Z 0000000140022830 f i libvcruntimed:winapi_downlevel.obj
 0001:00021850       ?get_invalid_value@__crt_findfile_traits@@SAPEAXXZ 0000000140022850 f   libucrtd:argv_wildcards.obj
 0001:00021d40       __vcrt_FlsAlloc            0000000140022d40 f   libvcruntimed:winapi_downlevel.obj
 0001:00021d90       __vcrt_FlsFree             0000000140022d90 f   libvcruntimed:winapi_downlevel.obj
 0001:00021de0       __vcrt_FlsGetValue         0000000140022de0 f   libvcruntimed:winapi_downlevel.obj
 0001:00021e30       __vcrt_FlsSetValue         0000000140022e30 f   libvcruntimed:winapi_downlevel.obj
 0001:00021e90       __vcrt_InitializeCriticalSectionEx 0000000140022e90 f   libvcruntimed:winapi_downlevel.obj
 0001:00021f10       _CallSettingFrame          0000000140022f10 f   libvcruntimed:handlers.obj
 0001:00021f60       _CallSettingFrame_LookupContinuationIndex 0000000140022f60 f   libvcruntimed:handlers.obj
 0001:00021f90       _CallSettingFrame_NotifyContinuationAddr 0000000140022f90 f   libvcruntimed:handlers.obj
 0001:00021fc0       _CallSettingFrameEncoded   0000000140022fc0 f   libvcruntimed:handlers.obj
 0001:00022010       ??$__crt_fast_decode_pointer@P6AXH@Z@@YAP6AXH@ZQ6AXH@Z@Z 0000000140023010 f i libucrtd:signal.obj
 0001:00022010       ??$__crt_fast_decode_pointer@PEAX@@YAPEAXQEAX@Z 0000000140023010 f i libucrtd:winapi_thunks.obj
 0001:00022010       ??$__crt_fast_decode_pointer@P6AHPEA_WK_J@Z@@YAP6AHPEA_WK_J@ZQ6AH0K1@Z@Z 0000000140023010 f i libucrtd:winapi_thunks.obj
 0001:00022010       ??$__crt_fast_decode_pointer@P6AHPEAU_exception@@@Z@@YAP6AHPEAU_exception@@@ZQ6AH0@Z@Z 0000000140023010 f i libucrtd:matherr.obj
 0001:00022010       ??$__crt_fast_decode_pointer@P6AXPEAXK0@Z@@YAP6AXPEAXK0@ZQ6AX0K0@Z@Z 0000000140023010 f i libucrtd:exit.obj
 0001:00022010       ??$__crt_fast_decode_pointer@P6AH_K@Z@@YAP6AH_K@ZQ6AH0@Z@Z 0000000140023010 f i libucrtd:new_handler.obj
 0001:00022010       ??$__crt_fast_decode_pointer@P6AXPEB_W00I_K@Z@@YAP6AXPEB_W00I_K@ZQ6AX000I1@Z@Z 0000000140023010 f i libucrtd:invalid_parameter.obj
 0001:00022010       ??$__crt_fast_decode_pointer@P6AXXZ@@YAP6AXXZQ6AXXZ@Z 0000000140023010 f i libucrtd:onexit.obj
 0001:00022010       ??$__crt_fast_decode_pointer@PEAP6AXXZ@@YAPEAP6AXXZQEAP6AXXZ@Z 0000000140023010 f i libucrtd:onexit.obj
 0001:00022050       ??$initialize_from_array@$$BY00Q6AXPEB_W00I_K@Z@?$dual_state_global@P6AXPEB_W00I_K@Z@__crt_state_management@@QEAAXAEAY00Q6AXPEB_W00I_K@Z@Z 0000000140023050 f i libucrtd:invalid_parameter.obj
 0001:000220b0       ?__crt_rotate_pointer_value@@YA_K_KH@Z 00000001400230b0 f i libucrtd:invalid_parameter.obj
 0001:000220d0       ?value@?$dual_state_global@P6AXPEB_W00I_K@Z@__crt_state_management@@QEAAAEAP6AXPEB_W00I_K@ZXZ 00000001400230d0 f i libucrtd:invalid_parameter.obj
 0001:000220d0       ?value@?$dual_state_global@PEAU__crt_multibyte_data@@@__crt_state_management@@QEAAAEAPEAU__crt_multibyte_data@@XZ 00000001400230d0 f i libucrtd:locale_update.obj
 0001:000220d0       ?value@?$dual_state_global@P6AH_K@Z@__crt_state_management@@QEAAAEAP6AH_K@ZXZ 00000001400230d0 f i libucrtd:new_handler.obj
 0001:000220d0       ?value@?$dual_state_global@P6AXH@Z@__crt_state_management@@QEAAAEAP6AXH@ZXZ 00000001400230d0 f i libucrtd:signal.obj
 0001:000220d0       ?value@?$dual_state_global@PEAE@__crt_state_management@@QEAAAEAPEAEXZ 00000001400230d0 f i libucrtd:mbctype.obj
 0001:000220d0       ?value@?$dual_state_global@PEAU__crt_locale_data@@@__crt_state_management@@QEAAAEAPEAU__crt_locale_data@@XZ 00000001400230d0 f i libucrtd:wsetlocale.obj
 0001:000220d0       ?value@?$dual_state_global@P6AHPEAU_exception@@@Z@__crt_state_management@@QEAAAEAP6AHPEAU_exception@@@ZXZ 00000001400230d0 f i libucrtd:matherr.obj
 0001:000220f0       __acrt_call_reportfault    00000001400230f0 f   libucrtd:invalid_parameter.obj
 0001:00022220       __acrt_initialize_invalid_parameter_handler 0000000140023220 f   libucrtd:invalid_parameter.obj
 0001:00022250       _invalid_parameter         0000000140023250 f   libucrtd:invalid_parameter.obj
 0001:00022350       _invalid_parameter_noinfo  0000000140023350 f   libucrtd:invalid_parameter.obj
 0001:00022380       _invoke_watson             0000000140023380 f   libucrtd:invalid_parameter.obj
 0001:000223e0       ??0_LocaleUpdate@@QEAA@QEAU__crt_locale_pointers@@@Z 00000001400233e0 f i libucrtd:debug_heap.obj
 0001:00022500       ??1_LocaleUpdate@@QEAA@XZ  0000000140023500 f i libucrtd:debug_heap.obj
 0001:00022530       ?GetLocaleT@_LocaleUpdate@@QEAAPEAU__crt_locale_pointers@@XZ 0000000140023530 f i libucrtd:debug_heap.obj
 0001:00024510       _CrtCheckMemory            0000000140025510 f   libucrtd:debug_heap.obj
 0001:000246a0       _CrtDumpMemoryLeaks        00000001400256a0 f   libucrtd:debug_heap.obj
 0001:00024760       _CrtIsValidHeapPointer     0000000140025760 f   libucrtd:debug_heap.obj
 0001:000247a0       _CrtIsValidPointer         00000001400257a0 f   libucrtd:debug_heap.obj
 0001:000247e0       _CrtMemCheckpoint          00000001400257e0 f   libucrtd:debug_heap.obj
 0001:00024a60       _CrtMemDumpAllObjectsSince 0000000140025a60 f   libucrtd:debug_heap.obj
 0001:00024ac0       _CrtSetDbgFlag             0000000140025ac0 f   libucrtd:debug_heap.obj
 0001:00024c20       _CrtSetDumpClient          0000000140025c20 f   libucrtd:debug_heap.obj
 0001:00024c50       __acrt_disable_global_locale_sync 0000000140025c50 f i libucrtd:debug_heap.obj
 0001:00024c80       __acrt_enable_global_locale_sync 0000000140025c80 f i libucrtd:debug_heap.obj
 0001:00024cb0       __acrt_get_locale_data_prefix 0000000140025cb0 f i libucrtd:debug_heap.obj
 0001:00024cd0       __acrt_locale_changed      0000000140025cd0 f i libucrtd:debug_heap.obj
 0001:00024d00       _calloc_dbg                0000000140025d00 f   libucrtd:debug_heap.obj
 0001:00024da0       _chvalidchk_l              0000000140025da0 f i libucrtd:debug_heap.obj
 0001:00024dd0       _free_dbg                  0000000140025dd0 f   libucrtd:debug_heap.obj
 0001:00024e40       _invoke_watson_if_oneof    0000000140025e40 f i libucrtd:debug_heap.obj
 0001:00024ea0       _ischartype_l              0000000140025ea0 f i libucrtd:debug_heap.obj
 0001:00024f30       _malloc_dbg                0000000140025f30 f   libucrtd:debug_heap.obj
 0001:00024f70       _msize_dbg                 0000000140025f70 f   libucrtd:debug_heap.obj
 0001:00025110       _realloc_dbg               0000000140026110 f   libucrtd:debug_heap.obj
 0001:00025180       _recalloc_dbg              0000000140026180 f   libucrtd:debug_heap.obj
 0001:00026030       ??$get_module_file_name@AEAPEAUHINSTANCE__@@AEAY0BAF@DK@?$__crt_char_traits@D@@SAKAEAPEAUHINSTANCE__@@AEAY0BAF@D$$QEAK@Z 0000000140027030 f i libucrtd:dbgrpt.obj
 0001:00026030       ??$get_module_file_name@$$TAEAY0BAF@DH@?$__crt_char_traits@D@@SAK$$QEA$$TAEAY0BAF@D$$QEAH@Z 0000000140027030 f i libucrtd:argv_parsing.obj
 0001:00026070       ??$get_module_file_name@AEAPEAUHINSTANCE__@@AEAY0BAF@_WK@?$__crt_char_traits@_W@@SAKAEAPEAUHINSTANCE__@@AEAY0BAF@_W$$QEAK@Z 0000000140027070 f i libucrtd:dbgrpt.obj
 0001:000260b0       ??$tcscpy_s@AEAY0BAF@D_KPEBD@?$__crt_char_traits@D@@SAHAEAY0BAF@D$$QEA_K$$QEAPEBD@Z 00000001400270b0 f i libucrtd:dbgrpt.obj
 0001:000260f0       ??$tcscpy_s@AEAY0BAF@_W_KPEB_W@?$__crt_char_traits@_W@@SAHAEAY0BAF@_W$$QEA_K$$QEAPEB_W@Z 00000001400270f0 f i libucrtd:dbgrpt.obj
 0001:00026130       ??$tcslen@AEAY0BAF@D@?$__crt_char_traits@D@@SA_KAEAY0BAF@D@Z 0000000140027130 f i libucrtd:dbgrpt.obj
 0001:00026150       ??$tcslen@AEAY0BAF@_W@?$__crt_char_traits@_W@@SA_KAEAY0BAF@_W@Z 0000000140027150 f i libucrtd:dbgrpt.obj
 0001:00026170       ??$tcslen@AEBQEBD@?$__crt_char_traits@D@@SA_KAEBQEBD@Z 0000000140027170 f i libucrtd:dbgrpt.obj
 0001:00026190       ??$tcslen@AEBQEB_W@?$__crt_char_traits@_W@@SA_KAEBQEB_W@Z 0000000140027190 f i libucrtd:dbgrpt.obj
 0001:00026190       ??$tcslen@AEBQEA_W@?$__crt_char_traits@_W@@SA_KAEBQEA_W@Z 0000000140027190 f i libucrtd:assert.obj
 0001:000261f0       _CrtDbgReport              00000001400271f0 f   libucrtd:dbgrpt.obj
 0001:00026270       _CrtDbgReportW             0000000140027270 f   libucrtd:dbgrpt.obj
 0001:000262f0       __acrt_MessageWindowA      00000001400272f0 f   libucrtd:dbgrpt.obj
 0001:00026340       __acrt_MessageWindowW      0000000140027340 f   libucrtd:dbgrpt.obj
 0001:00026390       _invoke_watson_if_error    0000000140027390 f i libucrtd:dbgrpt.obj
 0001:000263e0       _snwprintf_s               00000001400273e0 f i libucrtd:dbgrpt.obj
 0001:00026450       _vsnwprintf_s_l            0000000140027450 f i libucrtd:dbgrpt.obj
 0001:000264d0       frexp                      00000001400274d0 f   libucrtd:frexp.obj
 0001:000266f0       free                       00000001400276f0 f   libucrtd:free.obj
 0001:00026720       ??$?B$$A6AXPEAXK0@Z@__crt_fast_encoded_nullptr_t@@QEBAP6AXPEAXK0@ZXZ 0000000140027720 f i libucrtd:exit.obj
 0001:00026720       ??$?BP6AXXZ@__crt_fast_encoded_nullptr_t@@QEBAPEAP6AXXZXZ 0000000140027720 f i libucrtd:onexit.obj
 0001:00026720       ??$?BX@__crt_fast_encoded_nullptr_t@@QEBAPEAXXZ 0000000140027720 f i libucrtd:initialization.obj
 0001:00026720       ??$?B$$A6AXH@Z@__crt_fast_encoded_nullptr_t@@QEBAP6AXH@ZXZ 0000000140027720 f i libucrtd:signal.obj
 0001:00026720       ??$?B$$A6AXXZ@__crt_fast_encoded_nullptr_t@@QEBAP6AXXZXZ 0000000140027720 f i libucrtd:onexit.obj
 0001:00026720       ??$?B$$A6AHPEA_WK_J@Z@__crt_fast_encoded_nullptr_t@@QEBAP6AHPEA_WK_J@ZXZ 0000000140027720 f i libucrtd:winapi_thunks.obj
 0001:000267d0       ??$__crt_fast_encode_pointer@P6AHPEAU_exception@@@Z@@YAP6AHPEAU_exception@@@ZQ6AH0@Z@Z 00000001400277d0 f i libucrtd:matherr.obj
 0001:000267d0       ??$__crt_fast_encode_pointer@PEAX@@YAPEAXQEAX@Z 00000001400277d0 f i libucrtd:initialization.obj
 0001:000267d0       ??$__crt_fast_encode_pointer@P6AHXZ@@YAP6AHXZQ6AHXZ@Z 00000001400277d0 f i libucrtd:onexit.obj
 0001:000267d0       ??$__crt_fast_encode_pointer@PEAP6AXXZ@@YAPEAP6AXXZQEAP6AXXZ@Z 00000001400277d0 f i libucrtd:onexit.obj
 0001:000267d0       ??$__crt_fast_encode_pointer@P6AXH@Z@@YAP6AXH@ZQ6AXH@Z@Z 00000001400277d0 f i libucrtd:signal.obj
 0001:000267d0       ??$__crt_fast_encode_pointer@P6AXPEAXK0@Z@@YAP6AXPEAXK0@ZQ6AX0K0@Z@Z 00000001400277d0 f i libucrtd:exit.obj
 0001:000267d0       ??$__crt_fast_encode_pointer@P6AHPEA_WK_J@Z@@YAP6AHPEA_WK_J@ZQ6AH0K1@Z@Z 00000001400277d0 f i libucrtd:winapi_thunks.obj
 0001:000267d0       ??$__crt_fast_encode_pointer@P6AXXZ@@YAP6AXXZQ6AXXZ@Z 00000001400277d0 f i libucrtd:onexit.obj
 0001:00026810       ??$__crt_get_proc_address@P6AXI@Z@@YAP6AXI@ZQEAUHINSTANCE__@@QEBD@Z 0000000140027810 f i libucrtd:exit.obj
 0001:00026840       ??$__crt_interlocked_read@H@@YAHPEDH@Z 0000000140027840 f i libucrtd:setmode.obj
 0001:00026840       ??$__crt_interlocked_read@J@@YAJPEDJ@Z 0000000140027840 f i libucrtd:exit.obj
 0001:000268d0       ??1?$__crt_unique_handle_t@U__crt_hmodule_traits@@@@QEAA@XZ 00000001400278d0 f i libucrtd:exit.obj
 0001:00026a30       ?__acrt_select_exit_lock@@YA?AW4__acrt_lock_id@@XZ 0000000140027a30 f i libucrtd:exit.obj
 0001:00026a40       ?__crt_fast_encode_pointer@@YA?AU__crt_fast_encoded_nullptr_t@@$$T@Z 0000000140027a40 f i libucrtd:exit.obj
 0001:00026a60       ?__crt_interlocked_read_32@@YAHPEDH@Z 0000000140027a60 f i libucrtd:exit.obj
 0001:00026aa0       ?close@?$__crt_unique_handle_t@U__crt_hmodule_traits@@@@QEAAXXZ 0000000140027aa0 f i libucrtd:exit.obj
 0001:00026ae0       ?close@__crt_hmodule_traits@@SA_NPEAUHINSTANCE__@@@Z 0000000140027ae0 f i libucrtd:exit.obj
 0001:00026da0       __acrt_initialize_thread_local_exit_callback 0000000140027da0 f   libucrtd:exit.obj
 0001:00026dc0       _c_exit                    0000000140027dc0 f   libucrtd:exit.obj
 0001:00026de0       _cexit                     0000000140027de0 f   libucrtd:exit.obj
 0001:00026e00       _exit                      0000000140027e00 f   libucrtd:exit.obj
 0001:00026e20       _register_thread_local_exe_atexit_callback 0000000140027e20 f   libucrtd:exit.obj
 0001:00026e70       exit                       0000000140027e70 f   libucrtd:exit.obj
 0001:00026e90       __acrt_initialize_stdio    0000000140027e90 f   libucrtd:_file.obj
 0001:00027080       __acrt_iob_func            0000000140028080 f   libucrtd:_file.obj
 0001:000270a0       __acrt_uninitialize_stdio  00000001400280a0 f   libucrtd:_file.obj
 0001:00027130       _get_stream_buffer_pointers 0000000140028130 f   libucrtd:_file.obj
 0001:00027260       _lock_file                 0000000140028260 f   libucrtd:_file.obj
 0001:000272a0       _unlock_file               00000001400282a0 f   libucrtd:_file.obj
 0001:000272e0       ?get_flags@__crt_stdio_stream@@QEBAJXZ 00000001400282e0 f i libucrtd:fclose.obj
 0001:00027310       ?is_in_use@__crt_stdio_stream@@QEBA_NXZ 0000000140028310 f i libucrtd:fclose.obj
 0001:00027350       ?is_string_backed@__crt_stdio_stream@@QEBA_NXZ 0000000140028350 f i libucrtd:fclose.obj
 0001:00027390       _fclose_nolock             0000000140028390 f   libucrtd:fclose.obj
 0001:00027520       fclose                     0000000140028520 f   libucrtd:fclose.obj
 0001:00027aa0       ?__acrt_stdio_reset_buffer@@YAXV__crt_stdio_stream@@@Z 0000000140028aa0 f i libucrtd:fflush.obj
 0001:00027bd0       ?has_all_of@__crt_stdio_stream@@QEBA_NJ@Z 0000000140028bd0 f i libucrtd:fflush.obj
 0001:00027cb0       ?set_flags@__crt_stdio_stream@@QEBA_NJ@Z 0000000140028cb0 f i libucrtd:fflush.obj
 0001:00027d20       ?unset_flags@__crt_stdio_stream@@QEBA_NJ@Z 0000000140028d20 f i libucrtd:fflush.obj
 0001:00027d80       __acrt_stdio_flush_nolock  0000000140028d80 f   libucrtd:fflush.obj
 0001:00027e90       _fflush_nolock             0000000140028e90 f   libucrtd:fflush.obj
 0001:00027f20       _flushall                  0000000140028f20 f   libucrtd:fflush.obj
 0001:00027f30       fflush                     0000000140028f30 f   libucrtd:fflush.obj
 0001:00027fc0       _fgetc_nolock              0000000140028fc0 f   libucrtd:fgetc.obj
 0001:00028120       fgetc                      0000000140029120 f   libucrtd:fgetc.obj
 0001:000283e0       fgetpos                    00000001400293e0 f   libucrtd:fgetpos.obj
 0001:00028570       _fputc_nolock              0000000140029570 f   libucrtd:fputc.obj
 0001:00028620       fputc                      0000000140029620 f   libucrtd:fputc.obj
 0001:000288c0       ?has_any_buffer@__crt_stdio_stream@@QEBA_NXZ 00000001400298c0 f i libucrtd:fread.obj
 0001:000288e0       ?has_any_of@__crt_stdio_stream@@QEBA_NJ@Z 00000001400298e0 f i libucrtd:fread.obj
 0001:00028920       _fread_nolock_s            0000000140029920 f   libucrtd:fread.obj
 0001:000292d0       fread                      000000014002a2d0 f   libucrtd:fread.obj
 0001:00029320       fread_s                    000000014002a320 f   libucrtd:fread.obj
 0001:000295b0       fsetpos                    000000014002a5b0 f   libucrtd:fsetpos.obj
 0001:00029730       ?LongLongSub@@YAJ_J0PEA_J@Z 000000014002a730 f i libucrtd:fseek.obj
 0001:00029d60       ?lowio_handle@__crt_stdio_stream@@QEBAHXZ 000000014002ad60 f i libucrtd:fseek.obj
 0001:00029d90       _fseeki64                  000000014002ad90 f   libucrtd:fseek.obj
 0001:00029dd0       fseek                      000000014002add0 f   libucrtd:fseek.obj
 0001:00029ec0       ??0__acrt_stdio_temporary_buffering_guard@@QEAA@QEAU_iobuf@@@Z 000000014002aec0 f i libucrtd:fwrite.obj
 0001:00029f00       ??1__acrt_stdio_temporary_buffering_guard@@QEAA@XZ 000000014002af00 f i libucrtd:fwrite.obj
 0001:00029fb0       ?has_big_buffer@__crt_stdio_stream@@QEBA_NXZ 000000014002afb0 f i libucrtd:fwrite.obj
 0001:00029fd0       _fwrite_nolock             000000014002afd0 f   libucrtd:fwrite.obj
 0001:0002a750       fwrite                     000000014002b750 f   libucrtd:fwrite.obj
 0001:0002ab10       setvbuf                    000000014002bb10 f   libucrtd:setvbuf.obj
 0001:0002add0       _ungetc_nolock             000000014002bdd0 f   libucrtd:ungetc.obj
 0001:0002b170       ungetc                     000000014002c170 f   libucrtd:ungetc.obj
 0001:0002b260       ??$?0AEBV?$string_output_adapter@_W@__crt_stdio_output@@AEB_KAEBQEB_WAEBQEAU__crt_locale_pointers@@AEBQEAD@?$standard_base@_WV?$string_output_adapter@_W@__crt_stdio_output@@@__crt_stdio_output@@IEAA@AEBV?$string_output_adapter@_W@1@AEB_KAEBQEB_WAEBQEAU__crt_locale_pointers@@AEBQEAD@Z 000000014002c260 f i libucrtd:output.obj
 0001:0002b260       ??$?0AEBV?$stream_output_adapter@_W@__crt_stdio_output@@AEB_KAEBQEB_WAEBQEAU__crt_locale_pointers@@AEBQEAD@?$standard_base@_WV?$stream_output_adapter@_W@__crt_stdio_output@@@__crt_stdio_output@@IEAA@AEBV?$stream_output_adapter@_W@1@AEB_KAEBQEB_WAEBQEAU__crt_locale_pointers@@AEBQEAD@Z 000000014002c260 f i libucrtd:output.obj
 0001:0002b2d0       ??$?0AEBV?$string_output_adapter@D@__crt_stdio_output@@AEB_KAEBQEBDAEBQEAU__crt_locale_pointers@@AEBQEAD@?$format_validation_base@DV?$string_output_adapter@D@__crt_stdio_output@@@__crt_stdio_output@@IEAA@AEBV?$string_output_adapter@D@1@AEB_KAEBQEBDAEBQEAU__crt_locale_pointers@@AEBQEAD@Z 000000014002c2d0 f i libucrtd:output.obj
 0001:0002b320       ??$?0AEBV?$string_output_adapter@D@__crt_stdio_output@@AEB_KAEBQEBDAEBQEAU__crt_locale_pointers@@AEBQEAD@?$standard_base@DV?$string_output_adapter@D@__crt_stdio_output@@@__crt_stdio_output@@IEAA@AEBV?$string_output_adapter@D@1@AEB_KAEBQEBDAEBQEAU__crt_locale_pointers@@AEBQEAD@Z 000000014002c320 f i libucrtd:output.obj
 0001:0002b390       ??$?0AEBV?$string_output_adapter@_W@__crt_stdio_output@@AEB_KAEBQEB_WAEBQEAU__crt_locale_pointers@@AEBQEAD@?$format_validation_base@_WV?$string_output_adapter@_W@__crt_stdio_output@@@__crt_stdio_output@@IEAA@AEBV?$string_output_adapter@_W@1@AEB_KAEBQEB_WAEBQEAU__crt_locale_pointers@@AEBQEAD@Z 000000014002c390 f i libucrtd:output.obj
 0001:0002d420       ??$count@D@formatting_buffer@__crt_stdio_output@@QEBA_KXZ 000000014002e420 f i libucrtd:output.obj
 0001:0002d470       ??$count@_W@formatting_buffer@__crt_stdio_output@@QEBA_KXZ 000000014002e470 f i libucrtd:output.obj
 0001:0002d4c0       ??$data@D@formatting_buffer@__crt_stdio_output@@QEAAPEADXZ 000000014002e4c0 f i libucrtd:output.obj
 0001:0002d4c0       ??$data@_W@formatting_buffer@__crt_stdio_output@@QEAAPEA_WXZ 000000014002e4c0 f i libucrtd:output.obj
 0001:0002d510       ??$ensure_buffer_is_big_enough@D@formatting_buffer@__crt_stdio_output@@QEAA_N_K@Z 000000014002e510 f i libucrtd:output.obj
 0001:0002d640       ??$ensure_buffer_is_big_enough@_W@formatting_buffer@__crt_stdio_output@@QEAA_N_K@Z 000000014002e640 f i libucrtd:output.obj
 0001:0002d770       ??$extract_argument_from_va_list@C_J@?$standard_base@DV?$string_output_adapter@D@__crt_stdio_output@@@__crt_stdio_output@@IEAA_NAEA_J@Z 000000014002e770 f i libucrtd:output.obj
 0001:0002d770       ??$extract_argument_from_va_list@C_J@?$standard_base@_WV?$string_output_adapter@_W@__crt_stdio_output@@@__crt_stdio_output@@IEAA_NAEA_J@Z 000000014002e770 f i libucrtd:output.obj
 0001:0002d770       ??$extract_argument_from_va_list@C_J@?$standard_base@_WV?$stream_output_adapter@_W@__crt_stdio_output@@@__crt_stdio_output@@IEAA_NAEA_J@Z 000000014002e770 f i libucrtd:output.obj
 0001:0002d7b0       ??$extract_argument_from_va_list@E_J@?$standard_base@_WV?$stream_output_adapter@_W@__crt_stdio_output@@@__crt_stdio_output@@IEAA_NAEA_J@Z 000000014002e7b0 f i libucrtd:output.obj
 0001:0002d7b0       ??$extract_argument_from_va_list@E_J@?$standard_base@DV?$string_output_adapter@D@__crt_stdio_output@@@__crt_stdio_output@@IEAA_NAEA_J@Z 000000014002e7b0 f i libucrtd:output.obj
 0001:0002d7b0       ??$extract_argument_from_va_list@E_J@?$standard_base@_WV?$string_output_adapter@_W@__crt_stdio_output@@@__crt_stdio_output@@IEAA_NAEA_J@Z 000000014002e7b0 f i libucrtd:output.obj
 0001:0002d7f0       ??$extract_argument_from_va_list@F_J@?$standard_base@_WV?$stream_output_adapter@_W@__crt_stdio_output@@@__crt_stdio_output@@IEAA_NAEA_J@Z 000000014002e7f0 f i libucrtd:output.obj
 0001:0002d7f0       ??$extract_argument_from_va_list@F_J@?$standard_base@DV?$string_output_adapter@D@__crt_stdio_output@@@__crt_stdio_output@@IEAA_NAEA_J@Z 000000014002e7f0 f i libucrtd:output.obj
 0001:0002d7f0       ??$extract_argument_from_va_list@F_J@?$standard_base@_WV?$string_output_adapter@_W@__crt_stdio_output@@@__crt_stdio_output@@IEAA_NAEA_J@Z 000000014002e7f0 f i libucrtd:output.obj
 0001:0002d830       ??$extract_argument_from_va_list@GD@?$standard_base@DV?$string_output_adapter@D@__crt_stdio_output@@@__crt_stdio_output@@IEAA_NAEAD@Z 000000014002e830 f i libucrtd:output.obj
 0001:0002d860       ??$extract_argument_from_va_list@G_J@?$standard_base@_WV?$stream_output_adapter@_W@__crt_stdio_output@@@__crt_stdio_output@@IEAA_NAEA_J@Z 000000014002e860 f i libucrtd:output.obj
 0001:0002d860       ??$extract_argument_from_va_list@G_J@?$standard_base@_WV?$string_output_adapter@_W@__crt_stdio_output@@@__crt_stdio_output@@IEAA_NAEA_J@Z 000000014002e860 f i libucrtd:output.obj
 0001:0002d860       ??$extract_argument_from_va_list@G_J@?$standard_base@DV?$string_output_adapter@D@__crt_stdio_output@@@__crt_stdio_output@@IEAA_NAEA_J@Z 000000014002e860 f i libucrtd:output.obj
 0001:0002d8a0       ??$extract_argument_from_va_list@H_J@?$standard_base@_WV?$stream_output_adapter@_W@__crt_stdio_output@@@__crt_stdio_output@@IEAA_NAEA_J@Z 000000014002e8a0 f i libucrtd:output.obj
 0001:0002d8a0       ??$extract_argument_from_va_list@H_J@?$standard_base@DV?$string_output_adapter@D@__crt_stdio_output@@@__crt_stdio_output@@IEAA_NAEA_J@Z 000000014002e8a0 f i libucrtd:output.obj
 0001:0002d8a0       ??$extract_argument_from_va_list@H_J@?$standard_base@_WV?$string_output_adapter@_W@__crt_stdio_output@@@__crt_stdio_output@@IEAA_NAEA_J@Z 000000014002e8a0 f i libucrtd:output.obj
 0001:0002d8d0       ??$extract_argument_from_va_list@I_J@?$standard_base@DV?$string_output_adapter@D@__crt_stdio_output@@@__crt_stdio_output@@IEAA_NAEA_J@Z 000000014002e8d0 f i libucrtd:output.obj
 0001:0002d8d0       ??$extract_argument_from_va_list@I_J@?$standard_base@_WV?$string_output_adapter@_W@__crt_stdio_output@@@__crt_stdio_output@@IEAA_NAEA_J@Z 000000014002e8d0 f i libucrtd:output.obj
 0001:0002d8d0       ??$extract_argument_from_va_list@I_J@?$standard_base@_WV?$stream_output_adapter@_W@__crt_stdio_output@@@__crt_stdio_output@@IEAA_NAEA_J@Z 000000014002e8d0 f i libucrtd:output.obj
 0001:0002d900       ??$extract_argument_from_va_list@_J_J@?$standard_base@DV?$string_output_adapter@D@__crt_stdio_output@@@__crt_stdio_output@@IEAA_NAEA_J@Z 000000014002e900 f i libucrtd:output.obj
 0001:0002d900       ??$extract_argument_from_va_list@PEADPEAD@?$standard_base@DV?$string_output_adapter@D@__crt_stdio_output@@@__crt_stdio_output@@IEAA_NAEAPEAD@Z 000000014002e900 f i libucrtd:output.obj
 0001:0002d900       ??$extract_argument_from_va_list@PEADPEAD@?$standard_base@_WV?$stream_output_adapter@_W@__crt_stdio_output@@@__crt_stdio_output@@IEAA_NAEAPEAD@Z 000000014002e900 f i libucrtd:output.obj
 0001:0002d900       ??$extract_argument_from_va_list@PEAXPEAX@?$standard_base@DV?$string_output_adapter@D@__crt_stdio_output@@@__crt_stdio_output@@IEAA_NAEAPEAX@Z 000000014002e900 f i libucrtd:output.obj
 0001:0002d900       ??$extract_argument_from_va_list@PEAUansi_string@?1??type_case_Z@?$output_processor@DV?$string_output_adapter@D@__crt_stdio_output@@V?$format_validation_base@DV?$string_output_adapter@D@__crt_stdio_output@@@2@@__crt_stdio_output@@AEAA_NXZ@PEAU1?1??234@AEAA_NXZ@@?$standard_base@DV?$string_output_adapter@D@__crt_stdio_output@@@__crt_stdio_output@@IEAA_NAEAPEAUansi_string@?1??type_case_Z@?$output_processor@DV?$string_output_adapter@D@__crt_stdio_output@@V?$format_validation_base@DV?$string_output_adapter@D@__crt_stdio_output@@@2@@1@AEAA_NXZ@@Z 000000014002e900 f i libucrtd:output.obj
 0001:0002d900       ??$extract_argument_from_va_list@PEAUansi_string@?1??type_case_Z@?$output_processor@_WV?$string_output_adapter@_W@__crt_stdio_output@@V?$standard_base@_WV?$string_output_adapter@_W@__crt_stdio_output@@@2@@__crt_stdio_output@@AEAA_NXZ@PEAU1?1??234@AEAA_NXZ@@?$standard_base@_WV?$string_output_adapter@_W@__crt_stdio_output@@@__crt_stdio_output@@IEAA_NAEAPEAUansi_string@?1??type_case_Z@?$output_processor@_WV?$string_output_adapter@_W@__crt_stdio_output@@V?$standard_base@_WV?$string_output_adapter@_W@__crt_stdio_output@@@2@@1@AEAA_NXZ@@Z 000000014002e900 f i libucrtd:output.obj
 0001:0002d900       ??$extract_argument_from_va_list@_J_J@?$standard_base@_WV?$string_output_adapter@_W@__crt_stdio_output@@@__crt_stdio_output@@IEAA_NAEA_J@Z 000000014002e900 f i libucrtd:output.obj
 0001:0002d900       ??$extract_argument_from_va_list@_K_J@?$standard_base@_WV?$string_output_adapter@_W@__crt_stdio_output@@@__crt_stdio_output@@IEAA_NAEA_J@Z 000000014002e900 f i libucrtd:output.obj
 0001:0002d900       ??$extract_argument_from_va_list@_K_J@?$standard_base@DV?$string_output_adapter@D@__crt_stdio_output@@@__crt_stdio_output@@IEAA_NAEA_J@Z 000000014002e900 f i libucrtd:output.obj
 0001:0002d900       ??$extract_argument_from_va_list@PEAUansi_string@?1??type_case_Z@?$output_processor@_WV?$stream_output_adapter@_W@__crt_stdio_output@@V?$standard_base@_WV?$stream_output_adapter@_W@__crt_stdio_output@@@2@@__crt_stdio_output@@AEAA_NXZ@PEAU1?1??234@AEAA_NXZ@@?$standard_base@_WV?$stream_output_adapter@_W@__crt_stdio_output@@@__crt_stdio_output@@IEAA_NAEAPEAUansi_string@?1??type_case_Z@?$output_processor@_WV?$stream_output_adapter@_W@__crt_stdio_output@@V?$standard_base@_WV?$stream_output_adapter@_W@__crt_stdio_output@@@2@@1@AEAA_NXZ@@Z 000000014002e900 f i libucrtd:output.obj
 0001:0002d900       ??$extract_argument_from_va_list@_J_J@?$standard_base@_WV?$stream_output_adapter@_W@__crt_stdio_output@@@__crt_stdio_output@@IEAA_NAEA_J@Z 000000014002e900 f i libucrtd:output.obj
 0001:0002d900       ??$extract_argument_from_va_list@_K_J@?$standard_base@_WV?$stream_output_adapter@_W@__crt_stdio_output@@@__crt_stdio_output@@IEAA_NAEA_J@Z 000000014002e900 f i libucrtd:output.obj
 0001:0002d900       ??$extract_argument_from_va_list@PEAXPEAX@?$standard_base@_WV?$stream_output_adapter@_W@__crt_stdio_output@@@__crt_stdio_output@@IEAA_NAEAPEAX@Z 000000014002e900 f i libucrtd:output.obj
 0001:0002d900       ??$extract_argument_from_va_list@PEAXPEAX@?$standard_base@_WV?$string_output_adapter@_W@__crt_stdio_output@@@__crt_stdio_output@@IEAA_NAEAPEAX@Z 000000014002e900 f i libucrtd:output.obj
 0001:0002d900       ??$extract_argument_from_va_list@PEAUansi_string@?1??type_case_Z@?$output_processor@_WV?$string_output_adapter@_W@__crt_stdio_output@@V?$format_validation_base@_WV?$string_output_adapter@_W@__crt_stdio_output@@@2@@__crt_stdio_output@@AEAA_NXZ@PEAU1?1??234@AEAA_NXZ@@?$standard_base@_WV?$string_output_adapter@_W@__crt_stdio_output@@@__crt_stdio_output@@IEAA_NAEAPEAUansi_string@?1??type_case_Z@?$output_processor@_WV?$string_output_adapter@_W@__crt_stdio_output@@V?$format_validation_base@_WV?$string_output_adapter@_W@__crt_stdio_output@@@2@@1@AEAA_NXZ@@Z 000000014002e900 f i libucrtd:output.obj
 0001:0002d900       ??$extract_argument_from_va_list@PEADPEAD@?$standard_base@_WV?$string_output_adapter@_W@__crt_stdio_output@@@__crt_stdio_output@@IEAA_NAEAPEAD@Z 000000014002e900 f i libucrtd:output.obj
 0001:0002d930       ??$extract_argument_from_va_list@U_CRT_DOUBLE@@U1@@?$standard_base@_WV?$stream_output_adapter@_W@__crt_stdio_output@@@__crt_stdio_output@@IEAA_NAEAU_CRT_DOUBLE@@@Z 000000014002e930 f i libucrtd:output.obj
 0001:0002d930       ??$extract_argument_from_va_list@U_CRT_DOUBLE@@U1@@?$standard_base@_WV?$string_output_adapter@_W@__crt_stdio_output@@@__crt_stdio_output@@IEAA_NAEAU_CRT_DOUBLE@@@Z 000000014002e930 f i libucrtd:output.obj
 0001:0002d930       ??$extract_argument_from_va_list@U_CRT_DOUBLE@@U1@@?$standard_base@DV?$string_output_adapter@D@__crt_stdio_output@@@__crt_stdio_output@@IEAA_NAEAU_CRT_DOUBLE@@@Z 000000014002e930 f i libucrtd:output.obj
 0001:0002d980       ??$extract_argument_from_va_list@_W_W@?$standard_base@_WV?$stream_output_adapter@_W@__crt_stdio_output@@@__crt_stdio_output@@IEAA_NAEA_W@Z 000000014002e980 f i libucrtd:output.obj
 0001:0002d980       ??$extract_argument_from_va_list@_W_W@?$standard_base@DV?$string_output_adapter@D@__crt_stdio_output@@@__crt_stdio_output@@IEAA_NAEA_W@Z 000000014002e980 f i libucrtd:output.obj
 0001:0002d980       ??$extract_argument_from_va_list@_W_W@?$standard_base@_WV?$string_output_adapter@_W@__crt_stdio_output@@@__crt_stdio_output@@IEAA_NAEA_W@Z 000000014002e980 f i libucrtd:output.obj
 0001:0002d9b0       ??$is_wide_character_specifier@D@__crt_stdio_output@@YA_N_KDW4length_modifier@0@@Z 000000014002e9b0 f i libucrtd:output.obj
 0001:0002da50       ??$is_wide_character_specifier@_W@__crt_stdio_output@@YA_N_K_WW4length_modifier@0@@Z 000000014002ea50 f i libucrtd:output.obj
 0001:0002db20       ??$puttc_nolock@AEB_WPEAU_iobuf@@@?$__crt_char_traits@_W@@SAGAEB_W$$QEAPEAU_iobuf@@@Z 000000014002eb20 f i libucrtd:output.obj
 0001:0002db50       ??$read_va_arg@E@__crt_stdio_output@@YAEAEAPEAD@Z 000000014002eb50 f i libucrtd:output.obj
 0001:0002db50       ??$read_va_arg@C@__crt_stdio_output@@YACAEAPEAD@Z 000000014002eb50 f i libucrtd:output.obj
 0001:0002dbc0       ??$read_va_arg@_W@__crt_stdio_output@@YA_WAEAPEAD@Z 000000014002ebc0 f i libucrtd:output.obj
 0001:0002dbc0       ??$read_va_arg@G@__crt_stdio_output@@YAGAEAPEAD@Z 000000014002ebc0 f i libucrtd:output.obj
 0001:0002dbc0       ??$read_va_arg@F@__crt_stdio_output@@YAFAEAPEAD@Z 000000014002ebc0 f i libucrtd:output.obj
 0001:0002dc30       ??$read_va_arg@H@__crt_stdio_output@@YAHAEAPEAD@Z 000000014002ec30 f i libucrtd:output.obj
 0001:0002dc30       ??$read_va_arg@I@__crt_stdio_output@@YAIAEAPEAD@Z 000000014002ec30 f i libucrtd:output.obj
 0001:0002dc90       ??$read_va_arg@PEAUansi_string@?1??type_case_Z@?$output_processor@_WV?$stream_output_adapter@_W@__crt_stdio_output@@V?$standard_base@_WV?$stream_output_adapter@_W@__crt_stdio_output@@@2@@__crt_stdio_output@@AEAA_NXZ@@__crt_stdio_output@@YAPEAUansi_string@?1??type_case_Z@?$output_processor@_WV?$stream_output_adapter@_W@__crt_stdio_output@@V?$standard_base@_WV?$stream_output_adapter@_W@__crt_stdio_output@@@2@@0@AEAA_NXZ@AEAPEAD@Z 000000014002ec90 f i libucrtd:output.obj
 0001:0002dc90       ??$read_va_arg@PEAUansi_string@?1??type_case_Z@?$output_processor@_WV?$string_output_adapter@_W@__crt_stdio_output@@V?$standard_base@_WV?$string_output_adapter@_W@__crt_stdio_output@@@2@@__crt_stdio_output@@AEAA_NXZ@@__crt_stdio_output@@YAPEAUansi_string@?1??type_case_Z@?$output_processor@_WV?$string_output_adapter@_W@__crt_stdio_output@@V?$standard_base@_WV?$string_output_adapter@_W@__crt_stdio_output@@@2@@0@AEAA_NXZ@AEAPEAD@Z 000000014002ec90 f i libucrtd:output.obj
 0001:0002dc90       ??$read_va_arg@_K@__crt_stdio_output@@YA_KAEAPEAD@Z 000000014002ec90 f i libucrtd:output.obj
 0001:0002dc90       ??$read_va_arg@_J@__crt_stdio_output@@YA_JAEAPEAD@Z 000000014002ec90 f i libucrtd:output.obj
 0001:0002dc90       ??$read_va_arg@PEAUansi_string@?1??type_case_Z@?$output_processor@_WV?$string_output_adapter@_W@__crt_stdio_output@@V?$format_validation_base@_WV?$string_output_adapter@_W@__crt_stdio_output@@@2@@__crt_stdio_output@@AEAA_NXZ@@__crt_stdio_output@@YAPEAUansi_string@?1??type_case_Z@?$output_processor@_WV?$string_output_adapter@_W@__crt_stdio_output@@V?$format_validation_base@_WV?$string_output_adapter@_W@__crt_stdio_output@@@2@@0@AEAA_NXZ@AEAPEAD@Z 000000014002ec90 f i libucrtd:output.obj
 0001:0002dc90       ??$read_va_arg@PEAD@__crt_stdio_output@@YAPEADAEAPEAD@Z 000000014002ec90 f i libucrtd:output.obj
 0001:0002dc90       ??$read_va_arg@U_CRT_DOUBLE@@@__crt_stdio_output@@YA?AU_CRT_DOUBLE@@AEAPEAD@Z 000000014002ec90 f i libucrtd:output.obj
 0001:0002dc90       ??$read_va_arg@PEAX@__crt_stdio_output@@YAPEAXAEAPEAD@Z 000000014002ec90 f i libucrtd:output.obj
 0001:0002dc90       ??$read_va_arg@PEAUansi_string@?1??type_case_Z@?$output_processor@DV?$string_output_adapter@D@__crt_stdio_output@@V?$format_validation_base@DV?$string_output_adapter@D@__crt_stdio_output@@@2@@__crt_stdio_output@@AEAA_NXZ@@__crt_stdio_output@@YAPEAUansi_string@?1??type_case_Z@?$output_processor@DV?$string_output_adapter@D@__crt_stdio_output@@V?$format_validation_base@DV?$string_output_adapter@D@__crt_stdio_output@@@2@@0@AEAA_NXZ@AEAPEAD@Z 000000014002ec90 f i libucrtd:output.obj
 0001:0002dd00       ??$scratch_count@D@formatting_buffer@__crt_stdio_output@@QEBA_KXZ 000000014002ed00 f i libucrtd:output.obj
 0001:0002dd20       ??$scratch_data@D@formatting_buffer@__crt_stdio_output@@QEAAPEADXZ 000000014002ed20 f i libucrtd:output.obj
 0001:0002dd90       ??$tcstol@PEBDPEAPEADH@?$__crt_char_traits@D@@SAJ$$QEAPEBD$$QEAPEAPEAD$$QEAH@Z 000000014002ed90 f i libucrtd:output.obj
 0001:0002ddd0       ??$tcstol@PEB_WPEAPEA_WH@?$__crt_char_traits@_W@@SAJ$$QEAPEB_W$$QEAPEAPEA_W$$QEAH@Z 000000014002edd0 f i libucrtd:output.obj
 0001:0002de10       ??$type_case_integer_parse_into_buffer@I@?$output_processor@DV?$string_output_adapter@D@__crt_stdio_output@@V?$format_validation_base@DV?$string_output_adapter@D@__crt_stdio_output@@@2@@__crt_stdio_output@@AEAAXII_N@Z 000000014002ee10 f i libucrtd:output.obj
 0001:0002df40       ??$type_case_integer_parse_into_buffer@I@?$output_processor@_WV?$string_output_adapter@_W@__crt_stdio_output@@V?$format_validation_base@_WV?$string_output_adapter@_W@__crt_stdio_output@@@2@@__crt_stdio_output@@AEAAXII_N@Z 000000014002ef40 f i libucrtd:output.obj
 0001:0002df40       ??$type_case_integer_parse_into_buffer@I@?$output_processor@_WV?$string_output_adapter@_W@__crt_stdio_output@@V?$standard_base@_WV?$string_output_adapter@_W@__crt_stdio_output@@@2@@__crt_stdio_output@@AEAAXII_N@Z 000000014002ef40 f i libucrtd:output.obj
 0001:0002df40       ??$type_case_integer_parse_into_buffer@I@?$output_processor@_WV?$stream_output_adapter@_W@__crt_stdio_output@@V?$standard_base@_WV?$stream_output_adapter@_W@__crt_stdio_output@@@2@@__crt_stdio_output@@AEAAXII_N@Z 000000014002ef40 f i libucrtd:output.obj
 0001:0002e080       ??$type_case_integer_parse_into_buffer@_K@?$output_processor@DV?$string_output_adapter@D@__crt_stdio_output@@V?$format_validation_base@DV?$string_output_adapter@D@__crt_stdio_output@@@2@@__crt_stdio_output@@AEAAX_KI_N@Z 000000014002f080 f i libucrtd:output.obj
 0001:0002e1d0       ??$type_case_integer_parse_into_buffer@_K@?$output_processor@_WV?$string_output_adapter@_W@__crt_stdio_output@@V?$format_validation_base@_WV?$string_output_adapter@_W@__crt_stdio_output@@@2@@__crt_stdio_output@@AEAAX_KI_N@Z 000000014002f1d0 f i libucrtd:output.obj
 0001:0002e1d0       ??$type_case_integer_parse_into_buffer@_K@?$output_processor@_WV?$string_output_adapter@_W@__crt_stdio_output@@V?$standard_base@_WV?$string_output_adapter@_W@__crt_stdio_output@@@2@@__crt_stdio_output@@AEAAX_KI_N@Z 000000014002f1d0 f i libucrtd:output.obj
 0001:0002e1d0       ??$type_case_integer_parse_into_buffer@_K@?$output_processor@_WV?$stream_output_adapter@_W@__crt_stdio_output@@V?$standard_base@_WV?$stream_output_adapter@_W@__crt_stdio_output@@@2@@__crt_stdio_output@@AEAAX_KI_N@Z 000000014002f1d0 f i libucrtd:output.obj
 0001:0002e330       ??$write_multiple_characters@V?$stream_output_adapter@_W@__crt_stdio_output@@D@__crt_stdio_output@@YAXAEBV?$stream_output_adapter@_W@0@DHQEAH@Z 000000014002f330 f i libucrtd:output.obj
 0001:0002e390       ??$write_multiple_characters@V?$string_output_adapter@D@__crt_stdio_output@@D@__crt_stdio_output@@YAXAEBV?$string_output_adapter@D@0@DHQEAH@Z 000000014002f390 f i libucrtd:output.obj
 0001:0002e3f0       ??$write_multiple_characters@V?$string_output_adapter@_W@__crt_stdio_output@@D@__crt_stdio_output@@YAXAEBV?$string_output_adapter@_W@0@DHQEAH@Z 000000014002f3f0 f i libucrtd:output.obj
 0001:0002e4b0       ??0?$common_data@D@__crt_stdio_output@@IEAA@XZ 000000014002f4b0 f i libucrtd:output.obj
 0001:0002e580       ??0?$common_data@_W@__crt_stdio_output@@IEAA@XZ 000000014002f580 f i libucrtd:output.obj
 0001:0002e650       ??0?$output_adapter_data@DV?$string_output_adapter@D@__crt_stdio_output@@@__crt_stdio_output@@IEAA@AEBV?$string_output_adapter@D@1@_KQEBDQEAU__crt_locale_pointers@@QEAD@Z 000000014002f650 f i libucrtd:output.obj
 0001:0002e6d0       ??0?$output_adapter_data@_WV?$stream_output_adapter@_W@__crt_stdio_output@@@__crt_stdio_output@@IEAA@AEBV?$stream_output_adapter@_W@1@_KQEB_WQEAU__crt_locale_pointers@@QEAD@Z 000000014002f6d0 f i libucrtd:output.obj
 0001:0002e6d0       ??0?$output_adapter_data@_WV?$string_output_adapter@_W@__crt_stdio_output@@@__crt_stdio_output@@IEAA@AEBV?$string_output_adapter@_W@1@_KQEB_WQEAU__crt_locale_pointers@@QEAD@Z 000000014002f6d0 f i libucrtd:output.obj
 0001:0002e750       ??0?$output_processor@DV?$string_output_adapter@D@__crt_stdio_output@@V?$format_validation_base@DV?$string_output_adapter@D@__crt_stdio_output@@@2@@__crt_stdio_output@@QEAA@AEBV?$string_output_adapter@D@1@_KQEBDQEAU__crt_locale_pointers@@QEAD@Z 000000014002f750 f i libucrtd:output.obj
 0001:0002e7a0       ??0?$output_processor@_WV?$stream_output_adapter@_W@__crt_stdio_output@@V?$standard_base@_WV?$stream_output_adapter@_W@__crt_stdio_output@@@2@@__crt_stdio_output@@QEAA@AEBV?$stream_output_adapter@_W@1@_KQEB_WQEAU__crt_locale_pointers@@QEAD@Z 000000014002f7a0 f i libucrtd:output.obj
 0001:0002e7a0       ??0?$output_processor@_WV?$string_output_adapter@_W@__crt_stdio_output@@V?$standard_base@_WV?$string_output_adapter@_W@__crt_stdio_output@@@2@@__crt_stdio_output@@QEAA@AEBV?$string_output_adapter@_W@1@_KQEB_WQEAU__crt_locale_pointers@@QEAD@Z 000000014002f7a0 f i libucrtd:output.obj
 0001:0002e7f0       ??0?$output_processor@_WV?$string_output_adapter@_W@__crt_stdio_output@@V?$format_validation_base@_WV?$string_output_adapter@_W@__crt_stdio_output@@@2@@__crt_stdio_output@@QEAA@AEBV?$string_output_adapter@_W@1@_KQEB_WQEAU__crt_locale_pointers@@QEAD@Z 000000014002f7f0 f i libucrtd:output.obj
 0001:0002e840       ??0?$stream_output_adapter@_W@__crt_stdio_output@@QEAA@QEAU_iobuf@@@Z 000000014002f840 f i libucrtd:output.obj
 0001:0002e870       ??0__crt_stdio_stream@@QEAA@XZ 000000014002f870 f i libucrtd:stream.obj
 0001:0002e870       ??0__crt_deferred_errno_cache@@QEAA@XZ 000000014002f870 f i libucrtd:output.obj
 0001:0002e890       ??0__crt_errno_guard@@QEAA@QEAH@Z 000000014002f890 f i libucrtd:output.obj
 0001:0002e8d0       ??0formatting_buffer@__crt_stdio_output@@QEAA@XZ 000000014002f8d0 f i libucrtd:output.obj
 0001:0002e910       ??1?$common_data@D@__crt_stdio_output@@QEAA@XZ 000000014002f910 f i libucrtd:output.obj
 0001:0002e910       ??1?$common_data@_W@__crt_stdio_output@@QEAA@XZ 000000014002f910 f i libucrtd:output.obj
 0001:0002e930       ??1?$output_processor@_WV?$string_output_adapter@_W@__crt_stdio_output@@V?$standard_base@_WV?$string_output_adapter@_W@__crt_stdio_output@@@2@@__crt_stdio_output@@QEAA@XZ 000000014002f930 f i libucrtd:output.obj
 0001:0002e930       ??1?$format_validation_base@DV?$string_output_adapter@D@__crt_stdio_output@@@__crt_stdio_output@@QEAA@XZ 000000014002f930 f i libucrtd:output.obj
 0001:0002e930       ??1?$output_processor@_WV?$stream_output_adapter@_W@__crt_stdio_output@@V?$standard_base@_WV?$stream_output_adapter@_W@__crt_stdio_output@@@2@@__crt_stdio_output@@QEAA@XZ 000000014002f930 f i libucrtd:output.obj
 0001:0002e930       ??1?$format_validation_base@_WV?$string_output_adapter@_W@__crt_stdio_output@@@__crt_stdio_output@@QEAA@XZ 000000014002f930 f i libucrtd:output.obj
 0001:0002e950       ??1?$output_adapter_data@DV?$string_output_adapter@D@__crt_stdio_output@@@__crt_stdio_output@@QEAA@XZ 000000014002f950 f i libucrtd:output.obj
 0001:0002e950       ??1?$output_adapter_data@_WV?$stream_output_adapter@_W@__crt_stdio_output@@@__crt_stdio_output@@QEAA@XZ 000000014002f950 f i libucrtd:output.obj
 0001:0002e950       ??1?$output_adapter_data@_WV?$string_output_adapter@_W@__crt_stdio_output@@@__crt_stdio_output@@QEAA@XZ 000000014002f950 f i libucrtd:output.obj
 0001:0002e970       ??1?$output_processor@_WV?$string_output_adapter@_W@__crt_stdio_output@@V?$format_validation_base@_WV?$string_output_adapter@_W@__crt_stdio_output@@@2@@__crt_stdio_output@@QEAA@XZ 000000014002f970 f i libucrtd:output.obj
 0001:0002e970       ??1?$output_processor@DV?$string_output_adapter@D@__crt_stdio_output@@V?$format_validation_base@DV?$string_output_adapter@D@__crt_stdio_output@@@2@@__crt_stdio_output@@QEAA@XZ 000000014002f970 f i libucrtd:output.obj
 0001:0002e990       ??1?$standard_base@_WV?$string_output_adapter@_W@__crt_stdio_output@@@__crt_stdio_output@@QEAA@XZ 000000014002f990 f i libucrtd:output.obj
 0001:0002e990       ??1?$standard_base@DV?$string_output_adapter@D@__crt_stdio_output@@@__crt_stdio_output@@QEAA@XZ 000000014002f990 f i libucrtd:output.obj
 0001:0002e990       ??1?$standard_base@_WV?$stream_output_adapter@_W@__crt_stdio_output@@@__crt_stdio_output@@QEAA@XZ 000000014002f990 f i libucrtd:output.obj
 0001:0002e9b0       ??1__crt_errno_guard@@QEAA@XZ 000000014002f9b0 f i libucrtd:output.obj
 0001:0002e9e0       ??1formatting_buffer@__crt_stdio_output@@QEAA@XZ 000000014002f9e0 f i libucrtd:output.obj
 0001:0002ea10       ??4?$__crt_unique_heap_ptr@DU__crt_internal_free_policy@@@@QEAAAEAV0@$$QEAV0@@Z 000000014002fa10 f i libucrtd:output.obj
 0001:0002ea50       ??A?$spectre_mitigated_lookup_table@Ustate_transition_pair@__crt_stdio_output@@$0IA@@__crt_stdio_output@@QEBAAEBUstate_transition_pair@1@_K@Z 000000014002fa50 f i libucrtd:output.obj
 0001:0002eba0       ?adjust_hexit@?$output_processor@DV?$string_output_adapter@D@__crt_stdio_output@@V?$format_validation_base@DV?$string_output_adapter@D@__crt_stdio_output@@@2@@__crt_stdio_output@@CADH_N@Z 000000014002fba0 f i libucrtd:output.obj
 0001:0002eba0       ?adjust_hexit@?$output_processor@_WV?$string_output_adapter@_W@__crt_stdio_output@@V?$format_validation_base@_WV?$string_output_adapter@_W@__crt_stdio_output@@@2@@__crt_stdio_output@@CADH_N@Z 000000014002fba0 f i libucrtd:output.obj
 0001:0002eba0       ?adjust_hexit@?$output_processor@_WV?$stream_output_adapter@_W@__crt_stdio_output@@V?$standard_base@_WV?$stream_output_adapter@_W@__crt_stdio_output@@@2@@__crt_stdio_output@@CADH_N@Z 000000014002fba0 f i libucrtd:output.obj
 0001:0002eba0       ?adjust_hexit@?$output_processor@_WV?$string_output_adapter@_W@__crt_stdio_output@@V?$standard_base@_WV?$string_output_adapter@_W@__crt_stdio_output@@@2@@__crt_stdio_output@@CADH_N@Z 000000014002fba0 f i libucrtd:output.obj
 0001:0002ebf0       ?advance_to_next_pass@?$standard_base@_WV?$string_output_adapter@_W@__crt_stdio_output@@@__crt_stdio_output@@IEAA_NXZ 000000014002fbf0 f i libucrtd:output.obj
 0001:0002ebf0       ?advance_to_next_pass@?$standard_base@DV?$string_output_adapter@D@__crt_stdio_output@@@__crt_stdio_output@@IEAA_NXZ 000000014002fbf0 f i libucrtd:output.obj
 0001:0002ebf0       ?advance_to_next_pass@?$standard_base@_WV?$stream_output_adapter@_W@__crt_stdio_output@@@__crt_stdio_output@@IEAA_NXZ 000000014002fbf0 f i libucrtd:output.obj
 0001:0002ec40       ?crop_zeroes@__crt_stdio_output@@YAXPEADQEAU__crt_locale_pointers@@@Z 000000014002fc40 f i libucrtd:output.obj
 0001:0002ed80       ?find_next_state@?$output_processor@DV?$string_output_adapter@D@__crt_stdio_output@@V?$format_validation_base@DV?$string_output_adapter@D@__crt_stdio_output@@@2@@__crt_stdio_output@@AEBA?AW4state@2@DW432@@Z 000000014002fd80 f i libucrtd:output.obj
 0001:0002ee10       ?find_next_state@?$output_processor@_WV?$string_output_adapter@_W@__crt_stdio_output@@V?$standard_base@_WV?$string_output_adapter@_W@__crt_stdio_output@@@2@@__crt_stdio_output@@AEBA?AW4state@2@_WW432@@Z 000000014002fe10 f i libucrtd:output.obj
 0001:0002ee10       ?find_next_state@?$output_processor@_WV?$stream_output_adapter@_W@__crt_stdio_output@@V?$standard_base@_WV?$stream_output_adapter@_W@__crt_stdio_output@@@2@@__crt_stdio_output@@AEBA?AW4state@2@_WW432@@Z 000000014002fe10 f i libucrtd:output.obj
 0001:0002eea0       ?find_next_state@?$output_processor@_WV?$string_output_adapter@_W@__crt_stdio_output@@V?$format_validation_base@_WV?$string_output_adapter@_W@__crt_stdio_output@@@2@@__crt_stdio_output@@AEBA?AW4state@2@_WW432@@Z 000000014002fea0 f i libucrtd:output.obj
 0001:0002ef30       ?force_decimal_point@__crt_stdio_output@@YAXPEADQEAU__crt_locale_pointers@@@Z 000000014002ff30 f i libucrtd:output.obj
 0001:0002f030       ?get@__crt_deferred_errno_cache@@QEAAAEAHXZ 0000000140030030 f i libucrtd:output.obj
 0001:0002f060       ?has_flag@?$output_processor@_WV?$string_output_adapter@_W@__crt_stdio_output@@V?$format_validation_base@_WV?$string_output_adapter@_W@__crt_stdio_output@@@2@@__crt_stdio_output@@AEBA_NI@Z 0000000140030060 f i libucrtd:output.obj
 0001:0002f060       ?has_flag@?$output_processor@_WV?$string_output_adapter@_W@__crt_stdio_output@@V?$standard_base@_WV?$string_output_adapter@_W@__crt_stdio_output@@@2@@__crt_stdio_output@@AEBA_NI@Z 0000000140030060 f i libucrtd:output.obj
 0001:0002f060       ?has_flag@?$output_processor@_WV?$stream_output_adapter@_W@__crt_stdio_output@@V?$standard_base@_WV?$stream_output_adapter@_W@__crt_stdio_output@@@2@@__crt_stdio_output@@AEBA_NI@Z 0000000140030060 f i libucrtd:output.obj
 0001:0002f060       ?has_flag@?$output_processor@DV?$string_output_adapter@D@__crt_stdio_output@@V?$format_validation_base@DV?$string_output_adapter@D@__crt_stdio_output@@@2@@__crt_stdio_output@@AEBA_NI@Z 0000000140030060 f i libucrtd:output.obj
 0001:0002f0a0       ?narrow_null_string@?$output_processor@_WV?$stream_output_adapter@_W@__crt_stdio_output@@V?$standard_base@_WV?$stream_output_adapter@_W@__crt_stdio_output@@@2@@__crt_stdio_output@@CAPEADXZ 00000001400300a0 f i libucrtd:output.obj
 0001:0002f0a0       ?narrow_null_string@?$output_processor@_WV?$string_output_adapter@_W@__crt_stdio_output@@V?$format_validation_base@_WV?$string_output_adapter@_W@__crt_stdio_output@@@2@@__crt_stdio_output@@CAPEADXZ 00000001400300a0 f i libucrtd:output.obj
 0001:0002f0a0       ?narrow_null_string@?$output_processor@DV?$string_output_adapter@D@__crt_stdio_output@@V?$format_validation_base@DV?$string_output_adapter@D@__crt_stdio_output@@@2@@__crt_stdio_output@@CAPEADXZ 00000001400300a0 f i libucrtd:output.obj
 0001:0002f0a0       ?narrow_null_string@?$output_processor@_WV?$string_output_adapter@_W@__crt_stdio_output@@V?$standard_base@_WV?$string_output_adapter@_W@__crt_stdio_output@@@2@@__crt_stdio_output@@CAPEADXZ 00000001400300a0 f i libucrtd:output.obj
 0001:0002f0b0       ?parse_int_from_format_string@?$output_processor@DV?$string_output_adapter@D@__crt_stdio_output@@V?$format_validation_base@DV?$string_output_adapter@D@__crt_stdio_output@@@2@@__crt_stdio_output@@AEAA_NQEAH@Z 00000001400300b0 f i libucrtd:output.obj
 0001:0002f1a0       ?parse_int_from_format_string@?$output_processor@_WV?$string_output_adapter@_W@__crt_stdio_output@@V?$standard_base@_WV?$string_output_adapter@_W@__crt_stdio_output@@@2@@__crt_stdio_output@@AEAA_NQEAH@Z 00000001400301a0 f i libucrtd:output.obj
 0001:0002f1a0       ?parse_int_from_format_string@?$output_processor@_WV?$string_output_adapter@_W@__crt_stdio_output@@V?$format_validation_base@_WV?$string_output_adapter@_W@__crt_stdio_output@@@2@@__crt_stdio_output@@AEAA_NQEAH@Z 00000001400301a0 f i libucrtd:output.obj
 0001:0002f1a0       ?parse_int_from_format_string@?$output_processor@_WV?$stream_output_adapter@_W@__crt_stdio_output@@V?$standard_base@_WV?$stream_output_adapter@_W@__crt_stdio_output@@@2@@__crt_stdio_output@@AEAA_NQEAH@Z 00000001400301a0 f i libucrtd:output.obj
 0001:0002f290       ?process@?$output_processor@DV?$string_output_adapter@D@__crt_stdio_output@@V?$format_validation_base@DV?$string_output_adapter@D@__crt_stdio_output@@@2@@__crt_stdio_output@@QEAAHXZ 0000000140030290 f i libucrtd:output.obj
 0001:0002f5f0       ?process@?$output_processor@_WV?$stream_output_adapter@_W@__crt_stdio_output@@V?$standard_base@_WV?$stream_output_adapter@_W@__crt_stdio_output@@@2@@__crt_stdio_output@@QEAAHXZ 00000001400305f0 f i libucrtd:output.obj
 0001:0002f950       ?process@?$output_processor@_WV?$string_output_adapter@_W@__crt_stdio_output@@V?$format_validation_base@_WV?$string_output_adapter@_W@__crt_stdio_output@@@2@@__crt_stdio_output@@QEAAHXZ 0000000140030950 f i libucrtd:output.obj
 0001:0002fcb0       ?process@?$output_processor@_WV?$string_output_adapter@_W@__crt_stdio_output@@V?$standard_base@_WV?$string_output_adapter@_W@__crt_stdio_output@@@2@@__crt_stdio_output@@QEAAHXZ 0000000140030cb0 f i libucrtd:output.obj
 0001:00030010       ?set_flag@?$output_processor@_WV?$string_output_adapter@_W@__crt_stdio_output@@V?$standard_base@_WV?$string_output_adapter@_W@__crt_stdio_output@@@2@@__crt_stdio_output@@AEAAXI@Z 0000000140031010 f i libucrtd:output.obj
 0001:00030010       ?set_flag@?$output_processor@DV?$string_output_adapter@D@__crt_stdio_output@@V?$format_validation_base@DV?$string_output_adapter@D@__crt_stdio_output@@@2@@__crt_stdio_output@@AEAAXI@Z 0000000140031010 f i libucrtd:output.obj
 0001:00030010       ?set_flag@?$output_processor@_WV?$stream_output_adapter@_W@__crt_stdio_output@@V?$standard_base@_WV?$stream_output_adapter@_W@__crt_stdio_output@@@2@@__crt_stdio_output@@AEAAXI@Z 0000000140031010 f i libucrtd:output.obj
 0001:00030010       ?set_flag@?$output_processor@_WV?$string_output_adapter@_W@__crt_stdio_output@@V?$format_validation_base@_WV?$string_output_adapter@_W@__crt_stdio_output@@@2@@__crt_stdio_output@@AEAAXI@Z 0000000140031010 f i libucrtd:output.obj
 0001:00030030       ?validate_stream_is_ansi_if_required@?$__acrt_stdio_char_traits@_W@@SA_NQEAU_iobuf@@@Z 0000000140031030 f i libucrtd:output.obj
 0001:00030030       ?validate_and_update_state_at_end_of_format_string@?$standard_base@_WV?$string_output_adapter@_W@__crt_stdio_output@@@__crt_stdio_output@@IEBA_NXZ 0000000140031030 f i libucrtd:output.obj
 0001:00030030       ?validate_state_for_type_case_a@?$standard_base@DV?$string_output_adapter@D@__crt_stdio_output@@@__crt_stdio_output@@IEBA_NXZ 0000000140031030 f i libucrtd:output.obj
 0001:00030030       ?validate_and_update_state_at_beginning_of_format_character@?$standard_base@_WV?$string_output_adapter@_W@__crt_stdio_output@@@__crt_stdio_output@@IEAA_NXZ 0000000140031030 f i libucrtd:output.obj
 0001:00030030       ?should_format@?$standard_base@_WV?$string_output_adapter@_W@__crt_stdio_output@@@__crt_stdio_output@@IEAA_NXZ 0000000140031030 f i libucrtd:output.obj
 0001:00030030       ?validate_state_for_type_case_a@?$standard_base@_WV?$stream_output_adapter@_W@__crt_stdio_output@@@__crt_stdio_output@@IEBA_NXZ 0000000140031030 f i libucrtd:output.obj
 0001:00030030       ?validate_and_update_state_at_beginning_of_format_character@?$standard_base@DV?$string_output_adapter@D@__crt_stdio_output@@@__crt_stdio_output@@IEAA_NXZ 0000000140031030 f i libucrtd:output.obj
 0001:00030030       ?should_format@?$standard_base@DV?$string_output_adapter@D@__crt_stdio_output@@@__crt_stdio_output@@IEAA_NXZ 0000000140031030 f i libucrtd:output.obj
 0001:00030030       ?validate_state_for_type_case_a@?$standard_base@_WV?$string_output_adapter@_W@__crt_stdio_output@@@__crt_stdio_output@@IEBA_NXZ 0000000140031030 f i libucrtd:output.obj
 0001:00030030       ?validate_and_update_state_at_beginning_of_format_character@?$standard_base@_WV?$stream_output_adapter@_W@__crt_stdio_output@@@__crt_stdio_output@@IEAA_NXZ 0000000140031030 f i libucrtd:output.obj
 0001:00030030       ?validate_and_update_state_at_end_of_format_string@?$standard_base@_WV?$stream_output_adapter@_W@__crt_stdio_output@@@__crt_stdio_output@@IEBA_NXZ 0000000140031030 f i libucrtd:output.obj
 0001:00030030       ?should_format@?$standard_base@_WV?$stream_output_adapter@_W@__crt_stdio_output@@@__crt_stdio_output@@IEAA_NXZ 0000000140031030 f i libucrtd:output.obj
 0001:00030040       ?should_skip_normal_state_processing@?$standard_base@_WV?$stream_output_adapter@_W@__crt_stdio_output@@@__crt_stdio_output@@IEAA_NXZ 0000000140031040 f i libucrtd:output.obj
 0001:00030040       ?should_skip_type_state_output@?$standard_base@_WV?$string_output_adapter@_W@__crt_stdio_output@@@__crt_stdio_output@@IEBA_NXZ 0000000140031040 f i libucrtd:output.obj
 0001:00030040       ?should_skip_type_state_output@?$standard_base@DV?$string_output_adapter@D@__crt_stdio_output@@@__crt_stdio_output@@IEBA_NXZ 0000000140031040 f i libucrtd:output.obj
 0001:00030040       ?should_skip_normal_state_processing@?$standard_base@DV?$string_output_adapter@D@__crt_stdio_output@@@__crt_stdio_output@@IEAA_NXZ 0000000140031040 f i libucrtd:output.obj
 0001:00030040       ?should_skip_normal_state_processing@?$standard_base@_WV?$string_output_adapter@_W@__crt_stdio_output@@@__crt_stdio_output@@IEAA_NXZ 0000000140031040 f i libucrtd:output.obj
 0001:00030040       ?should_skip_type_state_output@?$standard_base@_WV?$stream_output_adapter@_W@__crt_stdio_output@@@__crt_stdio_output@@IEBA_NXZ 0000000140031040 f i libucrtd:output.obj
 0001:00030050       ?state_case_dot@?$output_processor@_WV?$string_output_adapter@_W@__crt_stdio_output@@V?$format_validation_base@_WV?$string_output_adapter@_W@__crt_stdio_output@@@2@@__crt_stdio_output@@AEAA_NXZ 0000000140031050 f i libucrtd:output.obj
 0001:00030050       ?state_case_dot@?$output_processor@_WV?$string_output_adapter@_W@__crt_stdio_output@@V?$standard_base@_WV?$string_output_adapter@_W@__crt_stdio_output@@@2@@__crt_stdio_output@@AEAA_NXZ 0000000140031050 f i libucrtd:output.obj
 0001:00030050       ?state_case_dot@?$output_processor@_WV?$stream_output_adapter@_W@__crt_stdio_output@@V?$standard_base@_WV?$stream_output_adapter@_W@__crt_stdio_output@@@2@@__crt_stdio_output@@AEAA_NXZ 0000000140031050 f i libucrtd:output.obj
 0001:00030050       ?state_case_dot@?$output_processor@DV?$string_output_adapter@D@__crt_stdio_output@@V?$format_validation_base@DV?$string_output_adapter@D@__crt_stdio_output@@@2@@__crt_stdio_output@@AEAA_NXZ 0000000140031050 f i libucrtd:output.obj
 0001:00030070       ?state_case_flag@?$output_processor@DV?$string_output_adapter@D@__crt_stdio_output@@V?$format_validation_base@DV?$string_output_adapter@D@__crt_stdio_output@@@2@@__crt_stdio_output@@AEAA_NXZ 0000000140031070 f i libucrtd:output.obj
 0001:00030110       ?state_case_flag@?$output_processor@_WV?$string_output_adapter@_W@__crt_stdio_output@@V?$standard_base@_WV?$string_output_adapter@_W@__crt_stdio_output@@@2@@__crt_stdio_output@@AEAA_NXZ 0000000140031110 f i libucrtd:output.obj
 0001:00030110       ?state_case_flag@?$output_processor@_WV?$stream_output_adapter@_W@__crt_stdio_output@@V?$standard_base@_WV?$stream_output_adapter@_W@__crt_stdio_output@@@2@@__crt_stdio_output@@AEAA_NXZ 0000000140031110 f i libucrtd:output.obj
 0001:00030110       ?state_case_flag@?$output_processor@_WV?$string_output_adapter@_W@__crt_stdio_output@@V?$format_validation_base@_WV?$string_output_adapter@_W@__crt_stdio_output@@@2@@__crt_stdio_output@@AEAA_NXZ 0000000140031110 f i libucrtd:output.obj
 0001:000301b0       ?state_case_normal@?$output_processor@DV?$string_output_adapter@D@__crt_stdio_output@@V?$format_validation_base@DV?$string_output_adapter@D@__crt_stdio_output@@@2@@__crt_stdio_output@@AEAA_NXZ 00000001400311b0 f i libucrtd:output.obj
 0001:00030290       ?state_case_normal@?$output_processor@_WV?$stream_output_adapter@_W@__crt_stdio_output@@V?$standard_base@_WV?$stream_output_adapter@_W@__crt_stdio_output@@@2@@__crt_stdio_output@@AEAA_NXZ 0000000140031290 f i libucrtd:output.obj
 0001:00030370       ?state_case_normal@?$output_processor@_WV?$string_output_adapter@_W@__crt_stdio_output@@V?$format_validation_base@_WV?$string_output_adapter@_W@__crt_stdio_output@@@2@@__crt_stdio_output@@AEAA_NXZ 0000000140031370 f i libucrtd:output.obj
 0001:00030450       ?state_case_normal@?$output_processor@_WV?$string_output_adapter@_W@__crt_stdio_output@@V?$standard_base@_WV?$string_output_adapter@_W@__crt_stdio_output@@@2@@__crt_stdio_output@@AEAA_NXZ 0000000140031450 f i libucrtd:output.obj
 0001:00030530       ?state_case_normal_common@?$output_processor@DV?$string_output_adapter@D@__crt_stdio_output@@V?$format_validation_base@DV?$string_output_adapter@D@__crt_stdio_output@@@2@@__crt_stdio_output@@AEAA_NXZ 0000000140031530 f i libucrtd:output.obj
 0001:00030580       ?state_case_normal_common@?$output_processor@_WV?$stream_output_adapter@_W@__crt_stdio_output@@V?$standard_base@_WV?$stream_output_adapter@_W@__crt_stdio_output@@@2@@__crt_stdio_output@@AEAA_NXZ 0000000140031580 f i libucrtd:output.obj
 0001:000305d0       ?state_case_normal_common@?$output_processor@_WV?$string_output_adapter@_W@__crt_stdio_output@@V?$format_validation_base@_WV?$string_output_adapter@_W@__crt_stdio_output@@@2@@__crt_stdio_output@@AEAA_NXZ 00000001400315d0 f i libucrtd:output.obj
 0001:000305d0       ?state_case_normal_common@?$output_processor@_WV?$string_output_adapter@_W@__crt_stdio_output@@V?$standard_base@_WV?$string_output_adapter@_W@__crt_stdio_output@@@2@@__crt_stdio_output@@AEAA_NXZ 00000001400315d0 f i libucrtd:output.obj
 0001:00030620       ?state_case_normal_tchar@?$output_processor@DV?$string_output_adapter@D@__crt_stdio_output@@V?$format_validation_base@DV?$string_output_adapter@D@__crt_stdio_output@@@2@@__crt_stdio_output@@AEAA_ND@Z 0000000140031620 f i libucrtd:output.obj
 0001:00030760       ?state_case_normal_tchar@?$output_processor@_WV?$string_output_adapter@_W@__crt_stdio_output@@V?$format_validation_base@_WV?$string_output_adapter@_W@__crt_stdio_output@@@2@@__crt_stdio_output@@AEAA_N_W@Z 0000000140031760 f i libucrtd:output.obj
 0001:00030760       ?state_case_normal_tchar@?$output_processor@_WV?$string_output_adapter@_W@__crt_stdio_output@@V?$standard_base@_WV?$string_output_adapter@_W@__crt_stdio_output@@@2@@__crt_stdio_output@@AEAA_N_W@Z 0000000140031760 f i libucrtd:output.obj
 0001:00030760       ?state_case_normal_tchar@?$output_processor@_WV?$stream_output_adapter@_W@__crt_stdio_output@@V?$standard_base@_WV?$stream_output_adapter@_W@__crt_stdio_output@@@2@@__crt_stdio_output@@AEAA_N_W@Z 0000000140031760 f i libucrtd:output.obj
 0001:00030780       ?state_case_percent@?$output_processor@_WV?$stream_output_adapter@_W@__crt_stdio_output@@V?$standard_base@_WV?$stream_output_adapter@_W@__crt_stdio_output@@@2@@__crt_stdio_output@@AEAA_NXZ 0000000140031780 f i libucrtd:output.obj
 0001:00030780       ?state_case_percent@?$output_processor@_WV?$string_output_adapter@_W@__crt_stdio_output@@V?$format_validation_base@_WV?$string_output_adapter@_W@__crt_stdio_output@@@2@@__crt_stdio_output@@AEAA_NXZ 0000000140031780 f i libucrtd:output.obj
 0001:00030780       ?state_case_percent@?$output_processor@DV?$string_output_adapter@D@__crt_stdio_output@@V?$format_validation_base@DV?$string_output_adapter@D@__crt_stdio_output@@@2@@__crt_stdio_output@@AEAA_NXZ 0000000140031780 f i libucrtd:output.obj
 0001:00030780       ?state_case_percent@?$output_processor@_WV?$string_output_adapter@_W@__crt_stdio_output@@V?$standard_base@_WV?$string_output_adapter@_W@__crt_stdio_output@@@2@@__crt_stdio_output@@AEAA_NXZ 0000000140031780 f i libucrtd:output.obj
 0001:000307d0       ?state_case_precision@?$output_processor@DV?$string_output_adapter@D@__crt_stdio_output@@V?$format_validation_base@DV?$string_output_adapter@D@__crt_stdio_output@@@2@@__crt_stdio_output@@AEAA_NXZ 00000001400317d0 f i libucrtd:output.obj
 0001:00030850       ?state_case_precision@?$output_processor@_WV?$stream_output_adapter@_W@__crt_stdio_output@@V?$standard_base@_WV?$stream_output_adapter@_W@__crt_stdio_output@@@2@@__crt_stdio_output@@AEAA_NXZ 0000000140031850 f i libucrtd:output.obj
 0001:00030850       ?state_case_precision@?$output_processor@_WV?$string_output_adapter@_W@__crt_stdio_output@@V?$standard_base@_WV?$string_output_adapter@_W@__crt_stdio_output@@@2@@__crt_stdio_output@@AEAA_NXZ 0000000140031850 f i libucrtd:output.obj
 0001:00030850       ?state_case_precision@?$output_processor@_WV?$string_output_adapter@_W@__crt_stdio_output@@V?$format_validation_base@_WV?$string_output_adapter@_W@__crt_stdio_output@@@2@@__crt_stdio_output@@AEAA_NXZ 0000000140031850 f i libucrtd:output.obj
 0001:000308d0       ?state_case_size@?$output_processor@DV?$string_output_adapter@D@__crt_stdio_output@@V?$format_validation_base@DV?$string_output_adapter@D@__crt_stdio_output@@@2@@__crt_stdio_output@@AEAA_NXZ 00000001400318d0 f i libucrtd:output.obj
 0001:00030d50       ?state_case_size@?$output_processor@_WV?$stream_output_adapter@_W@__crt_stdio_output@@V?$standard_base@_WV?$stream_output_adapter@_W@__crt_stdio_output@@@2@@__crt_stdio_output@@AEAA_NXZ 0000000140031d50 f i libucrtd:output.obj
 0001:000311d0       ?state_case_size@?$output_processor@_WV?$string_output_adapter@_W@__crt_stdio_output@@V?$format_validation_base@_WV?$string_output_adapter@_W@__crt_stdio_output@@@2@@__crt_stdio_output@@AEAA_NXZ 00000001400321d0 f i libucrtd:output.obj
 0001:00031650       ?state_case_size@?$output_processor@_WV?$string_output_adapter@_W@__crt_stdio_output@@V?$standard_base@_WV?$string_output_adapter@_W@__crt_stdio_output@@@2@@__crt_stdio_output@@AEAA_NXZ 0000000140032650 f i libucrtd:output.obj
 0001:00031ad0       ?state_case_type@?$output_processor@DV?$string_output_adapter@D@__crt_stdio_output@@V?$format_validation_base@DV?$string_output_adapter@D@__crt_stdio_output@@@2@@__crt_stdio_output@@AEAA_NXZ 0000000140032ad0 f i libucrtd:output.obj
 0001:00031f70       ?state_case_type@?$output_processor@_WV?$stream_output_adapter@_W@__crt_stdio_output@@V?$standard_base@_WV?$stream_output_adapter@_W@__crt_stdio_output@@@2@@__crt_stdio_output@@AEAA_NXZ 0000000140032f70 f i libucrtd:output.obj
 0001:000324d0       ?state_case_type@?$output_processor@_WV?$string_output_adapter@_W@__crt_stdio_output@@V?$format_validation_base@_WV?$string_output_adapter@_W@__crt_stdio_output@@@2@@__crt_stdio_output@@AEAA_NXZ 00000001400334d0 f i libucrtd:output.obj
 0001:00032a30       ?state_case_type@?$output_processor@_WV?$string_output_adapter@_W@__crt_stdio_output@@V?$standard_base@_WV?$string_output_adapter@_W@__crt_stdio_output@@@2@@__crt_stdio_output@@AEAA_NXZ 0000000140033a30 f i libucrtd:output.obj
 0001:00032f90       ?state_case_width@?$output_processor@DV?$string_output_adapter@D@__crt_stdio_output@@V?$format_validation_base@DV?$string_output_adapter@D@__crt_stdio_output@@@2@@__crt_stdio_output@@AEAA_NXZ 0000000140033f90 f i libucrtd:output.obj
 0001:00033020       ?state_case_width@?$output_processor@_WV?$stream_output_adapter@_W@__crt_stdio_output@@V?$standard_base@_WV?$stream_output_adapter@_W@__crt_stdio_output@@@2@@__crt_stdio_output@@AEAA_NXZ 0000000140034020 f i libucrtd:output.obj
 0001:00033020       ?state_case_width@?$output_processor@_WV?$string_output_adapter@_W@__crt_stdio_output@@V?$standard_base@_WV?$string_output_adapter@_W@__crt_stdio_output@@@2@@__crt_stdio_output@@AEAA_NXZ 0000000140034020 f i libucrtd:output.obj
 0001:00033020       ?state_case_width@?$output_processor@_WV?$string_output_adapter@_W@__crt_stdio_output@@V?$format_validation_base@_WV?$string_output_adapter@_W@__crt_stdio_output@@@2@@__crt_stdio_output@@AEAA_NXZ 0000000140034020 f i libucrtd:output.obj
 0001:000330b0       ?state_count@?$format_validation_base@DV?$string_output_adapter@D@__crt_stdio_output@@@__crt_stdio_output@@KAIXZ 00000001400340b0 f i libucrtd:output.obj
 0001:000330b0       ?state_count@?$format_validation_base@_WV?$string_output_adapter@_W@__crt_stdio_output@@@__crt_stdio_output@@KAIXZ 00000001400340b0 f i libucrtd:output.obj
 0001:000330c0       ?state_count@?$standard_base@_WV?$string_output_adapter@_W@__crt_stdio_output@@@__crt_stdio_output@@KAIXZ 00000001400340c0 f i libucrtd:output.obj
 0001:000330c0       ?state_count@?$standard_base@_WV?$stream_output_adapter@_W@__crt_stdio_output@@@__crt_stdio_output@@KAIXZ 00000001400340c0 f i libucrtd:output.obj
 0001:000330d0       ?state_transition_table@?$format_validation_base@DV?$string_output_adapter@D@__crt_stdio_output@@@__crt_stdio_output@@KAAEBV?$spectre_mitigated_lookup_table@Ustate_transition_pair@__crt_stdio_output@@$0IA@@2@XZ 00000001400340d0 f i libucrtd:output.obj
 0001:000330d0       ?state_transition_table@?$format_validation_base@_WV?$string_output_adapter@_W@__crt_stdio_output@@@__crt_stdio_output@@KAAEBV?$spectre_mitigated_lookup_table@Ustate_transition_pair@__crt_stdio_output@@$0IA@@2@XZ 00000001400340d0 f i libucrtd:output.obj
 0001:000330e0       ?state_transition_table@?$standard_base@_WV?$stream_output_adapter@_W@__crt_stdio_output@@@__crt_stdio_output@@KAAEBV?$spectre_mitigated_lookup_table@Ustate_transition_pair@__crt_stdio_output@@$0IA@@2@XZ 00000001400340e0 f i libucrtd:output.obj
 0001:000330e0       ?state_transition_table@?$standard_base@_WV?$string_output_adapter@_W@__crt_stdio_output@@@__crt_stdio_output@@KAAEBV?$spectre_mitigated_lookup_table@Ustate_transition_pair@__crt_stdio_output@@$0IA@@2@XZ 00000001400340e0 f i libucrtd:output.obj
 0001:000330f0       ?tchar_string@?$common_data@D@__crt_stdio_output@@IEAAAEAPEADD@Z 00000001400340f0 f i libucrtd:output.obj
 0001:00033110       ?tchar_string@?$common_data@D@__crt_stdio_output@@IEAAAEAPEADXZ 0000000140034110 f i libucrtd:output.obj
 0001:00033130       ?tchar_string@?$common_data@_W@__crt_stdio_output@@IEAAAEAPEA_WXZ 0000000140034130 f i libucrtd:output.obj
 0001:00033150       ?tchar_string@?$common_data@_W@__crt_stdio_output@@IEAAAEAPEA_W_W@Z 0000000140034150 f i libucrtd:output.obj
 0001:00033170       ?to_integer_size@__crt_stdio_output@@YA_KW4length_modifier@1@@Z 0000000140034170 f i libucrtd:output.obj
 0001:00033220       ?type_case_X@?$output_processor@DV?$string_output_adapter@D@__crt_stdio_output@@V?$format_validation_base@DV?$string_output_adapter@D@__crt_stdio_output@@@2@@__crt_stdio_output@@AEAA_NXZ 0000000140034220 f i libucrtd:output.obj
 0001:00033240       ?type_case_X@?$output_processor@_WV?$stream_output_adapter@_W@__crt_stdio_output@@V?$standard_base@_WV?$stream_output_adapter@_W@__crt_stdio_output@@@2@@__crt_stdio_output@@AEAA_NXZ 0000000140034240 f i libucrtd:output.obj
 0001:00033260       ?type_case_X@?$output_processor@_WV?$string_output_adapter@_W@__crt_stdio_output@@V?$format_validation_base@_WV?$string_output_adapter@_W@__crt_stdio_output@@@2@@__crt_stdio_output@@AEAA_NXZ 0000000140034260 f i libucrtd:output.obj
 0001:00033280       ?type_case_X@?$output_processor@_WV?$string_output_adapter@_W@__crt_stdio_output@@V?$standard_base@_WV?$string_output_adapter@_W@__crt_stdio_output@@@2@@__crt_stdio_output@@AEAA_NXZ 0000000140034280 f i libucrtd:output.obj
 0001:000332a0       ?type_case_Z@?$output_processor@DV?$string_output_adapter@D@__crt_stdio_output@@V?$format_validation_base@DV?$string_output_adapter@D@__crt_stdio_output@@@2@@__crt_stdio_output@@AEAA_NXZ 00000001400342a0 f i libucrtd:output.obj
 0001:000333c0       ?type_case_Z@?$output_processor@_WV?$string_output_adapter@_W@__crt_stdio_output@@V?$format_validation_base@_WV?$string_output_adapter@_W@__crt_stdio_output@@@2@@__crt_stdio_output@@AEAA_NXZ 00000001400343c0 f i libucrtd:output.obj
 0001:000333c0       ?type_case_Z@?$output_processor@_WV?$string_output_adapter@_W@__crt_stdio_output@@V?$standard_base@_WV?$string_output_adapter@_W@__crt_stdio_output@@@2@@__crt_stdio_output@@AEAA_NXZ 00000001400343c0 f i libucrtd:output.obj
 0001:000333c0       ?type_case_Z@?$output_processor@_WV?$stream_output_adapter@_W@__crt_stdio_output@@V?$standard_base@_WV?$stream_output_adapter@_W@__crt_stdio_output@@@2@@__crt_stdio_output@@AEAA_NXZ 00000001400343c0 f i libucrtd:output.obj
 0001:000334e0       ?type_case_a@?$output_processor@DV?$string_output_adapter@D@__crt_stdio_output@@V?$format_validation_base@DV?$string_output_adapter@D@__crt_stdio_output@@@2@@__crt_stdio_output@@AEAA_NXZ 00000001400344e0 f i libucrtd:output.obj
 0001:000338b0       ?type_case_a@?$output_processor@_WV?$string_output_adapter@_W@__crt_stdio_output@@V?$standard_base@_WV?$string_output_adapter@_W@__crt_stdio_output@@@2@@__crt_stdio_output@@AEAA_NXZ 00000001400348b0 f i libucrtd:output.obj
 0001:000338b0       ?type_case_a@?$output_processor@_WV?$string_output_adapter@_W@__crt_stdio_output@@V?$format_validation_base@_WV?$string_output_adapter@_W@__crt_stdio_output@@@2@@__crt_stdio_output@@AEAA_NXZ 00000001400348b0 f i libucrtd:output.obj
 0001:000338b0       ?type_case_a@?$output_processor@_WV?$stream_output_adapter@_W@__crt_stdio_output@@V?$standard_base@_WV?$stream_output_adapter@_W@__crt_stdio_output@@@2@@__crt_stdio_output@@AEAA_NXZ 00000001400348b0 f i libucrtd:output.obj
 0001:00033c80       ?type_case_c@?$output_processor@DV?$string_output_adapter@D@__crt_stdio_output@@V?$format_validation_base@DV?$string_output_adapter@D@__crt_stdio_output@@@2@@__crt_stdio_output@@AEAA_NXZ 0000000140034c80 f i libucrtd:output.obj
 0001:00033ca0       ?type_case_c@?$output_processor@_WV?$string_output_adapter@_W@__crt_stdio_output@@V?$format_validation_base@_WV?$string_output_adapter@_W@__crt_stdio_output@@@2@@__crt_stdio_output@@AEAA_NXZ 0000000140034ca0 f i libucrtd:output.obj
 0001:00033ca0       ?type_case_c@?$output_processor@_WV?$string_output_adapter@_W@__crt_stdio_output@@V?$standard_base@_WV?$string_output_adapter@_W@__crt_stdio_output@@@2@@__crt_stdio_output@@AEAA_NXZ 0000000140034ca0 f i libucrtd:output.obj
 0001:00033ca0       ?type_case_c@?$output_processor@_WV?$stream_output_adapter@_W@__crt_stdio_output@@V?$standard_base@_WV?$stream_output_adapter@_W@__crt_stdio_output@@@2@@__crt_stdio_output@@AEAA_NXZ 0000000140034ca0 f i libucrtd:output.obj
 0001:00033cc0       ?type_case_c_tchar@?$output_processor@DV?$string_output_adapter@D@__crt_stdio_output@@V?$format_validation_base@DV?$string_output_adapter@D@__crt_stdio_output@@@2@@__crt_stdio_output@@AEAA_ND@Z 0000000140034cc0 f i libucrtd:output.obj
 0001:00033e20       ?type_case_c_tchar@?$output_processor@_WV?$string_output_adapter@_W@__crt_stdio_output@@V?$standard_base@_WV?$string_output_adapter@_W@__crt_stdio_output@@@2@@__crt_stdio_output@@AEAA_N_W@Z 0000000140034e20 f i libucrtd:output.obj
 0001:00033e20       ?type_case_c_tchar@?$output_processor@_WV?$stream_output_adapter@_W@__crt_stdio_output@@V?$standard_base@_WV?$stream_output_adapter@_W@__crt_stdio_output@@@2@@__crt_stdio_output@@AEAA_N_W@Z 0000000140034e20 f i libucrtd:output.obj
 0001:00033e20       ?type_case_c_tchar@?$output_processor@_WV?$string_output_adapter@_W@__crt_stdio_output@@V?$format_validation_base@_WV?$string_output_adapter@_W@__crt_stdio_output@@@2@@__crt_stdio_output@@AEAA_N_W@Z 0000000140034e20 f i libucrtd:output.obj
 0001:00033f50       ?type_case_d@?$output_processor@DV?$string_output_adapter@D@__crt_stdio_output@@V?$format_validation_base@DV?$string_output_adapter@D@__crt_stdio_output@@@2@@__crt_stdio_output@@AEAA_NXZ 0000000140034f50 f i libucrtd:output.obj
 0001:00033f80       ?type_case_d@?$output_processor@_WV?$stream_output_adapter@_W@__crt_stdio_output@@V?$standard_base@_WV?$stream_output_adapter@_W@__crt_stdio_output@@@2@@__crt_stdio_output@@AEAA_NXZ 0000000140034f80 f i libucrtd:output.obj
 0001:00033fb0       ?type_case_d@?$output_processor@_WV?$string_output_adapter@_W@__crt_stdio_output@@V?$format_validation_base@_WV?$string_output_adapter@_W@__crt_stdio_output@@@2@@__crt_stdio_output@@AEAA_NXZ 0000000140034fb0 f i libucrtd:output.obj
 0001:00033fe0       ?type_case_d@?$output_processor@_WV?$string_output_adapter@_W@__crt_stdio_output@@V?$standard_base@_WV?$string_output_adapter@_W@__crt_stdio_output@@@2@@__crt_stdio_output@@AEAA_NXZ 0000000140034fe0 f i libucrtd:output.obj
 0001:00034010       ?type_case_integer@?$output_processor@DV?$string_output_adapter@D@__crt_stdio_output@@V?$format_validation_base@DV?$string_output_adapter@D@__crt_stdio_output@@@2@@__crt_stdio_output@@AEAA_NI_N@Z 0000000140035010 f i libucrtd:output.obj
 0001:00034460       ?type_case_integer@?$output_processor@_WV?$stream_output_adapter@_W@__crt_stdio_output@@V?$standard_base@_WV?$stream_output_adapter@_W@__crt_stdio_output@@@2@@__crt_stdio_output@@AEAA_NI_N@Z 0000000140035460 f i libucrtd:output.obj
 0001:000348b0       ?type_case_integer@?$output_processor@_WV?$string_output_adapter@_W@__crt_stdio_output@@V?$format_validation_base@_WV?$string_output_adapter@_W@__crt_stdio_output@@@2@@__crt_stdio_output@@AEAA_NI_N@Z 00000001400358b0 f i libucrtd:output.obj
 0001:00034d00       ?type_case_integer@?$output_processor@_WV?$string_output_adapter@_W@__crt_stdio_output@@V?$standard_base@_WV?$string_output_adapter@_W@__crt_stdio_output@@@2@@__crt_stdio_output@@AEAA_NI_N@Z 0000000140035d00 f i libucrtd:output.obj
 0001:00035150       ?type_case_n@?$output_processor@DV?$string_output_adapter@D@__crt_stdio_output@@V?$format_validation_base@DV?$string_output_adapter@D@__crt_stdio_output@@@2@@__crt_stdio_output@@AEAA_NXZ 0000000140036150 f i libucrtd:output.obj
 0001:00035390       ?type_case_n@?$output_processor@_WV?$stream_output_adapter@_W@__crt_stdio_output@@V?$standard_base@_WV?$stream_output_adapter@_W@__crt_stdio_output@@@2@@__crt_stdio_output@@AEAA_NXZ 0000000140036390 f i libucrtd:output.obj
 0001:000355d0       ?type_case_n@?$output_processor@_WV?$string_output_adapter@_W@__crt_stdio_output@@V?$format_validation_base@_WV?$string_output_adapter@_W@__crt_stdio_output@@@2@@__crt_stdio_output@@AEAA_NXZ 00000001400365d0 f i libucrtd:output.obj
 0001:00035810       ?type_case_n@?$output_processor@_WV?$string_output_adapter@_W@__crt_stdio_output@@V?$standard_base@_WV?$string_output_adapter@_W@__crt_stdio_output@@@2@@__crt_stdio_output@@AEAA_NXZ 0000000140036810 f i libucrtd:output.obj
 0001:00035a50       ?type_case_o@?$output_processor@DV?$string_output_adapter@D@__crt_stdio_output@@V?$format_validation_base@DV?$string_output_adapter@D@__crt_stdio_output@@@2@@__crt_stdio_output@@AEAA_NXZ 0000000140036a50 f i libucrtd:output.obj
 0001:00035aa0       ?type_case_o@?$output_processor@_WV?$stream_output_adapter@_W@__crt_stdio_output@@V?$standard_base@_WV?$stream_output_adapter@_W@__crt_stdio_output@@@2@@__crt_stdio_output@@AEAA_NXZ 0000000140036aa0 f i libucrtd:output.obj
 0001:00035af0       ?type_case_o@?$output_processor@_WV?$string_output_adapter@_W@__crt_stdio_output@@V?$format_validation_base@_WV?$string_output_adapter@_W@__crt_stdio_output@@@2@@__crt_stdio_output@@AEAA_NXZ 0000000140036af0 f i libucrtd:output.obj
 0001:00035b40       ?type_case_o@?$output_processor@_WV?$string_output_adapter@_W@__crt_stdio_output@@V?$standard_base@_WV?$string_output_adapter@_W@__crt_stdio_output@@@2@@__crt_stdio_output@@AEAA_NXZ 0000000140036b40 f i libucrtd:output.obj
 0001:00035b90       ?type_case_p@?$output_processor@DV?$string_output_adapter@D@__crt_stdio_output@@V?$format_validation_base@DV?$string_output_adapter@D@__crt_stdio_output@@@2@@__crt_stdio_output@@AEAA_NXZ 0000000140036b90 f i libucrtd:output.obj
 0001:00035bd0       ?type_case_p@?$output_processor@_WV?$stream_output_adapter@_W@__crt_stdio_output@@V?$standard_base@_WV?$stream_output_adapter@_W@__crt_stdio_output@@@2@@__crt_stdio_output@@AEAA_NXZ 0000000140036bd0 f i libucrtd:output.obj
 0001:00035c10       ?type_case_p@?$output_processor@_WV?$string_output_adapter@_W@__crt_stdio_output@@V?$format_validation_base@_WV?$string_output_adapter@_W@__crt_stdio_output@@@2@@__crt_stdio_output@@AEAA_NXZ 0000000140036c10 f i libucrtd:output.obj
 0001:00035c50       ?type_case_p@?$output_processor@_WV?$string_output_adapter@_W@__crt_stdio_output@@V?$standard_base@_WV?$string_output_adapter@_W@__crt_stdio_output@@@2@@__crt_stdio_output@@AEAA_NXZ 0000000140036c50 f i libucrtd:output.obj
 0001:00035c90       ?type_case_s@?$output_processor@DV?$string_output_adapter@D@__crt_stdio_output@@V?$format_validation_base@DV?$string_output_adapter@D@__crt_stdio_output@@@2@@__crt_stdio_output@@AEAA_NXZ 0000000140036c90 f i libucrtd:output.obj
 0001:00035db0       ?type_case_s@?$output_processor@_WV?$stream_output_adapter@_W@__crt_stdio_output@@V?$standard_base@_WV?$stream_output_adapter@_W@__crt_stdio_output@@@2@@__crt_stdio_output@@AEAA_NXZ 0000000140036db0 f i libucrtd:output.obj
 0001:00035db0       ?type_case_s@?$output_processor@_WV?$string_output_adapter@_W@__crt_stdio_output@@V?$format_validation_base@_WV?$string_output_adapter@_W@__crt_stdio_output@@@2@@__crt_stdio_output@@AEAA_NXZ 0000000140036db0 f i libucrtd:output.obj
 0001:00035db0       ?type_case_s@?$output_processor@_WV?$string_output_adapter@_W@__crt_stdio_output@@V?$standard_base@_WV?$string_output_adapter@_W@__crt_stdio_output@@@2@@__crt_stdio_output@@AEAA_NXZ 0000000140036db0 f i libucrtd:output.obj
 0001:00035ed0       ?type_case_s_compute_narrow_string_length@?$output_processor@DV?$string_output_adapter@D@__crt_stdio_output@@V?$format_validation_base@DV?$string_output_adapter@D@__crt_stdio_output@@@2@@__crt_stdio_output@@AEBAHHD@Z 0000000140036ed0 f i libucrtd:output.obj
 0001:00035f00       ?type_case_s_compute_narrow_string_length@?$output_processor@_WV?$stream_output_adapter@_W@__crt_stdio_output@@V?$standard_base@_WV?$stream_output_adapter@_W@__crt_stdio_output@@@2@@__crt_stdio_output@@AEBAHH_W@Z 0000000140036f00 f i libucrtd:output.obj
 0001:00035f00       ?type_case_s_compute_narrow_string_length@?$output_processor@_WV?$string_output_adapter@_W@__crt_stdio_output@@V?$format_validation_base@_WV?$string_output_adapter@_W@__crt_stdio_output@@@2@@__crt_stdio_output@@AEBAHH_W@Z 0000000140036f00 f i libucrtd:output.obj
 0001:00035f00       ?type_case_s_compute_narrow_string_length@?$output_processor@_WV?$string_output_adapter@_W@__crt_stdio_output@@V?$standard_base@_WV?$string_output_adapter@_W@__crt_stdio_output@@@2@@__crt_stdio_output@@AEBAHH_W@Z 0000000140036f00 f i libucrtd:output.obj
 0001:00035f90       ?type_case_u@?$output_processor@DV?$string_output_adapter@D@__crt_stdio_output@@V?$format_validation_base@DV?$string_output_adapter@D@__crt_stdio_output@@@2@@__crt_stdio_output@@AEAA_NXZ 0000000140036f90 f i libucrtd:output.obj
 0001:00035fb0       ?type_case_u@?$output_processor@_WV?$stream_output_adapter@_W@__crt_stdio_output@@V?$standard_base@_WV?$stream_output_adapter@_W@__crt_stdio_output@@@2@@__crt_stdio_output@@AEAA_NXZ 0000000140036fb0 f i libucrtd:output.obj
 0001:00035fd0       ?type_case_u@?$output_processor@_WV?$string_output_adapter@_W@__crt_stdio_output@@V?$format_validation_base@_WV?$string_output_adapter@_W@__crt_stdio_output@@@2@@__crt_stdio_output@@AEAA_NXZ 0000000140036fd0 f i libucrtd:output.obj
 0001:00035ff0       ?type_case_u@?$output_processor@_WV?$string_output_adapter@_W@__crt_stdio_output@@V?$standard_base@_WV?$string_output_adapter@_W@__crt_stdio_output@@@2@@__crt_stdio_output@@AEAA_NXZ 0000000140036ff0 f i libucrtd:output.obj
 0001:00036010       ?type_case_x@?$output_processor@DV?$string_output_adapter@D@__crt_stdio_output@@V?$format_validation_base@DV?$string_output_adapter@D@__crt_stdio_output@@@2@@__crt_stdio_output@@AEAA_NXZ 0000000140037010 f i libucrtd:output.obj
 0001:00036030       ?type_case_x@?$output_processor@_WV?$stream_output_adapter@_W@__crt_stdio_output@@V?$standard_base@_WV?$stream_output_adapter@_W@__crt_stdio_output@@@2@@__crt_stdio_output@@AEAA_NXZ 0000000140037030 f i libucrtd:output.obj
 0001:00036050       ?type_case_x@?$output_processor@_WV?$string_output_adapter@_W@__crt_stdio_output@@V?$format_validation_base@_WV?$string_output_adapter@_W@__crt_stdio_output@@@2@@__crt_stdio_output@@AEAA_NXZ 0000000140037050 f i libucrtd:output.obj
 0001:00036070       ?type_case_x@?$output_processor@_WV?$string_output_adapter@_W@__crt_stdio_output@@V?$standard_base@_WV?$string_output_adapter@_W@__crt_stdio_output@@@2@@__crt_stdio_output@@AEAA_NXZ 0000000140037070 f i libucrtd:output.obj
 0001:00036090       ?unset_flag@?$output_processor@_WV?$stream_output_adapter@_W@__crt_stdio_output@@V?$standard_base@_WV?$stream_output_adapter@_W@__crt_stdio_output@@@2@@__crt_stdio_output@@AEAAXI@Z 0000000140037090 f i libucrtd:output.obj
 0001:00036090       ?unset_flag@?$output_processor@_WV?$string_output_adapter@_W@__crt_stdio_output@@V?$standard_base@_WV?$string_output_adapter@_W@__crt_stdio_output@@@2@@__crt_stdio_output@@AEAAXI@Z 0000000140037090 f i libucrtd:output.obj
 0001:00036090       ?unset_flag@?$output_processor@_WV?$string_output_adapter@_W@__crt_stdio_output@@V?$format_validation_base@_WV?$string_output_adapter@_W@__crt_stdio_output@@@2@@__crt_stdio_output@@AEAAXI@Z 0000000140037090 f i libucrtd:output.obj
 0001:00036090       ?unset_flag@?$output_processor@DV?$string_output_adapter@D@__crt_stdio_output@@V?$format_validation_base@DV?$string_output_adapter@D@__crt_stdio_output@@@2@@__crt_stdio_output@@AEAAXI@Z 0000000140037090 f i libucrtd:output.obj
 0001:000360c0       ?update_field_width@?$standard_base@_WV?$stream_output_adapter@_W@__crt_stdio_output@@@__crt_stdio_output@@IEAA_NXZ 00000001400370c0 f i libucrtd:output.obj
 0001:000360c0       ?update_field_width@?$standard_base@_WV?$string_output_adapter@_W@__crt_stdio_output@@@__crt_stdio_output@@IEAA_NXZ 00000001400370c0 f i libucrtd:output.obj
 0001:000360c0       ?update_field_width@?$standard_base@DV?$string_output_adapter@D@__crt_stdio_output@@@__crt_stdio_output@@IEAA_NXZ 00000001400370c0 f i libucrtd:output.obj
 0001:000360f0       ?update_precision@?$standard_base@_WV?$stream_output_adapter@_W@__crt_stdio_output@@@__crt_stdio_output@@IEAA_NXZ 00000001400370f0 f i libucrtd:output.obj
 0001:000360f0       ?update_precision@?$standard_base@DV?$string_output_adapter@D@__crt_stdio_output@@@__crt_stdio_output@@IEAA_NXZ 00000001400370f0 f i libucrtd:output.obj
 0001:000360f0       ?update_precision@?$standard_base@_WV?$string_output_adapter@_W@__crt_stdio_output@@@__crt_stdio_output@@IEAA_NXZ 00000001400370f0 f i libucrtd:output.obj
 0001:00036120       ?validate@?$stream_output_adapter@_W@__crt_stdio_output@@QEBA_NXZ 0000000140037120 f i libucrtd:output.obj
 0001:00036200       ?validate@?$string_output_adapter@D@__crt_stdio_output@@QEBA_NXZ 0000000140037200 f i libucrtd:output.obj
 0001:000362c0       ?validate@?$string_output_adapter@_W@__crt_stdio_output@@QEBA_NXZ 00000001400372c0 f i libucrtd:output.obj
 0001:00036380       ?validate_and_update_state_at_end_of_format_string@?$format_validation_base@DV?$string_output_adapter@D@__crt_stdio_output@@@__crt_stdio_output@@IEBA_NXZ 0000000140037380 f i libucrtd:output.obj
 0001:00036440       ?validate_and_update_state_at_end_of_format_string@?$format_validation_base@_WV?$string_output_adapter@_W@__crt_stdio_output@@@__crt_stdio_output@@IEBA_NXZ 0000000140037440 f i libucrtd:output.obj
 0001:00036500       ?wide_null_string@?$output_processor@_WV?$string_output_adapter@_W@__crt_stdio_output@@V?$standard_base@_WV?$string_output_adapter@_W@__crt_stdio_output@@@2@@__crt_stdio_output@@CAPEA_WXZ 0000000140037500 f i libucrtd:output.obj
 0001:00036500       ?wide_null_string@?$output_processor@_WV?$stream_output_adapter@_W@__crt_stdio_output@@V?$standard_base@_WV?$stream_output_adapter@_W@__crt_stdio_output@@@2@@__crt_stdio_output@@CAPEA_WXZ 0000000140037500 f i libucrtd:output.obj
 0001:00036500       ?wide_null_string@?$output_processor@DV?$string_output_adapter@D@__crt_stdio_output@@V?$format_validation_base@DV?$string_output_adapter@D@__crt_stdio_output@@@2@@__crt_stdio_output@@CAPEA_WXZ 0000000140037500 f i libucrtd:output.obj
 0001:00036500       ?wide_null_string@?$output_processor@_WV?$string_output_adapter@_W@__crt_stdio_output@@V?$format_validation_base@_WV?$string_output_adapter@_W@__crt_stdio_output@@@2@@__crt_stdio_output@@CAPEA_WXZ 0000000140037500 f i libucrtd:output.obj
 0001:00036510       ?write_character@?$output_adapter_common@_WV?$stream_output_adapter@_W@__crt_stdio_output@@@__crt_stdio_output@@QEBAX_WQEAH@Z 0000000140037510 f i libucrtd:output.obj
 0001:00036560       ?write_character@?$string_output_adapter@D@__crt_stdio_output@@QEBA_NDQEAH@Z 0000000140037560 f i libucrtd:output.obj
 0001:00036620       ?write_character@?$string_output_adapter@_W@__crt_stdio_output@@QEBA_N_WQEAH@Z 0000000140037620 f i libucrtd:output.obj
 0001:000366e0       ?write_character_without_count_update@?$stream_output_adapter@_W@__crt_stdio_output@@QEBA_N_W@Z 00000001400376e0 f i libucrtd:output.obj
 0001:00036770       ?write_stored_string_tchar@?$output_processor@DV?$string_output_adapter@D@__crt_stdio_output@@V?$format_validation_base@DV?$string_output_adapter@D@__crt_stdio_output@@@2@@__crt_stdio_output@@AEAA_ND@Z 0000000140037770 f i libucrtd:output.obj
 0001:00036930       ?write_stored_string_tchar@?$output_processor@_WV?$stream_output_adapter@_W@__crt_stdio_output@@V?$standard_base@_WV?$stream_output_adapter@_W@__crt_stdio_output@@@2@@__crt_stdio_output@@AEAA_N_W@Z 0000000140037930 f i libucrtd:output.obj
 0001:00036a80       ?write_stored_string_tchar@?$output_processor@_WV?$string_output_adapter@_W@__crt_stdio_output@@V?$format_validation_base@_WV?$string_output_adapter@_W@__crt_stdio_output@@@2@@__crt_stdio_output@@AEAA_N_W@Z 0000000140037a80 f i libucrtd:output.obj
 0001:00036a80       ?write_stored_string_tchar@?$output_processor@_WV?$string_output_adapter@_W@__crt_stdio_output@@V?$standard_base@_WV?$string_output_adapter@_W@__crt_stdio_output@@@2@@__crt_stdio_output@@AEAA_N_W@Z 0000000140037a80 f i libucrtd:output.obj
 0001:00036bd0       ?write_string@?$stream_output_adapter@_W@__crt_stdio_output@@QEBAXQEB_WHQEAHAEAV__crt_deferred_errno_cache@@@Z 0000000140037bd0 f i libucrtd:output.obj
 0001:00036c50       ?write_string@?$string_output_adapter@D@__crt_stdio_output@@QEBAXQEBDHQEAHAEAV__crt_deferred_errno_cache@@@Z 0000000140037c50 f i libucrtd:output.obj
 0001:00036dc0       ?write_string@?$string_output_adapter@_W@__crt_stdio_output@@QEBAXQEB_WHQEAHAEAV__crt_deferred_errno_cache@@@Z 0000000140037dc0 f i libucrtd:output.obj
 0001:00036f30       ?write_string_impl@?$output_adapter_common@_WV?$stream_output_adapter@_W@__crt_stdio_output@@@__crt_stdio_output@@IEBAXQEB_WHQEAHAEAV__crt_deferred_errno_cache@@@Z 0000000140037f30 f i libucrtd:output.obj
 0001:00037010       __acrt_isleadbyte_l_noupdate 0000000140038010 f i libucrtd:output.obj
 0001:00037040       __acrt_locale_get_ctype_array_value 0000000140038040 f i libucrtd:output.obj
 0001:00037080       __stdio_common_vfwprintf   0000000140038080 f   libucrtd:output.obj
 0001:000370c0       __stdio_common_vsnprintf_s 00000001400380c0 f   libucrtd:output.obj
 0001:00037120       __stdio_common_vsnwprintf_s 0000000140038120 f   libucrtd:output.obj
 0001:00037180       __stdio_common_vsprintf_s  0000000140038180 f   libucrtd:output.obj
 0001:000371d0       __stdio_common_vswprintf   00000001400381d0 f   libucrtd:output.obj
 0001:00037220       _ctype_fast_check_internal 0000000140038220 f i libucrtd:output.obj
 0001:00037250       _isdigit_fast_internal     0000000140038250 f i libucrtd:output.obj
 0001:00037280       _tolower_fast_internal     0000000140038280 f i libucrtd:output.obj
 0001:00037400       strcspn                    0000000140038400 f   libucrtd:strcspn.obj
 0001:00037d10       localeconv                 0000000140038d10 f   libucrtd:localeconv.obj
 0001:00038dc0       ??$ftprintf@PEAU_iobuf@@PEB_WAEBQEB_WAEBQEB_WAEBI@?$__crt_char_traits@_W@@SAH$$QEAPEAU_iobuf@@$$QEAPEB_WAEBQEB_W2AEBI@Z 0000000140039dc0 f i libucrtd:assert.obj
 0001:00038e10       ??$itot_s@AEBIPEA_W_KH@?$__crt_char_traits@_W@@SAHAEBI$$QEAPEA_W$$QEA_K$$QEAH@Z 0000000140039e10 f i libucrtd:assert.obj
 0001:00038e60       ??$show_message_box@AEAY0CEA@_WPEB_WJ@?$__crt_char_traits@_W@@SAHAEAY0CEA@_W$$QEAPEB_W$$QEAJ@Z 0000000140039e60 f i libucrtd:assert.obj
 0001:00038ea0       ??$tcscat_s@AEBQEA_WAEB_KPEB_W@?$__crt_char_traits@_W@@SAHAEBQEA_WAEB_K$$QEAPEB_W@Z 0000000140039ea0 f i libucrtd:assert.obj
 0001:00038ea0       ??$tcscat_s@AEBQEA_WAEB_KAEBQEB_W@?$__crt_char_traits@_W@@SAHAEBQEA_WAEB_KAEBQEB_W@Z 0000000140039ea0 f i libucrtd:assert.obj
 0001:00038ea0       ??$tcscat_s@AEBQEA_WAEB_KAEAPEA_W@?$__crt_char_traits@_W@@SAHAEBQEA_WAEB_KAEAPEA_W@Z 0000000140039ea0 f i libucrtd:assert.obj
 0001:00038ee0       ??$tcscpy_s@AEBQEA_WAEB_KPEB_W@?$__crt_char_traits@_W@@SAHAEBQEA_WAEB_K$$QEAPEB_W@Z 0000000140039ee0 f i libucrtd:assert.obj
 0001:00038f20       ??$tcsncat_s@AEBQEA_WAEB_KAEAPEB_W_K@?$__crt_char_traits@_W@@SAHAEBQEA_WAEB_KAEAPEB_W$$QEA_K@Z 0000000140039f20 f i libucrtd:assert.obj
 0001:00038f20       ??$tcsncat_s@AEBQEA_WAEB_KPEB_W_K@?$__crt_char_traits@_W@@SAHAEBQEA_WAEB_K$$QEAPEB_W$$QEA_K@Z 0000000140039f20 f i libucrtd:assert.obj
 0001:00038f20       ??$tcsncat_s@AEBQEA_WAEB_KAEBQEB_WAEB_K@?$__crt_char_traits@_W@@SAHAEBQEA_WAEB_KAEBQEB_W1@Z 0000000140039f20 f i libucrtd:assert.obj
 0001:00039130       _vfwprintf_l               000000014003a130 f i libucrtd:assert.obj
 0001:00039180       _vswprintf_c_l             000000014003a180 f i libucrtd:assert.obj
 0001:000391f0       _wassert                   000000014003a1f0 f   libucrtd:assert.obj
 0001:00039230       fwprintf                   000000014003a230 f i libucrtd:assert.obj
 0001:00039280       swprintf                   000000014003a280 f i libucrtd:assert.obj
 0001:000392e0       __acrt_initialize_locks    000000014003a2e0 f   libucrtd:locks.obj
 0001:00039350       __acrt_lock                000000014003a350 f   libucrtd:locks.obj
 0001:00039380       __acrt_uninitialize_locks  000000014003a380 f   libucrtd:locks.obj
 0001:000393e0       __acrt_unlock              000000014003a3e0 f   libucrtd:locks.obj
 0001:00039410       _lock_locales              000000014003a410 f   libucrtd:locks.obj
 0001:00039430       _unlock_locales            000000014003a430 f   libucrtd:locks.obj
 0001:00039910       __acrt_should_sync_with_global_locale 000000014003a910 f i libucrtd:setlocale.obj
 0001:00039b00       setlocale                  000000014003ab00 f   libucrtd:setlocale.obj
 0001:00039b40       _wcsdup_dbg                000000014003ab40 f   libucrtd:wcsdup.obj
 0001:00039c00       __pctype_func              000000014003ac00 f   libucrtd:ctype.obj
 0001:00039d00       islower                    000000014003ad00 f   libucrtd:_ctype.obj
 0001:00039d20       isupper                    000000014003ad20 f   libucrtd:_ctype.obj
 0001:00039d40       ___lc_codepage_func        000000014003ad40 f   libucrtd:initctype.obj
 0001:00039d80       ___lc_locale_name_func     000000014003ad80 f   libucrtd:initctype.obj
 0001:00039dc0       ___mb_cur_max_func         000000014003adc0 f   libucrtd:initctype.obj
 0001:00039e00       __acrt_locale_initialize_ctype 000000014003ae00 f   libucrtd:initctype.obj
 0001:0003a8b0       __acrt_errno_from_os_error 000000014003b8b0 f   libucrtd:errno.obj
 0001:0003a940       __acrt_errno_map_os_error  000000014003b940 f   libucrtd:errno.obj
 0001:0003a970       __doserrno                 000000014003b970 f   libucrtd:errno.obj
 0001:0003a9a0       _errno                     000000014003b9a0 f   libucrtd:errno.obj
 0001:0003ac80       ??$open_file@AEBQEBDAEBQEBDAEBHPEAU_iobuf@@@?$__crt_char_traits@D@@SAPEAU_iobuf@@AEBQEBD0AEBH$$QEAPEAU1@@Z 000000014003bc80 f i libucrtd:fopen.obj
 0001:0003acd0       ?unlock@__crt_stdio_stream@@QEBAXXZ 000000014003bcd0 f i libucrtd:fopen.obj
 0001:0003acf0       _fsopen                    000000014003bcf0 f   libucrtd:fopen.obj
 0001:0003ad20       pow                        000000014003bd20 f   libucrtd:pow.obj
 0001:0003c3c0       powf                       000000014003d3c0 f   libucrtd:powf.obj
 0001:0003d290       ??$make_c_string_character_source@DPEAPEAD@__crt_strtox@@YA?AV?$c_string_character_source@D@0@QEBDQEAPEAD@Z 000000014003e290 f i libucrtd:strtod.obj
 0001:0003d290       ??$make_c_string_character_source@_W$$T@__crt_strtox@@YA?AV?$c_string_character_source@_W@0@QEB_W$$T@Z 000000014003e290 f i libucrtd:atox.obj
 0001:0003d290       ??$make_c_string_character_source@_WPEAPEA_W@__crt_strtox@@YA?AV?$c_string_character_source@_W@0@QEB_WQEAPEA_W@Z 000000014003e290 f i libucrtd:strtod.obj
 0001:0003d2d0       ??0?$c_string_character_source@_W@__crt_strtox@@QEAA@QEB_WQEAPEB_W@Z 000000014003e2d0 f i libucrtd:strtod.obj
 0001:0003d2d0       ??0?$c_string_character_source@D@__crt_strtox@@QEAA@QEBDQEAPEBD@Z 000000014003e2d0 f i libucrtd:strtod.obj
 0001:0003d320       ??4big_integer@__crt_strtox@@QEAAAEAU01@AEBU01@@Z 000000014003e320 f i libucrtd:strtod.obj
 0001:0003d320       ??0big_integer@__crt_strtox@@QEAA@AEBU01@@Z 000000014003e320 f i libucrtd:strtod.obj
 0001:0003d380       ??0big_integer@__crt_strtox@@QEAA@XZ 000000014003e380 f i libucrtd:strtod.obj
 0001:0003d3c0       ??1?$c_string_character_source@_W@__crt_strtox@@QEAA@XZ 000000014003e3c0 f i libucrtd:strtod.obj
 0001:0003d3c0       ??1?$c_string_character_source@D@__crt_strtox@@QEAA@XZ 000000014003e3c0 f i libucrtd:strtod.obj
 0001:0003d3f0       ?add_carry@__crt_strtox@@YAIAEAIII@Z 000000014003e3f0 f i libucrtd:strtod.obj
 0001:0003d440       ?add_multiply_carry@__crt_strtox@@YAIAEAIIII@Z 000000014003e440 f i libucrtd:strtod.obj
 0001:0003d4a0       ?bit_scan_reverse@__crt_strtox@@YAII@Z 000000014003e4a0 f i libucrtd:strtod.obj
 0001:0003d4e0       ?count_sequential_high_zeroes@__crt_strtox@@YAII@Z 000000014003e4e0 f i libucrtd:strtod.obj
 0001:0003d520       ?divide@__crt_strtox@@YA_KAEAUbig_integer@1@AEBU21@@Z 000000014003e520 f i libucrtd:strtod.obj
 0001:0003def0       ?get@?$c_string_character_source@D@__crt_strtox@@QEAADXZ 000000014003eef0 f i libucrtd:strtod.obj
 0001:0003df30       ?get@?$c_string_character_source@_W@__crt_strtox@@QEAA_WXZ 000000014003ef30 f i libucrtd:strtod.obj
 0001:0003df70       ?is_space@__crt_strtox@@YA_NDQEAU__crt_locale_pointers@@@Z 000000014003ef70 f i libucrtd:strtod.obj
 0001:0003dfc0       ?is_space@__crt_strtox@@YA_N_WPEAU__crt_locale_pointers@@@Z 000000014003efc0 f i libucrtd:strtod.obj
 0001:0003e000       ?make_big_integer@__crt_strtox@@YA?AUbig_integer@1@_K@Z 000000014003f000 f i libucrtd:strtod.obj
 0001:0003e0d0       ?multiply@__crt_strtox@@YA_NAEAUbig_integer@1@AEBU21@@Z 000000014003f0d0 f i libucrtd:strtod.obj
 0001:0003e450       ?multiply@__crt_strtox@@YA_NAEAUbig_integer@1@I@Z 000000014003f450 f i libucrtd:strtod.obj
 0001:0003e570       ?multiply_64_32@__crt_strtox@@YA_K_KI@Z 000000014003f570 f i libucrtd:strtod.obj
 0001:0003e590       ?multiply_by_power_of_ten@__crt_strtox@@YA_NAEAUbig_integer@1@I@Z 000000014003f590 f i libucrtd:strtod.obj
 0001:0003e740       ?multiply_core@__crt_strtox@@YAIQEAIII@Z 000000014003f740 f i libucrtd:strtod.obj
 0001:0003e7c0       ?parse_digit@__crt_strtox@@YAID@Z 000000014003f7c0 f i libucrtd:strtod.obj
 0001:0003e830       ?parse_digit@__crt_strtox@@YAI_W@Z 000000014003f830 f i libucrtd:strtod.obj
 0001:0003e880       ?restore_state@?$c_string_character_source@D@__crt_strtox@@QEAA_NQEBD@Z 000000014003f880 f i libucrtd:strtod.obj
 0001:0003e880       ?restore_state@?$c_string_character_source@_W@__crt_strtox@@QEAA_NQEB_W@Z 000000014003f880 f i libucrtd:strtod.obj
 0001:0003e8a0       ?shift_left@__crt_strtox@@YA_NAEAUbig_integer@1@I@Z 000000014003f8a0 f i libucrtd:strtod.obj
 0001:0003eb80       ?unget@?$c_string_character_source@D@__crt_strtox@@QEAAXD@Z 000000014003fb80 f i libucrtd:strtod.obj
 0001:0003ec60       ?unget@?$c_string_character_source@_W@__crt_strtox@@QEAAX_W@Z 000000014003fc60 f i libucrtd:strtod.obj
 0001:0003ed40       ?validate@?$c_string_character_source@D@__crt_strtox@@QEBA_NXZ 000000014003fd40 f i libucrtd:strtod.obj
 0001:0003ee00       ?validate@?$c_string_character_source@_W@__crt_strtox@@QEBA_NXZ 000000014003fe00 f i libucrtd:strtod.obj
 0001:0003eec0       ?wide_character_to_digit@__crt_strtox@@YAH_W@Z 000000014003fec0 f i libucrtd:strtod.obj
 0001:0003f230       __ascii_iswalpha           0000000140040230 f i libucrtd:strtod.obj
 0001:0003f270       __ascii_toupper            0000000140040270 f i libucrtd:strtod.obj
 0001:0003f290       __ascii_towupper           0000000140040290 f i libucrtd:strtod.obj
 0001:0003f2c0       strcmp                     00000001400402c0 f   libucrtd:strcmp.obj
 0001:0003f340       strlen                     0000000140040340 f   libucrtd:strlen.obj
 0001:0003f3f0       abort                      00000001400403f0 f   libucrtd:abort.obj
 0001:0003f470       __strncnt                  0000000140040470 f   libucrtd:strncnt.obj
 0001:00040830       ??1?$__crt_simd_cleanup_guard@$00@@QEAA@XZ 0000000140041830 f i libucrtd:strnlen.obj
 0001:00040840       ?compare_equals@?$__crt_simd_traits@$00E@@SA?AT__m256i@@T2@0@Z 0000000140041840 f i libucrtd:strnlen.obj
 0001:00040880       ?compare_equals@?$__crt_simd_traits@$00G@@SA?AT__m256i@@T2@0@Z 0000000140041880 f i libucrtd:strnlen.obj
 0001:000408c0       ?compare_equals@?$__crt_simd_traits@$0A@E@@SA?AT__m128i@@T2@0@Z 00000001400418c0 f i libucrtd:strnlen.obj
 0001:000408f0       ?compare_equals@?$__crt_simd_traits@$0A@G@@SA?AT__m128i@@T2@0@Z 00000001400418f0 f i libucrtd:strnlen.obj
 0001:00040920       ?compute_byte_mask@?$__crt_simd_pack_traits@$00@@SAHT__m256i@@@Z 0000000140041920 f i libucrtd:strnlen.obj
 0001:00040940       ?compute_byte_mask@?$__crt_simd_pack_traits@$0A@@@SAHT__m128i@@@Z 0000000140041940 f i libucrtd:strnlen.obj
 0001:00040960       ?get_zero_pack@?$__crt_simd_pack_traits@$00@@SA?AT__m256i@@XZ 0000000140041960 f i libucrtd:strnlen.obj
 0001:00040990       ?get_zero_pack@?$__crt_simd_pack_traits@$0A@@@SA?AT__m128i@@XZ 0000000140041990 f i libucrtd:strnlen.obj
 0001:000409b0       strnlen                    00000001400419b0 f   libucrtd:strnlen.obj
 0001:000409e0       wcslen                     00000001400419e0 f   libucrtd:strnlen.obj
 0001:00040a00       wcsnlen                    0000000140041a00 f   libucrtd:strnlen.obj
 0001:00040d70       ??$__acrt_mbs_to_wcs_cp@U__crt_win32_buffer_internal_dynamic_resizing@@@@YAHQEBDAEAV?$__crt_win32_buffer@_WU__crt_win32_buffer_internal_dynamic_resizing@@@@I@Z 0000000140041d70 f i libucrtd:strftime.obj
 0001:00040dc0       ??$__acrt_wcs_to_mbs_cp@U__crt_win32_buffer_no_resizing@@@@YAHQEB_WAEAV?$__crt_win32_buffer@DU__crt_win32_buffer_no_resizing@@@@I@Z 0000000140041dc0 f i libucrtd:strftime.obj
 0001:00040e10       ??0?$__crt_win32_buffer@DU__crt_win32_buffer_no_resizing@@@@QEAA@QEAD_K@Z 0000000140041e10 f i libucrtd:strftime.obj
 0001:00040e80       ??0?$__crt_win32_buffer@DU__crt_win32_buffer_internal_dynamic_resizing@@@@QEAA@XZ 0000000140041e80 f i libucrtd:argv_wildcards.obj
 0001:00040e80       ??0?$__crt_win32_buffer@_WU__crt_win32_buffer_internal_dynamic_resizing@@@@QEAA@XZ 0000000140041e80 f i libucrtd:strftime.obj
 0001:00040ee0       ??1?$__crt_win32_buffer@DU__crt_win32_buffer_no_resizing@@@@QEAA@XZ 0000000140041ee0 f i libucrtd:strftime.obj
 0001:00040f10       ??1?$__crt_win32_buffer@DU__crt_win32_buffer_internal_dynamic_resizing@@@@QEAA@XZ 0000000140041f10 f i libucrtd:argv_wildcards.obj
 0001:00040f10       ??1?$__crt_win32_buffer@_WU__crt_win32_buffer_internal_dynamic_resizing@@@@QEAA@XZ 0000000140041f10 f i libucrtd:strftime.obj
 0001:00040ff0       ?_deallocate@?$__crt_win32_buffer@DU__crt_win32_buffer_no_resizing@@@@AEAAXXZ 0000000140041ff0 f i libucrtd:strftime.obj
 0001:00041030       ?_deallocate@?$__crt_win32_buffer@_WU__crt_win32_buffer_internal_dynamic_resizing@@@@AEAAXXZ 0000000140042030 f i libucrtd:strftime.obj
 0001:00041030       ?_deallocate@?$__crt_win32_buffer@DU__crt_win32_buffer_internal_dynamic_resizing@@@@AEAAXXZ 0000000140042030 f i libucrtd:argv_wildcards.obj
 0001:00041070       ?allocate@?$__crt_win32_buffer@DU__crt_win32_buffer_no_resizing@@@@QEAAH_K@Z 0000000140042070 f i libucrtd:strftime.obj
 0001:000410f0       ?allocate@?$__crt_win32_buffer@_WU__crt_win32_buffer_internal_dynamic_resizing@@@@QEAAH_K@Z 00000001400420f0 f i libucrtd:strftime.obj
 0001:00041180       ?allocate@__crt_win32_buffer_internal_dynamic_resizing@@SAHQEAPEAX_KAEBV__crt_win32_buffer_empty_debug_info@@@Z 0000000140042180 f i libucrtd:strftime.obj
 0001:000411e0       ?allocate@__crt_win32_buffer_no_resizing@@SAHQEAPEAX_KAEBV__crt_win32_buffer_empty_debug_info@@@Z 00000001400421e0 f i libucrtd:strftime.obj
 0001:00041210       ?capacity@?$__crt_win32_buffer@_WU__crt_win32_buffer_internal_dynamic_resizing@@@@QEBA_KXZ 0000000140042210 f i libucrtd:strftime.obj
 0001:00041210       ?capacity@?$__crt_win32_buffer@DU__crt_win32_buffer_internal_dynamic_resizing@@@@QEBA_KXZ 0000000140042210 f i libucrtd:argv_wildcards.obj
 0001:00041210       ?capacity@?$__crt_win32_buffer@DU__crt_win32_buffer_no_resizing@@@@QEBA_KXZ 0000000140042210 f i libucrtd:strftime.obj
 0001:00041220       ?data@?$__crt_win32_buffer@DU__crt_win32_buffer_no_resizing@@@@QEAAPEADXZ 0000000140042220 f i libucrtd:strftime.obj
 0001:00041220       ?data@?$__crt_win32_buffer@DU__crt_win32_buffer_internal_dynamic_resizing@@@@QEAAPEADXZ 0000000140042220 f i libucrtd:argv_wildcards.obj
 0001:00041220       ?data@?$__crt_win32_buffer@_WU__crt_win32_buffer_internal_dynamic_resizing@@@@QEAAPEA_WXZ 0000000140042220 f i libucrtd:strftime.obj
 0001:00041230       ?deallocate@__crt_win32_buffer_internal_dynamic_resizing@@SAXQEAXAEBV__crt_win32_buffer_empty_debug_info@@@Z 0000000140042230 f i libucrtd:strftime.obj
 0001:00041260       ?deallocate@__crt_win32_buffer_no_resizing@@SAXQEAXAEBV__crt_win32_buffer_empty_debug_info@@@Z 0000000140042260 f i libucrtd:strftime.obj
 0001:00041270       ?set_to_nullptr@?$__crt_win32_buffer@DU__crt_win32_buffer_no_resizing@@@@QEAAXXZ 0000000140042270 f i libucrtd:strftime.obj
 0001:000412b0       ?set_to_nullptr@?$__crt_win32_buffer@_WU__crt_win32_buffer_internal_dynamic_resizing@@@@QEAAXXZ 00000001400422b0 f i libucrtd:strftime.obj
 0001:000412b0       ?set_to_nullptr@?$__crt_win32_buffer@DU__crt_win32_buffer_internal_dynamic_resizing@@@@QEAAXXZ 00000001400422b0 f i libucrtd:argv_wildcards.obj
 0001:000412f0       ?size@?$__crt_win32_buffer@DU__crt_win32_buffer_no_resizing@@@@QEAAX_K@Z 00000001400422f0 f i libucrtd:strftime.obj
 0001:000412f0       ?size@?$__crt_win32_buffer@DU__crt_win32_buffer_internal_dynamic_resizing@@@@QEAAX_K@Z 00000001400422f0 f i libucrtd:argv_wildcards.obj
 0001:000412f0       ?size@?$__crt_win32_buffer@_WU__crt_win32_buffer_internal_dynamic_resizing@@@@QEAAX_K@Z 00000001400422f0 f i libucrtd:strftime.obj
 0001:00041310       ?size@?$__crt_win32_buffer@DU__crt_win32_buffer_no_resizing@@@@QEBA_KXZ 0000000140042310 f i libucrtd:strftime.obj
 0001:00041320       __ascii_tolower            0000000140042320 f i libucrtd:tolower_toupper.obj
 0001:00041340       ?initialize@?$dual_state_global@P6AH_K@Z@__crt_state_management@@QEAAXQ6AH_K@Z@Z 0000000140042340 f i libucrtd:new_handler.obj
 0001:00041340       ?initialize@?$dual_state_global@P6AHPEAU_exception@@@Z@__crt_state_management@@QEAAXQ6AHPEAU_exception@@@Z@Z 0000000140042340 f i libucrtd:matherr.obj
 0001:00041340       ?initialize@?$dual_state_global@PEAU__crt_locale_data@@@__crt_state_management@@QEAAXQEAU__crt_locale_data@@@Z 0000000140042340 f i libucrtd:initialization.obj
 0001:00041340       ?initialize@?$dual_state_global@P6AXH@Z@__crt_state_management@@QEAAXQ6AXH@Z@Z 0000000140042340 f i libucrtd:signal.obj
 0001:00041340       ?initialize@?$dual_state_global@PEAU__crt_multibyte_data@@@__crt_state_management@@QEAAXQEAU__crt_multibyte_data@@@Z 0000000140042340 f i libucrtd:mbctype.obj
 0001:00041390       __acrt_initialize_new_handler 0000000140042390 f   libucrtd:new_handler.obj
 0001:000413b0       _callnewh                  00000001400423b0 f   libucrtd:new_handler.obj
 0001:00041400       _query_new_handler         0000000140042400 f   libucrtd:new_handler.obj
 0001:00041440       malloc                     0000000140042440 f   libucrtd:malloc.obj
 0001:000414e0       _seh_filter_exe            00000001400424e0 f   libucrtd:exception_filter.obj
 0001:00041950       __acrt_report_runtime_error 0000000140042950 f   libucrtd:report_runtime_error.obj
 0001:00041bd0       _query_app_type            0000000140042bd0 f   libucrtd:report_runtime_error.obj
 0001:00041be0       _set_app_type              0000000140042be0 f   libucrtd:report_runtime_error.obj
 0001:00041bf0       __acrt_has_user_matherr    0000000140042bf0 f   libucrtd:matherr.obj
 0001:00041c30       __acrt_initialize_user_matherr 0000000140042c30 f   libucrtd:matherr.obj
 0001:00041c50       __acrt_invoke_user_matherr 0000000140042c50 f   libucrtd:matherr.obj
 0001:00041ca0       __setusermatherr           0000000140042ca0 f   libucrtd:matherr.obj
 0001:00042500       ??$set_program_name@PEAD@?$__crt_char_traits@D@@SAX$$QEAPEAD@Z 0000000140043500 f i libucrtd:argv_parsing.obj
 0001:00042630       __acrt_allocate_buffer_for_argv 0000000140043630 f   libucrtd:argv_parsing.obj
 0001:00042750       _configure_narrow_argv     0000000140043750 f   libucrtd:argv_parsing.obj
 0001:00042770       _set_pgmptr                0000000140043770 f i libucrtd:argv_parsing.obj
 0001:000429a0       ??$tcslen@AEAPEAD@?$__crt_char_traits@D@@SA_KAEAPEAD@Z 00000001400439a0 f i libucrtd:environment_initialization.obj
 0001:000429ec       ??B?$__crt_unique_heap_ptr@PEADU__crt_internal_free_policy@@@@QEBA_NXZ 00000001400439ec f i libucrtd:environment_initialization.obj
 0001:000429f4       __dcrt_uninitialize_environments_nolock 00000001400439f4 f   libucrtd:environment_initialization.obj
 0001:00042a2c       _initialize_narrow_environment 0000000140043a2c f   libucrtd:environment_initialization.obj
 0001:00042b80       _get_narrow_winmain_command_line 0000000140043b80 f   libucrtd:argv_winmain.obj
 0001:00042b90       _initterm                  0000000140043b90 f   libucrtd:initterm.obj
 0001:00042bf0       _initterm_e                0000000140043bf0 f   libucrtd:initterm.obj
 0001:00042c70       ?value@?$dual_state_global@H@__crt_state_management@@QEAAAEAHXZ 0000000140043c70 f i libucrtd:setmode.obj
 0001:00042c70       ?value@?$dual_state_global@J@__crt_state_management@@QEAAAEAJXZ 0000000140043c70 f i libucrtd:new_mode.obj
 0001:00042c90       _get_fmode                 0000000140043c90 f   libucrtd:setmode.obj
 0001:00042d60       _set_fmode                 0000000140043d60 f   libucrtd:setmode.obj
 0001:00042e40       _setmode_nolock            0000000140043e40 f   libucrtd:setmode.obj
 0001:000432f0       ??0_expandlocale_locale_name_cache@@QEAA@QEA_W_KQEAU__crt_qualified_locale_data@@@Z 00000001400442f0 f i libucrtd:wsetlocale.obj
 0001:000433a0       ??1_expandlocale_locale_name_cache@@QEAA@XZ 00000001400443a0 f i libucrtd:wsetlocale.obj
 0001:00043740       ?commit_locale_name@_expandlocale_locale_name_cache@@QEAAXQEB_W_K@Z 0000000140044740 f i libucrtd:wsetlocale.obj
 0001:000437c0       ?commit_locale_name_cache_already_updated@_expandlocale_locale_name_cache@@QEAAXQEB_W_K@Z 00000001400447c0 f i libucrtd:wsetlocale.obj
 0001:00043830       __acrt_copy_locale_name    0000000140044830 f   libucrtd:wsetlocale.obj
 0001:00043900       __acrt_set_locale_changed  0000000140044900 f   libucrtd:wsetlocale.obj
 0001:00043910       __acrt_uninitialize_locale 0000000140044910 f   libucrtd:wsetlocale.obj
 0001:00043940       __ascii_towlower           0000000140044940 f i libucrtd:wsetlocale.obj
 0001:00043960       __lc_lctowcs               0000000140044960 f   libucrtd:wsetlocale.obj
 0001:00043a50       __lc_wcstolc               0000000140044a50 f   libucrtd:wsetlocale.obj
 0001:00043d10       _configthreadlocale        0000000140044d10 f   libucrtd:wsetlocale.obj
 0001:00044530       _wcscats                   0000000140045530 f   libucrtd:wsetlocale.obj
 0001:00044610       _wsetlocale                0000000140045610 f   libucrtd:wsetlocale.obj
 0001:00046220       _query_new_mode            0000000140047220 f   libucrtd:new_mode.obj
 0001:00046240       _set_new_mode              0000000140047240 f   libucrtd:new_mode.obj
 0001:00046310       __p__commode               0000000140047310 f   libucrtd:ncommode.obj
 0001:000469a0       _crt_atexit                00000001400479a0 f   libucrtd:onexit.obj
 0001:000469c0       _execute_onexit_table      00000001400479c0 f   libucrtd:onexit.obj
 0001:00046a00       _initialize_onexit_table   0000000140047a00 f   libucrtd:onexit.obj
 0001:00046a80       _register_onexit_function  0000000140047a80 f   libucrtd:onexit.obj
 0001:00046b10       __acrt_uninitialize_command_line 0000000140047b10 f   libucrtd:argv_data.obj
 0001:00046d70       __acrt_initialize          0000000140047d70 f   libucrtd:initialization.obj
 0001:00046da0       __acrt_uninitialize        0000000140047da0 f   libucrtd:initialization.obj
 0001:00046dd0       terminate                  0000000140047dd0 f   libucrtd:terminate.obj
 0001:000472e0       strcpy_s                   00000001400482e0 f   libucrtd:strcpy_s.obj
 0001:00047310       ??$is_overflow_condition@K@__crt_strtox@@YA_NIK@Z 0000000140048310 f i libucrtd:atox.obj
 0001:00047380       ??$parse_integer@KV?$c_string_character_source@D@__crt_strtox@@@__crt_strtox@@YAKQEAU__crt_locale_pointers@@V?$c_string_character_source@D@0@H_N@Z 0000000140048380 f i libucrtd:atox.obj
 0001:00047810       ??$parse_integer@KV?$c_string_character_source@_W@__crt_strtox@@@__crt_strtox@@YAKQEAU__crt_locale_pointers@@V?$c_string_character_source@_W@0@H_N@Z 0000000140048810 f i libucrtd:atox.obj
 0001:00047cc0       ??$parse_integer_from_string@J_WPEAPEA_W@__crt_strtox@@YAJQEB_WQEAPEA_WHQEAU__crt_locale_pointers@@@Z 0000000140048cc0 f i libucrtd:strtox.obj
 0001:00047cc0       ??$parse_integer_from_string@J_W$$T@__crt_strtox@@YAJQEB_W$$THQEAU__crt_locale_pointers@@@Z 0000000140048cc0 f i libucrtd:atox.obj
 0001:00047d10       ?maximum_signed_value@__crt_strtox@@YAJK@Z 0000000140048d10 f i libucrtd:atox.obj
 0001:00047d20       ?minimum_signed_value@__crt_strtox@@YAJK@Z 0000000140048d20 f i libucrtd:atox.obj
 0001:00047d30       _wtol                      0000000140048d30 f   libucrtd:atox.obj
 0001:00047d70       strncmp                    0000000140048d70 f   libucrtd:strncmp.obj
 0001:00047df0       wcsncmp                    0000000140048df0 f   libucrtd:wcsncmp.obj
 0001:000480c0       ??0__crt_scoped_get_last_error_reset@@QEAA@XZ 00000001400490c0 f i libucrtd:per_thread_data.obj
 0001:000480e0       ??1__crt_scoped_get_last_error_reset@@QEAA@XZ 00000001400490e0 f i libucrtd:per_thread_data.obj
 0001:00048780       __acrt_getptd              0000000140049780 f   libucrtd:per_thread_data.obj
 0001:000487b0       __acrt_getptd_head         00000001400497b0 f   libucrtd:per_thread_data.obj
 0001:000487e0       __acrt_getptd_noexit       00000001400497e0 f   libucrtd:per_thread_data.obj
 0001:000487f0       __acrt_initialize_ptd      00000001400497f0 f   libucrtd:per_thread_data.obj
 0001:00048830       __acrt_uninitialize_ptd    0000000140049830 f   libucrtd:per_thread_data.obj
 0001:00048860       _chvalidator               0000000140049860 f   libucrtd:isctype.obj
 0001:000488d0       _chvalidator_l             00000001400498d0 f   libucrtd:isctype.obj
 0001:00048980       _isctype_l                 0000000140049980 f   libucrtd:isctype.obj
 0001:00048bb0       _isleadbyte_fast_internal  0000000140049bb0 f i libucrtd:isctype.obj
 0001:00048bf0       _free_base                 0000000140049bf0 f   libucrtd:free_base.obj
 0001:00048c50       _realloc_base              0000000140049c50 f   libucrtd:realloc_base.obj
 0001:00048d70       _expand_base               0000000140049d70 f   libucrtd:expand.obj
 0001:00048f00       __acrt_update_locale_info  0000000140049f00 f   libucrtd:locale_update.obj
 0001:00048f50       __acrt_update_multibyte_info 0000000140049f50 f   libucrtd:locale_update.obj
 0001:00048fa0       _CrtDefaultAllocHook       0000000140049fa0 f   libucrtd:debug_heap_hook.obj
 0001:00048fc0       __acrt_initialize_heap     0000000140049fc0 f   libucrtd:heap_handle.obj
 0001:00048ff0       __acrt_uninitialize_heap   0000000140049ff0 f   libucrtd:heap_handle.obj
 0001:00049010       _VCrtDbgReportA            000000014004a010 f   libucrtd:dbgrptt.obj
 0001:000499f0       _VCrtDbgReportW            000000014004a9f0 f   libucrtd:dbgrptt.obj
 0001:0004a570       _snprintf_s                000000014004b570 f i libucrtd:dbgrptt.obj
 0001:0004a5e0       _vsnprintf_s               000000014004b5e0 f i libucrtd:dbgrptt.obj
 0001:0004a630       _vsnprintf_s_l             000000014004b630 f i libucrtd:dbgrptt.obj
 0001:0004ab90       wcscpy_s                   000000014004bb90 f   libucrtd:wcscpy_s.obj
 0001:0004abc0       ?__acrt_get_utf8_acp_compatibility_codepage@@YAIXZ 000000014004bbc0 f i libucrtd:getmodulefilenamea.obj
 0001:0004ac60       __acrt_GetModuleFileNameA  000000014004bc60 f   libucrtd:getmodulefilenamea.obj
 0001:0004ae80       ??$message_box@PEAUHWND__@@AEBQEB_WAEBQEB_WAEBI@?$__crt_char_traits@_W@@SAH$$QEAPEAUHWND__@@AEBQEB_W1AEBI@Z 000000014004be80 f i libucrtd:crtmbox.obj
 0001:0004ae80       ??$message_box@$$TAEBQEB_WAEBQEB_WK@?$__crt_char_traits@_W@@SAH$$QEA$$TAEBQEB_W1$$QEAK@Z 000000014004be80 f i libucrtd:crtmbox.obj
 0001:0004aed0       ??$output_debug_string@AEBQEB_W@?$__crt_char_traits@_W@@SAXAEBQEB_W@Z 000000014004bed0 f i libucrtd:crtmbox.obj
 0001:0004aef0       __acrt_show_wide_message_box 000000014004bef0 f   libucrtd:crtmbox.obj
 0001:0004b0e0       __acrt_get_sigabrt_handler 000000014004c0e0 f   libucrtd:signal.obj
 0001:0004b110       __acrt_initialize_signal_handlers 000000014004c110 f   libucrtd:signal.obj
 0001:0004b170       __fpecode                  000000014004c170 f   libucrtd:signal.obj
 0001:0004b190       raise                      000000014004c190 f   libucrtd:signal.obj
 0001:0004b650       _dsign                     000000014004c650 f   libucrtd:nan.obj
 0001:0004b670       _errcode                   000000014004c670 f   libucrtd:fpexcept.obj
 0001:0004b6f0       _except1                   000000014004c6f0 f   libucrtd:fpexcept.obj
 0001:0004b890       _handle_exc                000000014004c890 f   libucrtd:fpexcept.obj
 0001:0004bcf0       _raise_exc                 000000014004ccf0 f   libucrtd:fpexcept.obj
 0001:0004bd50       _raise_exc_ex              000000014004cd50 f   libucrtd:fpexcept.obj
 0001:0004c3d0       _raise_excf                000000014004d3d0 f   libucrtd:fpexcept.obj
 0001:0004c430       _set_errno_from_matherr    000000014004d430 f   libucrtd:fpexcept.obj
 0001:0004c480       _umatherr                  000000014004d480 f   libucrtd:fpexcept.obj
 0001:0004c550       _decomp                    000000014004d550 f   libucrtd:util.obj
 0001:0004c6a0       _set_exp                   000000014004d6a0 f   libucrtd:util.obj
 0001:0004c6f0       _sptype                    000000014004d6f0 f   libucrtd:util.obj
 0001:0004c770       _clrfp                     000000014004d770 f   libucrtd:fpctrl.obj
 0001:0004c7a0       _ctrlfp                    000000014004d7a0 f   libucrtd:fpctrl.obj
 0001:0004c850       _set_statfp                000000014004d850 f   libucrtd:fpctrl.obj
 0001:0004c890       _statfp                    000000014004d890 f   libucrtd:fpctrl.obj
 0001:0004cba0       __acrt_get_developer_information_policy 000000014004dba0 f   libucrtd:win_policies.obj
 0001:0004cbc0       __acrt_get_process_end_policy 000000014004dbc0 f   libucrtd:win_policies.obj
 0001:0004cbd0       __acrt_get_windowing_model_policy 000000014004dbd0 f   libucrtd:win_policies.obj
 0001:0004d680       GetCurrentThreadEffectiveToken 000000014004e680 f i libucrtd:winapi_thunks.obj
 0001:0004d690       __acrt_AppPolicyGetProcessTerminationMethodInternal 000000014004e690 f   libucrtd:winapi_thunks.obj
 0001:0004d6e0       __acrt_AppPolicyGetShowDeveloperDiagnosticInternal 000000014004e6e0 f   libucrtd:winapi_thunks.obj
 0001:0004d730       __acrt_AppPolicyGetWindowingModelInternal 000000014004e730 f   libucrtd:winapi_thunks.obj
 0001:0004d780       __acrt_AreFileApisANSI     000000014004e780 f   libucrtd:winapi_thunks.obj
 0001:0004d7c0       __acrt_EnumSystemLocalesEx 000000014004e7c0 f   libucrtd:winapi_thunks.obj
 0001:0004d840       __acrt_FlsAlloc            000000014004e840 f   libucrtd:winapi_thunks.obj
 0001:0004d890       __acrt_FlsFree             000000014004e890 f   libucrtd:winapi_thunks.obj
 0001:0004d8e0       __acrt_FlsGetValue         000000014004e8e0 f   libucrtd:winapi_thunks.obj
 0001:0004d930       __acrt_FlsSetValue         000000014004e930 f   libucrtd:winapi_thunks.obj
 0001:0004d990       __acrt_GetLocaleInfoEx     000000014004e990 f   libucrtd:winapi_thunks.obj
 0001:0004da10       __acrt_GetUserDefaultLocaleName 000000014004ea10 f   libucrtd:winapi_thunks.obj
 0001:0004da70       __acrt_InitializeCriticalSectionEx 000000014004ea70 f   libucrtd:winapi_thunks.obj
 0001:0004dad0       __acrt_IsValidLocaleName   000000014004ead0 f   libucrtd:winapi_thunks.obj
 0001:0004db30       __acrt_LCIDToLocaleName    000000014004eb30 f   libucrtd:winapi_thunks.obj
 0001:0004dba0       __acrt_LCMapStringEx       000000014004eba0 f   libucrtd:winapi_thunks.obj
 0001:0004dc80       __acrt_LocaleNameToLCID    000000014004ec80 f   libucrtd:winapi_thunks.obj
 0001:0004dcd0       __acrt_MessageBoxW         000000014004ecd0 f   libucrtd:winapi_thunks.obj
 0001:0004dd30       __acrt_can_show_message_box 000000014004ed30 f   libucrtd:winapi_thunks.obj
 0001:0004dd70       __acrt_can_use_vista_locale_apis 000000014004ed70 f   libucrtd:winapi_thunks.obj
 0001:0004dda0       __acrt_eagerly_load_locale_apis 000000014004eda0 f   libucrtd:winapi_thunks.obj
 0001:0004dde0       __acrt_get_parent_window   000000014004ede0 f   libucrtd:winapi_thunks.obj
 0001:0004de60       __acrt_initialize_winapi_thunks 000000014004ee60 f   libucrtd:winapi_thunks.obj
 0001:0004dee0       __acrt_is_interactive      000000014004eee0 f   libucrtd:winapi_thunks.obj
 0001:0004dfc0       __acrt_uninitialize_winapi_thunks 000000014004efc0 f   libucrtd:winapi_thunks.obj
 0001:0004e060       _fcloseall                 000000014004f060 f   libucrtd:closeall.obj
 0001:0004e170       ?has_crt_buffer@__crt_stdio_stream@@QEBA_NXZ 000000014004f170 f i libucrtd:_freebuf.obj
 0001:0004e190       __acrt_stdio_free_buffer_nolock 000000014004f190 f   libucrtd:_freebuf.obj
 0001:0004e610       __acrt_initialize_lowio    000000014004f610 f   libucrtd:ioinit.obj
 0001:0004e660       __acrt_uninitialize_lowio  000000014004f660 f   libucrtd:ioinit.obj
 0001:0004e950       _close                     000000014004f950 f   libucrtd:close.obj
 0001:0004eb40       _close_nolock              000000014004fb40 f   libucrtd:close.obj
 0001:0004ebb0       _fileno                    000000014004fbb0 f   libucrtd:fileno.obj
 0001:0004ec90       ?__acrt_stdio_allocate_stream@@YA?AV__crt_stdio_stream@@XZ 000000014004fc90 f   libucrtd:stream.obj
 0001:0004ed50       ?__acrt_stdio_free_stream@@YAXV__crt_stdio_stream@@@Z 000000014004fd50 f   libucrtd:stream.obj
 0001:0004edf0       ?deallocate@__crt_stdio_stream@@QEAAXXZ 000000014004fdf0 f i libucrtd:stream.obj
 0001:0004efc0       ?lock@__crt_stdio_stream@@QEBAXXZ 000000014004ffc0 f i libucrtd:stream.obj
 0001:0004efe0       ?try_allocate@__crt_stdio_stream@@QEAA_NXZ 000000014004ffe0 f i libucrtd:stream.obj
 0001:0004f1c0       _commit                    00000001400501c0 f   libucrtd:commit.obj
 0001:00050da0       _utf8_no_of_trailbytes     0000000140051da0 f i libucrtd:write.obj
 0001:00050dc0       _write                     0000000140051dc0 f   libucrtd:write.obj
 0001:00051060       _write_nolock              0000000140052060 f   libucrtd:write.obj
 0001:00051ad0       __acrt_stdio_refill_and_read_narrow_nolock 0000000140052ad0 f   libucrtd:_filbuf.obj
 0001:00052750       ?ctrl_z@__crt_stdio_stream@@QEBA_NXZ 0000000140053750 f i libucrtd:ftell.obj
 0001:00052770       ?has_setvbuf_buffer@__crt_stdio_stream@@QEBA_NXZ 0000000140053770 f i libucrtd:ftell.obj
 0001:00052790       _ftelli64                  0000000140053790 f   libucrtd:ftell.obj
 0001:000527c0       _ftelli64_nolock           00000001400537c0 f   libucrtd:ftell.obj
 0001:00053220       __acrt_stdio_flush_and_write_narrow_nolock 0000000140054220 f   libucrtd:_flsbuf.obj
 0001:00053250       __acrt_stdio_flush_and_write_wide_nolock 0000000140054250 f   libucrtd:_flsbuf.obj
 0001:00054080       _read                      0000000140055080 f   libucrtd:read.obj
 0001:000543d0       _read_nolock               00000001400553d0 f   libucrtd:read.obj
 0001:00055590       _lseeki64                  0000000140056590 f   libucrtd:lseek.obj
 0001:000555c0       _lseeki64_nolock           00000001400565c0 f   libucrtd:lseek.obj
 0001:000555f0       ?has_temporary_buffer@__crt_stdio_stream@@QEBA_NXZ 00000001400565f0 f i libucrtd:_sftbuf.obj
 0001:00055610       __acrt_should_use_temporary_buffer 0000000140056610 f   libucrtd:_sftbuf.obj
 0001:00055660       __acrt_stdio_begin_temporary_buffering_nolock 0000000140056660 f   libucrtd:_sftbuf.obj
 0001:000558a0       __acrt_stdio_end_temporary_buffering_nolock 00000001400568a0 f   libucrtd:_sftbuf.obj
 0001:00055940       __acrt_stdio_allocate_buffer_nolock 0000000140056940 f   libucrtd:_getbuf.obj
 0001:00055ac0       _CrtGetDebugFillThreshold  0000000140056ac0 f   libucrtd:debug_fill_threshold.obj
 0001:00055ad0       ??$parse_integer_from_string@JDPEAPEAD@__crt_strtox@@YAJQEBDQEAPEADHQEAU__crt_locale_pointers@@@Z 0000000140056ad0 f i libucrtd:strtox.obj
 0001:00055b20       strtol                     0000000140056b20 f   libucrtd:strtox.obj
 0001:00055b50       wcstol                     0000000140056b50 f   libucrtd:strtox.obj
 0001:00055b80       _mbtowc_l                  0000000140056b80 f   libucrtd:mbtowc.obj
 0001:00055fe0       mbtowc                     0000000140056fe0 f   libucrtd:mbtowc.obj
 0001:00056010       _wctomb_s_l                0000000140057010 f   libucrtd:wctomb.obj
 0001:00056590       wctomb_s                   0000000140057590 f   libucrtd:wctomb.obj
 0001:000565e0       ?__acrt_fp_classify@@YA?AW4__acrt_fp_class@@AEBN@Z 00000001400575e0 f i libucrtd:cvt.obj
 0001:000566e0       ?__acrt_fp_is_negative@@YA_NAEBN@Z 00000001400576e0 f i libucrtd:cvt.obj
 0001:000580b0       ?strrchr@@YAPEADQEADH@Z    00000001400590b0 f i libucrtd:cvt.obj
 0001:000580d0       __acrt_fp_format           00000001400590d0 f   libucrtd:cvt.obj
 0001:00058780       _fputwc_nolock             0000000140059780 f   libucrtd:fputwc.obj
 0001:000589f0       _get_printf_count_output   00000001400599f0 f   libucrtd:printf_count_output.obj
 0001:00059610       _itoa_s                    000000014005a610 f   libucrtd:xtoa.obj
 0001:00059670       _itow_s                    000000014005a670 f   libucrtd:xtoa.obj
 0001:000596d0       _set_error_mode            000000014005a6d0 f   libucrtd:set_error_mode.obj
 0001:00059e50       wcscat_s                   000000014005ae50 f   libucrtd:wcscat_s.obj
 0001:0005a610       wcsncat_s                  000000014005b610 f   libucrtd:wcsncat_s.obj
 0001:0005acc0       strcat_s                   000000014005bcc0 f   libucrtd:strcat_s.obj
 0001:0005b2d0       _mbstowcs_s_l              000000014005c2d0 f   libucrtd:mbstowcs.obj
 0001:0005b8a0       mbstowcs_s                 000000014005c8a0 f   libucrtd:mbstowcs.obj
 0001:0005c230       _wcstombs_s_l              000000014005d230 f   libucrtd:wcstombs.obj
 0001:0005c770       wcstombs_s                 000000014005d770 f   libucrtd:wcstombs.obj
 0001:0005c9d0       __acrt_GetLocaleInfoA      000000014005d9d0 f   libucrtd:getlocaleinfoa.obj
 0001:0005ce30       __acrt_GetStringTypeA      000000014005de30 f   libucrtd:getstringtypea.obj
 0001:0005d680       __acrt_LCMapStringA        000000014005e680 f   libucrtd:lcmapstringa.obj
 0001:0005d730       ??$__acrt_stdio_parse_mode@D@@YA?AU__acrt_stdio_stream_mode@@QEBD@Z 000000014005e730 f i libucrtd:openfile.obj
 0001:0005e480       ??$tcsncmp@AEAPEBDAEAY02$$CBD_K@?$__crt_char_traits@D@@SAHAEAPEBDAEAY02$$CBD$$QEA_K@Z 000000014005f480 f i libucrtd:openfile.obj
 0001:0005e4c0       ??$tcsnicmp@AEAPEBDAEAY07$$CBD_K@?$__crt_char_traits@D@@SAHAEAPEBDAEAY07$$CBD$$QEA_K@Z 000000014005f4c0 f i libucrtd:openfile.obj
 0001:0005e4c0       ??$tcsnicmp@AEAPEBDAEAY04$$CBD_K@?$__crt_char_traits@D@@SAHAEAPEBDAEAY04$$CBD$$QEA_K@Z 000000014005f4c0 f i libucrtd:openfile.obj
 0001:0005e4c0       ??$tcsnicmp@AEAPEBDAEAY06$$CBD_K@?$__crt_char_traits@D@@SAHAEAPEBDAEAY06$$CBD$$QEA_K@Z 000000014005f4c0 f i libucrtd:openfile.obj
 0001:0005e500       ??$tsopen_s@PEAHAEBQEBDAEBHAEBHH@?$__crt_char_traits@D@@SAH$$QEAPEAHAEBQEBDAEBH2$$QEAH@Z 000000014005f500 f i libucrtd:openfile.obj
 0001:0005e550       ?__acrt_stdio_parse_mode_D@@YA_NAEAU__acrt_stdio_stream_mode@@@Z 000000014005f550 f i libucrtd:openfile.obj
 0001:0005e580       ?__acrt_stdio_parse_mode_N@@YA_NAEAU__acrt_stdio_stream_mode@@@Z 000000014005f580 f i libucrtd:openfile.obj
 0001:0005e5a0       ?__acrt_stdio_parse_mode_R@@YA_NAEAU__acrt_stdio_stream_mode@@AEA_N@Z 000000014005f5a0 f i libucrtd:openfile.obj
 0001:0005e5e0       ?__acrt_stdio_parse_mode_S@@YA_NAEAU__acrt_stdio_stream_mode@@AEA_N@Z 000000014005f5e0 f i libucrtd:openfile.obj
 0001:0005e620       ?__acrt_stdio_parse_mode_T@@YA_NAEAU__acrt_stdio_stream_mode@@@Z 000000014005f620 f i libucrtd:openfile.obj
 0001:0005e650       ?__acrt_stdio_parse_mode_b@@YA_NAEAU__acrt_stdio_stream_mode@@@Z 000000014005f650 f i libucrtd:openfile.obj
 0001:0005e680       ?__acrt_stdio_parse_mode_c@@YA_NAEAU__acrt_stdio_stream_mode@@AEA_N@Z 000000014005f680 f i libucrtd:openfile.obj
 0001:0005e6c0       ?__acrt_stdio_parse_mode_n@@YA_NAEAU__acrt_stdio_stream_mode@@AEA_N@Z 000000014005f6c0 f i libucrtd:openfile.obj
 0001:0005e700       ?__acrt_stdio_parse_mode_plus@@YA_NAEAU__acrt_stdio_stream_mode@@AEA_N@Z 000000014005f700 f i libucrtd:openfile.obj
 0001:0005e780       ?__acrt_stdio_parse_mode_t@@YA_NAEAU__acrt_stdio_stream_mode@@@Z 000000014005f780 f i libucrtd:openfile.obj
 0001:0005e7b0       ?__acrt_stdio_parse_mode_x@@YA_NAEAU__acrt_stdio_stream_mode@@@Z 000000014005f7b0 f i libucrtd:openfile.obj
 0001:0005e7e0       _openfile                  000000014005f7e0 f   libucrtd:openfile.obj
 0001:0005e830       __acrt_initialize_fma3     000000014005f830 f   libucrtd:fma3_available.obj
 0001:0005e8e0       _pow_special               000000014005f8e0 f   libucrtd:pow_special.obj
 0001:0005eb60       _powf_special              000000014005fb60 f   libucrtd:pow_special.obj
 0001:0005eea0       iswctype                   000000014005fea0 f   libucrtd:iswctype.obj
 0001:0005ef30       fegetround                 000000014005ff30 f   libucrtd:fegetround.obj
 0001:0005eff0       __acrt_MultiByteToWideChar 000000014005fff0 f   libucrtd:multibytetowidechar.obj
 0001:0005f0f0       __acrt_WideCharToMultiByte 00000001400600f0 f   libucrtd:widechartomultibyte.obj
 0001:0005f220       __ascii_wcsicmp            0000000140060220 f   libucrtd:wcsicmp.obj
 0001:0005f2c0       _towlower_fast_internal    00000001400602c0 f i libucrtd:wcsicmp.obj
 0001:0005f310       _towlower_internal         0000000140060310 f i libucrtd:wcsicmp.obj
 0001:0005f350       _wcsicmp                   0000000140060350 f   libucrtd:wcsicmp.obj
 0001:0005f4f0       _wcsicmp_l                 00000001400604f0 f   libucrtd:wcsicmp.obj
 0001:0005f790       ?initialize@?$dual_state_global@J@__crt_state_management@@QEAAXJ@Z 0000000140060790 f i libucrtd:timeset.obj
 0001:0005f790       ?initialize@?$dual_state_global@H@__crt_state_management@@QEAAXH@Z 0000000140060790 f i libucrtd:timeset.obj
 0001:0005f7e0       __acrt_initialize_timeset  00000001400607e0 f   libucrtd:timeset.obj
 0001:0005f8c0       _isleadbyte_l              00000001400608c0 f i libucrtd:_wctype.obj
 0001:0005ffc0       wcsncpy_s                  0000000140060fc0 f   libucrtd:wcsncpy_s.obj
 0001:000601d0       ??$__acrt_wcs_to_mbs_cp@U__crt_win32_buffer_internal_dynamic_resizing@@@@YAHQEB_WAEAV?$__crt_win32_buffer@DU__crt_win32_buffer_internal_dynamic_resizing@@@@I@Z 00000001400611d0 f i libucrtd:argv_wildcards.obj
 0001:00060c20       ??$tcsncpy_s@PEAD_KAEBQEBDAEB_K@?$__crt_char_traits@D@@SAH$$QEAPEAD$$QEA_KAEBQEBDAEB_K@Z 0000000140061c20 f i libucrtd:argv_wildcards.obj
 0001:00060c20       ??$tcsncpy_s@PEADAEB_KAEBQEBDAEB_K@?$__crt_char_traits@D@@SAH$$QEAPEADAEB_KAEBQEBD1@Z 0000000140061c20 f i libucrtd:argv_wildcards.obj
 0001:00060c20       ??$tcsncpy_s@AEAPEAD_KAEAPEADAEB_K@?$__crt_char_traits@D@@SAHAEAPEAD$$QEA_K0AEB_K@Z 0000000140061c20 f i libucrtd:argv_wildcards.obj
 0001:00060c70       ??$tcspbrk@AEAPEADAEAY02$$CBD@?$__crt_char_traits@D@@SAPEADAEAPEADAEAY02$$CBD@Z 0000000140061c70 f i libucrtd:argv_wildcards.obj
 0001:00060ce0       ??1?$__crt_unique_handle_t@U__crt_findfile_traits@@@@QEAA@XZ 0000000140061ce0 f i libucrtd:argv_wildcards.obj
 0001:00060e10       ?allocate@?$__crt_win32_buffer@DU__crt_win32_buffer_internal_dynamic_resizing@@@@QEAAH_K@Z 0000000140061e10 f i libucrtd:argv_wildcards.obj
 0001:00060f00       ?close@?$__crt_unique_handle_t@U__crt_findfile_traits@@@@QEAAXXZ 0000000140061f00 f i libucrtd:argv_wildcards.obj
 0001:00060f40       ?close@__crt_findfile_traits@@SA_NPEAX@Z 0000000140061f40 f i libucrtd:argv_wildcards.obj
 0001:00061260       ?strpbrk@@YAPEADQEADQEBD@Z 0000000140062260 f i libucrtd:argv_wildcards.obj
 0001:00061290       __acrt_expand_narrow_argv_wildcards 0000000140062290 f   libucrtd:argv_wildcards.obj
 0001:00061350       ??$initialize_from_array@$$BY10BAA@E@?$dual_state_global@PEAE@__crt_state_management@@QEAAXAEAY10BAA@E@Z 0000000140062350 f i libucrtd:mbctype.obj
 0001:000613c0       ??$initialize_from_array@$$BY10BAB@E@?$dual_state_global@PEAE@__crt_state_management@@QEAAXAEAY10BAB@E@Z 00000001400623c0 f i libucrtd:mbctype.obj
 0001:00061f30       __acrt_initialize_multibyte 0000000140062f30 f   libucrtd:mbctype.obj
 0001:00062000       __acrt_update_thread_multibyte_data 0000000140063000 f   libucrtd:mbctype.obj
 0001:00062030       _setmbcp_nolock            0000000140063030 f   libucrtd:mbctype.obj
 0001:00062590       _ismbblead                 0000000140063590 f   libucrtd:ismbbyte.obj
 0001:000625b0       __acrt_initialize_command_line 00000001400635b0 f   libucrtd:argv_data.obj
 0001:000625d8       __dcrt_get_narrow_environment_from_os 00000001400635d8 f   libucrtd:get_environment_from_os.obj
 0001:000626f0       ?wcschr@@YAPEA_WPEA_W_W@Z  00000001400636f0 f i libucrtd:setenv.obj
 0001:00062700       __acrt_lowio_create_handle_array 0000000140063700 f   libucrtd:osfinfo.obj
 0001:000628c0       __acrt_lowio_destroy_handle_array 00000001400638c0 f   libucrtd:osfinfo.obj
 0001:00062940       __acrt_lowio_ensure_fh_exists 0000000140063940 f   libucrtd:osfinfo.obj
 0001:00062aa0       __acrt_lowio_lock_fh       0000000140063aa0 f   libucrtd:osfinfo.obj
 0001:00062ae0       __acrt_lowio_set_os_handle 0000000140063ae0 f   libucrtd:osfinfo.obj
 0001:00062bf0       __acrt_lowio_unlock_fh     0000000140063bf0 f   libucrtd:osfinfo.obj
 0001:00062c30       _alloc_osfhnd              0000000140063c30 f   libucrtd:osfinfo.obj
 0001:00062e40       _free_osfhnd               0000000140063e40 f   libucrtd:osfinfo.obj
 0001:00062f70       _get_osfhandle             0000000140063f70 f   libucrtd:osfinfo.obj
 0001:00063170       __acrt_initialize_fmode    0000000140064170 f   libucrtd:txtmode.obj
 0001:000631d0       __acrt_locale_free_monetary 00000001400641d0 f   libucrtd:initmon.obj
 0001:000633e0       __acrt_locale_initialize_monetary 00000001400643e0 f   libucrtd:initmon.obj
 0001:00063d90       __acrt_locale_free_numeric 0000000140064d90 f   libucrtd:initnum.obj
 0001:00063e70       __acrt_locale_initialize_numeric 0000000140064e70 f   libucrtd:initnum.obj
 0001:00064af0       __acrt_locale_free_time    0000000140065af0 f   libucrtd:inittime.obj
 0001:00064c60       __acrt_locale_initialize_time 0000000140065c60 f   libucrtd:inittime.obj
 0001:00064d00       wcscmp                     0000000140065d00 f   libucrtd:wcscmp.obj
 0001:00064da0       wcscspn                    0000000140065da0 f   libucrtd:wcscspn.obj
 0001:00064e40       wcspbrk                    0000000140065e40 f   libucrtd:wcspbrk.obj
 0001:00064ec0       __acrt_add_locale_ref      0000000140065ec0 f   libucrtd:locale_refcounting.obj
 0001:00065020       __acrt_free_locale         0000000140066020 f   libucrtd:locale_refcounting.obj
 0001:000653a0       __acrt_locale_add_lc_time_reference 00000001400663a0 f   libucrtd:locale_refcounting.obj
 0001:000653e0       __acrt_locale_free_lc_time_if_unreferenced 00000001400663e0 f   libucrtd:locale_refcounting.obj
 0001:00065440       __acrt_locale_release_lc_time_reference 0000000140066440 f   libucrtd:locale_refcounting.obj
 0001:00065480       __acrt_release_locale_ref  0000000140066480 f   libucrtd:locale_refcounting.obj
 0001:000655f0       __acrt_update_thread_locale_data 00000001400665f0 f   libucrtd:locale_refcounting.obj
 0001:00065690       _updatetlocinfoEx_nolock   0000000140066690 f   libucrtd:locale_refcounting.obj
 0001:00066410       __acrt_get_qualified_locale 0000000140067410 f   libucrtd:get_qualified_locale.obj
 0001:00067530       __acrt_get_qualified_locale_downlevel 0000000140068530 f   libucrtd:getqloc_downlevel.obj
 0001:00067890       __acrt_execute_initializers 0000000140068890 f   libucrtd:shared_initialization.obj
 0001:00067980       __acrt_execute_uninitializers 0000000140068980 f   libucrtd:shared_initialization.obj
 0001:00067a00       _malloc_base               0000000140068a00 f   libucrtd:malloc_base.obj
 0001:00067aa0       __acrt_OutputDebugStringA  0000000140068aa0 f   libucrtd:outputdebugstringa.obj
 0001:00067b70       _get_fpsr                  0000000140068b70 f   libucrtd:fpsr.obj
 0001:00067b80       _set_fpsr                  0000000140068b80 f   libucrtd:fpsr.obj
 0001:00067b8a       _fclrf                     0000000140068b8a f   libucrtd:fpsr.obj
 0001:00067b9e       _frnd                      0000000140068b9e f   libucrtd:fpsr.obj
 0001:00067d00       __acrt_DownlevelLCIDToLocaleName 0000000140068d00 f   libucrtd:lcidtoname_downlevel.obj
 0001:00067e00       __acrt_DownlevelLocaleNameToLCID 0000000140068e00 f   libucrtd:lcidtoname_downlevel.obj
 0001:00067e60       _isatty                    0000000140068e60 f   libucrtd:isatty.obj
 0001:00067fe0       ?__mbrtowc_utf8@__crt_mbstring@@YA_KPEA_WPEBD_KPEAU_Mbstatet@@@Z 0000000140068fe0 f   libucrtd:mbrtowc.obj
 0001:00068050       ?__mbsrtowcs_utf8@__crt_mbstring@@YA_KPEA_WPEAPEBD_KPEAU_Mbstatet@@@Z 0000000140069050 f   libucrtd:mbrtowc.obj
 0001:00068350       _putwch_nolock             0000000140069350 f   libucrtd:putwch.obj
 0001:00068390       ?__c32rtomb_utf8@__crt_mbstring@@YA_KPEAD_UPEAU_Mbstatet@@@Z 0000000140069390 f   libucrtd:c32rtomb.obj
 0001:00068610       ?reset_and_return@__crt_mbstring@@YA_K_KPEAU_Mbstatet@@@Z 0000000140069610 f i libucrtd:c32rtomb.obj
 0001:00068650       ?return_illegal_sequence@__crt_mbstring@@YA_KPEAU_Mbstatet@@@Z 0000000140069650 f i libucrtd:c32rtomb.obj
 0001:00068690       c32rtomb                   0000000140069690 f   libucrtd:c32rtomb.obj
 0001:00068850       __acrt_fp_strflt_to_string 0000000140069850 f   libucrtd:_fptostr.obj
 0001:000693d0       ??8__crt_strtox@@YA_NAEBUbig_integer@0@0@Z 000000014006a3d0 f i libucrtd:cfout.obj
 0001:00069440       ??9__crt_strtox@@YA_NAEBUbig_integer@0@0@Z 000000014006a440 f i libucrtd:cfout.obj
 0001:00069480       ?is_zero@__crt_strtox@@YA_NAEBUbig_integer@1@@Z 000000014006a480 f i libucrtd:cfout.obj
 0001:000694b0       ?make_big_integer_power_of_two@__crt_strtox@@YA?AUbig_integer@1@I@Z 000000014006a4b0 f i libucrtd:cfout.obj
 0001:00069580       __acrt_fltout              000000014006a580 f   libucrtd:cfout.obj
 0001:00069930       ?__wcsrtombs_utf8@__crt_mbstring@@YA_KPEADPEAPEB_W_KPEAU_Mbstatet@@@Z 000000014006a930 f   libucrtd:wcrtomb.obj
 0001:0006a220       strncpy_s                  000000014006b220 f   libucrtd:strncpy_s.obj
 0001:0006a260       __ascii_wcsnicmp           000000014006b260 f   libucrtd:wcsnicmp.obj
 0001:0006a330       _wcsnicmp                  000000014006b330 f   libucrtd:wcsnicmp.obj
 0001:0006a4e0       _wcsnicmp_l                000000014006b4e0 f   libucrtd:wcsnicmp.obj
 0001:0006a7c0       __ascii_strnicmp           000000014006b7c0 f   libucrtd:strnicmp.obj
 0001:0006a890       _strnicmp                  000000014006b890 f   libucrtd:strnicmp.obj
 0001:0006aae0       _strnicmp_l                000000014006bae0 f   libucrtd:strnicmp.obj
 0001:0006b160       ??$tsopen_nolock@PEAHAEBQEAHAEBQEBDAEBHAEBHAEBHAEBH@?$__crt_char_traits@D@@SAH$$QEAPEAHAEBQEAHAEBQEBDAEBH333@Z 000000014006c160 f i libucrtd:open.obj
 0001:0006beb0       _sopen_dispatch            000000014006ceb0 f   libucrtd:open.obj
 0001:0006bf00       _sopen_nolock              000000014006cf00 f   libucrtd:open.obj
 0001:0006bfd0       _sopen_s                   000000014006cfd0 f   libucrtd:open.obj
 0001:0006c020       _wsopen_nolock             000000014006d020 f   libucrtd:open.obj
 0001:0006c960       _handle_error              000000014006d960 f   libucrtd:libm_error.obj
 0001:0006caf0       _handle_errorf             000000014006daf0 f   libucrtd:libm_error.obj
 0001:0006cc80       _handle_nan                000000014006dc80 f   libucrtd:libm_error.obj
 0001:0006ccd0       _handle_nanf               000000014006dcd0 f   libucrtd:libm_error.obj
 0001:0006cd10       __acrt_GetStringTypeW      000000014006dd10 f   libucrtd:getstringtypew.obj
 0001:0006cd50       ??$__acrt_fenv_shift_bits@W4__acrt_fenv_abstract_status@@@@YA?AW4__acrt_fenv_abstract_status@@W40@0I@Z 000000014006dd50 f i libucrtd:_fenvutils.obj
 0001:0006cd50       ??$__acrt_fenv_shift_bits@W4__acrt_fenv_abstract_control@@@@YA?AW4__acrt_fenv_abstract_control@@W40@0I@Z 000000014006dd50 f i libucrtd:_fenvutils.obj
 0001:0006cd80       ??$__acrt_fenv_translate_bit@W4__acrt_fenv_abstract_control@@W4__acrt_fenv_machine_sse_control@@@@YA?AW4__acrt_fenv_abstract_control@@W4__acrt_fenv_machine_sse_control@@0W40@1@Z 000000014006dd80 f i libucrtd:_fenvutils.obj
 0001:0006cde0       ??$__acrt_fenv_translate_bit@W4__acrt_fenv_machine_sse_status@@W4__acrt_fenv_abstract_status@@@@YA?AW4__acrt_fenv_machine_sse_status@@W4__acrt_fenv_abstract_status@@0W40@1@Z 000000014006dde0 f i libucrtd:_fenvutils.obj
 0001:0006cde0       ??$__acrt_fenv_translate_bit@W4__acrt_fenv_abstract_status@@W4__acrt_fenv_machine_sse_status@@@@YA?AW4__acrt_fenv_abstract_status@@W4__acrt_fenv_machine_sse_status@@0W40@1@Z 000000014006dde0 f i libucrtd:_fenvutils.obj
 0001:0006ce30       ??$__acrt_fenv_translate_bit@W4__acrt_fenv_machine_sse_control@@W4__acrt_fenv_abstract_control@@@@YA?AW4__acrt_fenv_machine_sse_control@@W4__acrt_fenv_abstract_control@@0W40@1@Z 000000014006de30 f i libucrtd:_fenvutils.obj
 0001:0006ce90       ??$__acrt_fenv_unshift_bits@W4__acrt_fenv_abstract_control@@@@YA?AW4__acrt_fenv_abstract_control@@W40@0I@Z 000000014006de90 f i libucrtd:_fenvutils.obj
 0001:0006ce90       ??$__acrt_fenv_unshift_bits@W4__acrt_fenv_abstract_status@@@@YA?AW4__acrt_fenv_abstract_status@@W40@0I@Z 000000014006de90 f i libucrtd:_fenvutils.obj
 0001:0006d380       ??I@YA?AW4__acrt_fenv_abstract_status@@W40@0@Z 000000014006e380 f i libucrtd:_fenvutils.obj
 0001:0006d380       ??I@YA?AW4__acrt_fenv_abstract_control@@W40@0@Z 000000014006e380 f i libucrtd:_fenvutils.obj
 0001:0006d380       ??I@YA?AW4__acrt_fenv_machine_sse_status@@W40@0@Z 000000014006e380 f i libucrtd:_fenvutils.obj
 0001:0006d3a0       ??I@YA?AW4__acrt_fenv_machine_sse_control@@W40@0@Z 000000014006e3a0 f i libucrtd:_fenvutils.obj
 0001:0006d3c0       ??U@YA?AW4__acrt_fenv_abstract_control@@W40@0@Z 000000014006e3c0 f i libucrtd:_fenvutils.obj
 0001:0006d3c0       ??U@YA?AW4__acrt_fenv_abstract_status@@W40@0@Z 000000014006e3c0 f i libucrtd:_fenvutils.obj
 0001:0006d3e0       ??U@YA?AW4__acrt_fenv_machine_sse_control@@W40@0@Z 000000014006e3e0 f i libucrtd:_fenvutils.obj
 0001:0006d400       ??_5@YAAEAW4__acrt_fenv_machine_sse_status@@AEAW40@W40@@Z 000000014006e400 f i libucrtd:_fenvutils.obj
 0001:0006d400       ??_5@YAAEAW4__acrt_fenv_abstract_control@@AEAW40@W40@@Z 000000014006e400 f i libucrtd:_fenvutils.obj
 0001:0006d400       ??_5@YAAEAW4__acrt_fenv_abstract_status@@AEAW40@W40@@Z 000000014006e400 f i libucrtd:_fenvutils.obj
 0001:0006d430       ??_5@YAAEAW4__acrt_fenv_machine_sse_control@@AEAW40@W40@@Z 000000014006e430 f i libucrtd:_fenvutils.obj
 0001:0006d460       ?__acrt_fenv_shift_abstract_sse_control@@YA?AW4__acrt_fenv_abstract_control@@W41@@Z 000000014006e460 f i libucrtd:_fenvutils.obj
 0001:0006d4b0       ?__acrt_fenv_shift_abstract_sse_status@@YA?AW4__acrt_fenv_abstract_status@@W41@@Z 000000014006e4b0 f i libucrtd:_fenvutils.obj
 0001:0006d4e0       ?__acrt_fenv_unshift_abstract_sse_control@@YA?AW4__acrt_fenv_abstract_control@@W41@@Z 000000014006e4e0 f i libucrtd:_fenvutils.obj
 0001:0006d530       ?__acrt_fenv_unshift_abstract_sse_status@@YA?AW4__acrt_fenv_abstract_status@@W41@@Z 000000014006e530 f i libucrtd:_fenvutils.obj
 0001:0006d800       __acrt_fenv_get_common_round_control 000000014006e800 f   libucrtd:_fenvutils.obj
 0001:0006d820       __acrt_fenv_get_control    000000014006e820 f   libucrtd:_fenvutils.obj
 0001:0006d850       __acrt_fenv_get_status     000000014006e850 f   libucrtd:_fenvutils.obj
 0001:0006d880       __acrt_fenv_set_control    000000014006e880 f   libucrtd:_fenvutils.obj
 0001:0006d8a0       __acrt_fenv_set_status     000000014006e8a0 f   libucrtd:_fenvutils.obj
 0001:0006d8c0       _towlower_l                000000014006e8c0 f   libucrtd:towlower.obj
 0001:0006db60       qsort                      000000014006eb60 f   libucrtd:qsort.obj
 0001:0006e3a0       strpbrk                    000000014006f3a0 f   libucrtd:strpbrk.obj
 0001:0006ec90       _mbsdec                    000000014006fc90 f   libucrtd:mbsdec.obj
 0001:0006ec98       _mbsdec_l                  000000014006fc98 f   libucrtd:mbsdec.obj
 0001:0006edc0       ?__mbrtoc32_utf8@__crt_mbstring@@YA_KPEA_UPEBD_KPEAU_Mbstatet@@@Z 000000014006fdc0 f   libucrtd:mbrtoc32.obj
 0001:0006f174       __dcrt_lowio_ensure_console_output_initialized 0000000140070174 f   libucrtd:initcon.obj
 0001:0006f1c8       __dcrt_terminate_console_output 00000001400701c8 f   libucrtd:initcon.obj
 0001:0006f1e4       __dcrt_write_console       00000001400701e4 f   libucrtd:initcon.obj
 0001:0006f2b0       log10                      00000001400702b0 f   libucrtd:log10.obj
 0001:0006f860       ceil                       0000000140070860 f   libucrtd:ceil.obj
 0001:0006fa30       _controlfp_s               0000000140070a30 f   libucrtd:contrlfp.obj
 0001:0006fb60       fegetenv                   0000000140070b60 f   libucrtd:fegetenv.obj
 0001:0006fb90       fesetenv                   0000000140070b90 f   libucrtd:fesetenv.obj
 0001:0006fc10       feholdexcept               0000000140070c10 f   libucrtd:feholdexcept.obj
 0001:0006fc80       ?__c16rtomb_utf8@__crt_mbstring@@YA_KPEAD_SPEAU_Mbstatet@@@Z 0000000140070c80 f   libucrtd:c16rtomb.obj
 0001:0006fea0       ??0__crt_seek_guard@@QEAA@H_J@Z 0000000140070ea0 f i libucrtd:chsize.obj
 0001:0006ff20       ??1__crt_seek_guard@@QEAA@XZ 0000000140070f20 f i libucrtd:chsize.obj
 0001:0006ff50       _chsize_nolock             0000000140070f50 f   libucrtd:chsize.obj
 0001:000701d0       __acrt_LCMapStringW        00000001400711d0 f   libucrtd:lcmapstringw.obj
 0001:00070290       _log10_special             0000000140071290 f   libucrtd:log_special.obj
 0001:000705f0       _clearfp                   00000001400715f0 f   libucrtd:ieee.obj
 0001:00070610       _control87                 0000000140071610 f   libucrtd:ieee.obj
 0001:000708a0       _FindPESection             00000001400718a0 f   LIBCMTD:pesect.obj
 0001:00070950       _IsNonwritableInCurrentImage 0000000140071950 f   LIBCMTD:pesect.obj
 0001:000709e0       _ValidateImageBase         00000001400719e0 f   LIBCMTD:pesect.obj
 0001:00070a60       __GSHandlerCheck_SEH       0000000140071a60 f   LIBCMTD:gshandlerseh.obj
 0001:00070b20       __GSHandlerCheck_EH        0000000140071b20 f   LIBCMTD:gshandlereh.obj
 0001:00070bd0       _local_unwind              0000000140071bd0 f   libvcruntimed:jmpuwind.obj
 0001:00070c00       strrchr                    0000000140071c00 f   libvcruntimed:strrchr.obj
 0001:00071020       wcschr                     0000000140072020 f   libvcruntimed:wcschr.obj
 0001:00071190       _guard_dispatch_icall_nop  0000000140072190 f   LIBCMTD:guard_dispatch.obj
 0001:000711b0       _guard_xfg_dispatch_icall_nop 00000001400721b0 f   LIBCMTD:guard_xfg_dispatch.obj
 0002:00000000       __imp_CompareFileTime      0000000140074000     Kernel32:KERNEL32.dll
 0002:00000008       __imp_GetFileAttributesExA 0000000140074008     Kernel32:KERNEL32.dll
 0002:00000010       __imp_VirtualAlloc         0000000140074010     Kernel32:KERNEL32.dll
 0002:00000018       __imp_FreeLibrary          0000000140074018     Kernel32:KERNEL32.dll
 0002:00000020       __imp_GetProcAddress       0000000140074020     Kernel32:KERNEL32.dll
 0002:00000028       __imp_LoadLibraryA         0000000140074028     Kernel32:KERNEL32.dll
 0002:00000030       __imp_CopyFileA            0000000140074030     Kernel32:KERNEL32.dll
 0002:00000038       __imp_SetEndOfFile         0000000140074038     Kernel32:KERNEL32.dll
 0002:00000040       __imp_WideCharToMultiByte  0000000140074040     Kernel32:KERNEL32.dll
 0002:00000048       __imp_EnterCriticalSection 0000000140074048     Kernel32:KERNEL32.dll
 0002:00000050       __imp_LeaveCriticalSection 0000000140074050     Kernel32:KERNEL32.dll
 0002:00000058       __imp_InitializeCriticalSectionEx 0000000140074058     Kernel32:KERNEL32.dll
 0002:00000060       __imp_DeleteCriticalSection 0000000140074060     Kernel32:KERNEL32.dll
 0002:00000068       __imp_EncodePointer        0000000140074068     Kernel32:KERNEL32.dll
 0002:00000070       __imp_DecodePointer        0000000140074070     Kernel32:KERNEL32.dll
 0002:00000078       __imp_MultiByteToWideChar  0000000140074078     Kernel32:KERNEL32.dll
 0002:00000080       __imp_LCMapStringEx        0000000140074080     Kernel32:KERNEL32.dll
 0002:00000088       __imp_GetStringTypeW       0000000140074088     Kernel32:KERNEL32.dll
 0002:00000090       __imp_GetCPInfo            0000000140074090     Kernel32:KERNEL32.dll
 0002:00000098       __imp_RtlCaptureContext    0000000140074098     Kernel32:KERNEL32.dll
 0002:000000a0       __imp_RtlLookupFunctionEntry 00000001400740a0     Kernel32:KERNEL32.dll
 0002:000000a8       __imp_RtlVirtualUnwind     00000001400740a8     Kernel32:KERNEL32.dll
 0002:000000b0       __imp_UnhandledExceptionFilter 00000001400740b0     Kernel32:KERNEL32.dll
 0002:000000b8       __imp_SetUnhandledExceptionFilter 00000001400740b8     Kernel32:KERNEL32.dll
 0002:000000c0       __imp_GetCurrentProcess    00000001400740c0     Kernel32:KERNEL32.dll
 0002:000000c8       __imp_TerminateProcess     00000001400740c8     Kernel32:KERNEL32.dll
 0002:000000d0       __imp_IsProcessorFeaturePresent 00000001400740d0     Kernel32:KERNEL32.dll
 0002:000000d8       __imp_QueryPerformanceCounter 00000001400740d8     Kernel32:KERNEL32.dll
 0002:000000e0       __imp_GetCurrentProcessId  00000001400740e0     Kernel32:KERNEL32.dll
 0002:000000e8       __imp_GetCurrentThreadId   00000001400740e8     Kernel32:KERNEL32.dll
 0002:000000f0       __imp_GetSystemTimeAsFileTime 00000001400740f0     Kernel32:KERNEL32.dll
 0002:000000f8       __imp_InitializeSListHead  00000001400740f8     Kernel32:KERNEL32.dll
 0002:00000100       __imp_IsDebuggerPresent    0000000140074100     Kernel32:KERNEL32.dll
 0002:00000108       __imp_GetStartupInfoW      0000000140074108     Kernel32:KERNEL32.dll
 0002:00000110       __imp_GetModuleHandleW     0000000140074110     Kernel32:KERNEL32.dll
 0002:00000118       __imp_RtlPcToFileHeader    0000000140074118     Kernel32:KERNEL32.dll
 0002:00000120       __imp_RaiseException       0000000140074120     Kernel32:KERNEL32.dll
 0002:00000128       __imp_RtlUnwindEx          0000000140074128     Kernel32:KERNEL32.dll
 0002:00000130       __imp_GetLastError         0000000140074130     Kernel32:KERNEL32.dll
 0002:00000138       __imp_SetLastError         0000000140074138     Kernel32:KERNEL32.dll
 0002:00000140       __imp_InitializeCriticalSectionAndSpinCount 0000000140074140     Kernel32:KERNEL32.dll
 0002:00000148       __imp_TlsAlloc             0000000140074148     Kernel32:KERNEL32.dll
 0002:00000150       __imp_TlsGetValue          0000000140074150     Kernel32:KERNEL32.dll
 0002:00000158       __imp_TlsSetValue          0000000140074158     Kernel32:KERNEL32.dll
 0002:00000160       __imp_TlsFree              0000000140074160     Kernel32:KERNEL32.dll
 0002:00000168       __imp_LoadLibraryExW       0000000140074168     Kernel32:KERNEL32.dll
 0002:00000170       __imp_HeapAlloc            0000000140074170     Kernel32:KERNEL32.dll
 0002:00000178       __imp_HeapSize             0000000140074178     Kernel32:KERNEL32.dll
 0002:00000180       __imp_HeapValidate         0000000140074180     Kernel32:KERNEL32.dll
 0002:00000188       __imp_GetSystemInfo        0000000140074188     Kernel32:KERNEL32.dll
 0002:00000190       __imp_GetModuleFileNameW   0000000140074190     Kernel32:KERNEL32.dll
 0002:00000198       __imp_GetModuleHandleExW   0000000140074198     Kernel32:KERNEL32.dll
 0002:000001a0       __imp_ExitProcess          00000001400741a0     Kernel32:KERNEL32.dll
 0002:000001a8       __imp_GetStdHandle         00000001400741a8     Kernel32:KERNEL32.dll
 0002:000001b0       __imp_GetFileType          00000001400741b0     Kernel32:KERNEL32.dll
 0002:000001b8       __imp_WriteConsoleW        00000001400741b8     Kernel32:KERNEL32.dll
 0002:000001c0       __imp_WriteFile            00000001400741c0     Kernel32:KERNEL32.dll
 0002:000001c8       __imp_HeapFree             00000001400741c8     Kernel32:KERNEL32.dll
 0002:000001d0       __imp_HeapReAlloc          00000001400741d0     Kernel32:KERNEL32.dll
 0002:000001d8       __imp_HeapQueryInformation 00000001400741d8     Kernel32:KERNEL32.dll
 0002:000001e0       __imp_GetProcessHeap       00000001400741e0     Kernel32:KERNEL32.dll
 0002:000001e8       __imp_OutputDebugStringW   00000001400741e8     Kernel32:KERNEL32.dll
 0002:000001f0       __imp_LCMapStringW         00000001400741f0     Kernel32:KERNEL32.dll
 0002:000001f8       __imp_GetLocaleInfoW       00000001400741f8     Kernel32:KERNEL32.dll
 0002:00000200       __imp_IsValidLocale        0000000140074200     Kernel32:KERNEL32.dll
 0002:00000208       __imp_GetUserDefaultLCID   0000000140074208     Kernel32:KERNEL32.dll
 0002:00000210       __imp_EnumSystemLocalesW   0000000140074210     Kernel32:KERNEL32.dll
 0002:00000218       __imp_CloseHandle          0000000140074218     Kernel32:KERNEL32.dll
 0002:00000220       __imp_FlushFileBuffers     0000000140074220     Kernel32:KERNEL32.dll
 0002:00000228       __imp_GetConsoleOutputCP   0000000140074228     Kernel32:KERNEL32.dll
 0002:00000230       __imp_GetConsoleMode       0000000140074230     Kernel32:KERNEL32.dll
 0002:00000238       __imp_ReadFile             0000000140074238     Kernel32:KERNEL32.dll
 0002:00000240       __imp_GetFileSizeEx        0000000140074240     Kernel32:KERNEL32.dll
 0002:00000248       __imp_SetFilePointerEx     0000000140074248     Kernel32:KERNEL32.dll
 0002:00000250       __imp_ReadConsoleW         0000000140074250     Kernel32:KERNEL32.dll
 0002:00000258       __imp_FindClose            0000000140074258     Kernel32:KERNEL32.dll
 0002:00000260       __imp_FindFirstFileExW     0000000140074260     Kernel32:KERNEL32.dll
 0002:00000268       __imp_FindNextFileW        0000000140074268     Kernel32:KERNEL32.dll
 0002:00000270       __imp_IsValidCodePage      0000000140074270     Kernel32:KERNEL32.dll
 0002:00000278       __imp_GetACP               0000000140074278     Kernel32:KERNEL32.dll
 0002:00000280       __imp_GetOEMCP             0000000140074280     Kernel32:KERNEL32.dll
 0002:00000288       __imp_GetCommandLineA      0000000140074288     Kernel32:KERNEL32.dll
 0002:00000290       __imp_GetCommandLineW      0000000140074290     Kernel32:KERNEL32.dll
 0002:00000298       __imp_GetEnvironmentStringsW 0000000140074298     Kernel32:KERNEL32.dll
 0002:000002a0       __imp_FreeEnvironmentStringsW 00000001400742a0     Kernel32:KERNEL32.dll
 0002:000002a8       __imp_SetStdHandle         00000001400742a8     Kernel32:KERNEL32.dll
 0002:000002b0       __imp_CreateFileW          00000001400742b0     Kernel32:KERNEL32.dll
 0002:000002b8       __imp_RtlUnwind            00000001400742b8     Kernel32:KERNEL32.dll
 0002:000002c0       \177KERNEL32_NULL_THUNK_DATA 00000001400742c0     Kernel32:KERNEL32.dll
 0002:000002c8       __guard_check_icall_fptr   00000001400742c8     LIBCMTD:guard_support.obj
 0002:000002d0       __guard_xfg_check_icall_fptr 00000001400742d0     LIBCMTD:guard_support.obj
 0002:000002d8       __guard_dispatch_icall_fptr 00000001400742d8     LIBCMTD:guard_support.obj
 0002:000002e0       __guard_xfg_dispatch_icall_fptr 00000001400742e0     LIBCMTD:guard_support.obj
 0002:000002e8       __guard_xfg_table_dispatch_icall_fptr 00000001400742e8     LIBCMTD:guard_support.obj
 0002:000002f0       __xc_a                     00000001400742f0     LIBCMTD:initializers.obj
 0002:00000468       __xc_z                     0000000140074468     LIBCMTD:initializers.obj
 0002:00000470       __xi_a                     0000000140074470     LIBCMTD:initializers.obj
 0002:00000488       __acrt_stdio_initializer   0000000140074488     libucrtd:stdio_initializer.obj
 0002:00000490       __acrt_tran_fma3_initializer 0000000140074490     libucrtd:fma3_initializer.obj
 0002:00000498       __acrt_timeset_initializer 0000000140074498     libucrtd:timeset_initializer.obj
 0002:000004a0       __acrt_multibyte_initializer 00000001400744a0     libucrtd:multibyte_initializer.obj
 0002:000004a8       __acrt_fmode_initializer   00000001400744a8     libucrtd:fmode_initializer.obj
 0002:000004b0       __xi_z                     00000001400744b0     LIBCMTD:initializers.obj
 0002:000004b8       __xp_a                     00000001400744b8     LIBCMTD:initializers.obj
 0002:000004c0       __acrt_locale_terminator   00000001400744c0     libucrtd:locale_initializer.obj
 0002:000004c8       __dcrt_console_output_terminator 00000001400744c8     libucrtd:console_output_initializer.obj
 0002:000004d0       __acrt_stdio_terminator    00000001400744d0     libucrtd:stdio_initializer.obj
 0002:000004d8       __xp_z                     00000001400744d8     LIBCMTD:initializers.obj
 0002:000004e0       __xt_a                     00000001400744e0     LIBCMTD:initializers.obj
 0002:000004e8       __xt_z                     00000001400744e8     LIBCMTD:initializers.obj
 0002:000004f8       ??_7exception@std@@6B@     00000001400744f8     win32_layer.obj
 0002:00000508       ??_C@_0BC@EOODALEL@Unknown?5exception@ 0000000140074508     win32_layer.obj
 0002:00000528       ??_7bad_alloc@std@@6B@     0000000140074528     win32_layer.obj
 0002:00000540       ??_7bad_array_new_length@std@@6B@ 0000000140074540     win32_layer.obj
 0002:00000550       ??_C@_0BF@KINCDENJ@bad?5array?5new?5length@ 0000000140074550     win32_layer.obj
 0002:00000568       ??_C@_0BB@FCMFBGOM@invalid?5argument@ 0000000140074568     win32_layer.obj
 0002:0000057c       ??_C@_02DKCKIIND@?$CFs@    000000014007457c     win32_layer.obj
 0002:00000580       ??_C@_0GI@MNEMJBML@C?3?2Program?5Files?5?$CIx86?$CJ?2Microsof@ 0000000140074580     win32_layer.obj
 0002:000005f0       ??_C@_1NA@MJBOBEJL@?$AAC?$AA?3?$AA?2?$AAP?$AAr?$AAo?$AAg?$AAr?$AAa?$AAm?$AA?5?$AAF?$AAi?$AAl?$AAe@ 00000001400745f0     win32_layer.obj
 0002:000006c0       ??_C@_1EK@NIFDJFDG@?$AAs?$AAt?$AAd?$AA?3?$AA?3?$AA_?$AAA?$AAd?$AAj?$AAu?$AAs?$AAt?$AA_?$AAm?$AAa@ 00000001400746c0     win32_layer.obj
 0002:00000710       ??_C@_1CG@JNLFBNGN@?$AA?$CC?$AAi?$AAn?$AAv?$AAa?$AAl?$AAi?$AAd?$AA?5?$AAa?$AAr?$AAg?$AAu?$AAm?$AAe@ 0000000140074710     win32_layer.obj
 0002:00000738       ??_C@_0BA@JFNIOLAK@string?5too?5long@ 0000000140074738     win32_layer.obj
 0002:00000750       ??_7runtime_error@std@@6B@ 0000000140074750     win32_layer.obj
 0002:00000768       ??_7_System_error@std@@6B@ 0000000140074768     win32_layer.obj
 0002:00000778       ??_C@_02LMMGGCAJ@?3?5@     0000000140074778     win32_layer.obj
 0002:00000788       ??_7system_error@std@@6B@  0000000140074788     win32_layer.obj
 0002:00000798       ??_C@_00CNPNBAHC@@         0000000140074798     win32_layer.obj
 0002:000007a8       ??_7_Iostream_error_category2@std@@6B@ 00000001400747a8     win32_layer.obj
 0002:000007d8       ??_C@_08LLGCOLLL@iostream@ 00000001400747d8     win32_layer.obj
 0002:000007e8       ?_Iostream_error@?4??message@_Iostream_error_category2@std@@UEBA?AV?$basic_string@DU?$char_traits@D@std@@V?$allocator@D@2@@3@H@Z@4QBDB 00000001400747e8     win32_layer.obj
 0002:00000808       ??_7bad_cast@std@@6B@      0000000140074808     win32_layer.obj
 0002:00000818       ??_C@_08EPJLHIJG@bad?5cast@ 0000000140074818     win32_layer.obj
 0002:00000830       ??_7_Facet_base@std@@6B@   0000000140074830     win32_layer.obj
 0002:00000848       ??_C@_0BA@ELKIONDK@bad?5locale?5name@ 0000000140074848     win32_layer.obj
 0002:00000858       ??_C@_05LAPONLG@false@     0000000140074858     win32_layer.obj
 0002:00000860       ??_C@_04LOAJBDKD@true@     0000000140074860     win32_layer.obj
 0002:00000870       ??_C@_0GI@GFIAKDGM@C?3?2Program?5Files?5?$CIx86?$CJ?2Microsof@ 0000000140074870     win32_layer.obj
 0002:000008e0       ??_7facet@locale@std@@6B@  00000001400748e0     win32_layer.obj
 0002:00000900       ??_7codecvt_base@std@@6B@  0000000140074900     win32_layer.obj
 0002:00000938       ??_7ctype_base@std@@6B@    0000000140074938     win32_layer.obj
 0002:00000958       ??_7?$ctype@D@std@@6B@     0000000140074958     win32_layer.obj
 0002:000009b8       ??_7failure@ios_base@std@@6B@ 00000001400749b8     win32_layer.obj
 0002:000009d0       ??_7ios_base@std@@6B@      00000001400749d0     win32_layer.obj
 0002:000009d8       ??_C@_0BF@PHHKMMFD@ios_base?3?3badbit?5set@ 00000001400749d8     win32_layer.obj
 0002:000009f0       ??_C@_0BG@FMKFHCIL@ios_base?3?3failbit?5set@ 00000001400749f0     win32_layer.obj
 0002:00000a08       ??_C@_0BF@OOHOMBOF@ios_base?3?3eofbit?5set@ 0000000140074a08     win32_layer.obj
 0002:00000a20       ??_C@_0N@HDGKKKFJ@SetupWindows@ 0000000140074a20     win32_layer.obj
 0002:00000a30       ??_C@_0BA@HLJLLNDF@UpdateAndRender@ 0000000140074a30     win32_layer.obj
 0002:00000a40       ??_C@_0O@HACFEGHN@LoadResources@ 0000000140074a40     win32_layer.obj
 0002:00000a58       ??_7?$basic_ios@DU?$char_traits@D@std@@@std@@6B@ 0000000140074a58     win32_layer.obj
 0002:00000a68       ??_7?$basic_ostream@DU?$char_traits@D@std@@@std@@6B@ 0000000140074a68     win32_layer.obj
 0002:00000a70       ??_8?$basic_ostream@DU?$char_traits@D@std@@@std@@7B@ 0000000140074a70     win32_layer.obj
 0002:00000a78       ??_C@_09LCPNPENN@DLLHandle@ 0000000140074a78     win32_layer.obj
 0002:00000a90       ??_C@_1KC@DJGBKGJL@?$AAC?$AA?3?$AA?2?$AAU?$AAs?$AAe?$AAr?$AAs?$AA?2?$AAG?$AAi?$AAl?$AAq?$AAa?$AAm@ 0000000140074a90     win32_layer.obj
 0002:00000b38       ??_C@_1BE@INEBJIFH@?$AAD?$AAL?$AAL?$AAH?$AAa?$AAn?$AAd?$AAl?$AAe@ 0000000140074b38     win32_layer.obj
 0002:00000b50       ??_C@_0O@EDDCJMOG@RL_InitWindow@ 0000000140074b50     win32_layer.obj
 0002:00000b60       ??_C@_0BF@IONMOALB@RL_WindowShouldClose@ 0000000140074b60     win32_layer.obj
 0002:00000b78       ??_C@_0P@FPEFABBB@RL_CloseWindow@ 0000000140074b78     win32_layer.obj
 0002:00000b88       ??_C@_0BB@LMFFLLGJ@RL_IsWindowReady@ 0000000140074b88     win32_layer.obj
 0002:00000ba0       ??_C@_0BG@HHOFMCMN@RL_IsWindowFullscreen@ 0000000140074ba0     win32_layer.obj
 0002:00000bb8       ??_C@_0BC@KGBMBMPB@RL_IsWindowHidden@ 0000000140074bb8     win32_layer.obj
 0002:00000bd0       ??_C@_0BF@EFDCBHPC@RL_IsWindowMinimized@ 0000000140074bd0     win32_layer.obj
 0002:00000be8       ??_C@_0BF@EEDOINEG@RL_IsWindowMaximized@ 0000000140074be8     win32_layer.obj
 0002:00000c00       ??_C@_0BD@IEHFDOBF@RL_IsWindowFocused@ 0000000140074c00     win32_layer.obj
 0002:00000c18       ??_C@_0BD@DDKGJBI@RL_IsWindowResized@ 0000000140074c18     win32_layer.obj
 0002:00000c30       ??_C@_0BB@NANICIND@RL_IsWindowState@ 0000000140074c30     win32_layer.obj
 0002:00000c48       ??_C@_0BC@KJFLPMBG@RL_SetWindowState@ 0000000140074c48     win32_layer.obj
 0002:00000c60       ??_C@_0BE@MJEJABOM@RL_ClearWindowState@ 0000000140074c60     win32_layer.obj
 0002:00000c78       ??_C@_0BE@MAIPFNMO@RL_ToggleFullscreen@ 0000000140074c78     win32_layer.obj
 0002:00000c90       ??_C@_0BC@MGNGBLAC@RL_MaximizeWindow@ 0000000140074c90     win32_layer.obj
 0002:00000ca8       ??_C@_0BC@OBGNHMDD@RL_MinimizeWindow@ 0000000140074ca8     win32_layer.obj
 0002:00000cc0       ??_C@_0BB@CNGICNBH@RL_RestoreWindow@ 0000000140074cc0     win32_layer.obj
 0002:00000cd8       ??_C@_0BB@IHKHOHOP@RL_SetWindowIcon@ 0000000140074cd8     win32_layer.obj
 0002:00000cf0       ??_C@_0BC@FJNMMKPI@RL_SetWindowTitle@ 0000000140074cf0     win32_layer.obj
 0002:00000d08       ??_C@_0BF@KIBFLIDD@RL_SetWindowPosition@ 0000000140074d08     win32_layer.obj
 0002:00000d20       ??_C@_0BE@HLHKAPOD@RL_SetWindowMonitor@ 0000000140074d20     win32_layer.obj
 0002:00000d38       ??_C@_0BE@EOCGPALB@RL_SetWindowMinSize@ 0000000140074d38     win32_layer.obj
 0002:00000d50       ??_C@_0BB@DLFDDAPI@RL_SetWindowSize@ 0000000140074d50     win32_layer.obj
 0002:00000d68       ??_C@_0BE@ECNLFENF@RL_SetWindowOpacity@ 0000000140074d68     win32_layer.obj
 0002:00000d80       ??_C@_0BD@DFLLKDIL@RL_GetWindowHandle@ 0000000140074d80     win32_layer.obj
 0002:00000d98       ??_C@_0BC@EOBCEKGL@RL_GetScreenWidth@ 0000000140074d98     win32_layer.obj
 0002:00000db0       ??_C@_0BD@MNBFAGPE@RL_GetScreenHeight@ 0000000140074db0     win32_layer.obj
 0002:00000dc8       ??_C@_0BC@LHJFEPNI@RL_GetRenderWidth@ 0000000140074dc8     win32_layer.obj
 0002:00000de0       ??_C@_0BD@JPIEGDMH@RL_GetRenderHeight@ 0000000140074de0     win32_layer.obj
 0002:00000df8       ??_C@_0BD@ODAEALAA@RL_GetMonitorCount@ 0000000140074df8     win32_layer.obj
 0002:00000e10       ??_C@_0BF@POIKDAHB@RL_GetCurrentMonitor@ 0000000140074e10     win32_layer.obj
 0002:00000e28       ??_C@_0BG@PBNKBELK@RL_GetMonitorPosition@ 0000000140074e28     win32_layer.obj
 0002:00000e40       ??_C@_0BD@OLGAPFCM@RL_GetMonitorWidth@ 0000000140074e40     win32_layer.obj
 0002:00000e58       ??_C@_0BE@CFAIKAHI@RL_GetMonitorHeight@ 0000000140074e58     win32_layer.obj
 0002:00000e70       ??_C@_0BL@NJPCCNMI@RL_GetMonitorPhysicalWidth@ 0000000140074e70     win32_layer.obj
 0002:00000e90       ??_C@_0BM@ICFNBEMB@RL_GetMonitorPhysicalHeight@ 0000000140074e90     win32_layer.obj
 0002:00000eb0       ??_C@_0BJ@KDGEJPLB@RL_GetMonitorRefreshRate@ 0000000140074eb0     win32_layer.obj
 0002:00000ed0       ??_C@_0BF@INBODDCN@RL_GetWindowPosition@ 0000000140074ed0     win32_layer.obj
 0002:00000ee8       ??_C@_0BF@LJJKNPOK@RL_GetWindowScaleDPI@ 0000000140074ee8     win32_layer.obj
 0002:00000f00       ??_C@_0BC@NJOGDPCM@RL_GetMonitorName@ 0000000140074f00     win32_layer.obj
 0002:00000f18       ??_C@_0BE@GGHGMNFH@RL_SetClipboardText@ 0000000140074f18     win32_layer.obj
 0002:00000f30       ??_C@_0BE@CCPHDOF@RL_GetClipboardText@ 0000000140074f30     win32_layer.obj
 0002:00000f48       ??_C@_0BG@OPGAMLIK@RL_EnableEventWaiting@ 0000000140074f48     win32_layer.obj
 0002:00000f60       ??_C@_0BH@EHIJHBKI@RL_DisableEventWaiting@ 0000000140074f60     win32_layer.obj
 0002:00000f78       ??_C@_0BE@HADKNLDB@RL_SwapScreenBuffer@ 0000000140074f78     win32_layer.obj
 0002:00000f90       ??_C@_0BD@BEOAJIEP@RL_PollInputEvents@ 0000000140074f90     win32_layer.obj
 0002:00000fa8       ??_C@_0M@JHPAHHIG@RL_WaitTime@ 0000000140074fa8     win32_layer.obj
 0002:00000fb8       ??_C@_0O@NMMJFFK@RL_ShowCursor@ 0000000140074fb8     win32_layer.obj
 0002:00000fc8       ??_C@_0O@NDBCBFGA@RL_HideCursor@ 0000000140074fc8     win32_layer.obj
 0002:00000fd8       ??_C@_0BC@PCMOLCDJ@RL_IsCursorHidden@ 0000000140074fd8     win32_layer.obj
 0002:00000ff0       ??_C@_0BA@CPOPPAAJ@RL_EnableCursor@ 0000000140074ff0     win32_layer.obj
 0002:00001000       ??_C@_0BB@JFNDACDB@RL_DisableCursor@ 0000000140075000     win32_layer.obj
 0002:00001018       ??_C@_0BE@IFCNOBBB@RL_IsCursorOnScreen@ 0000000140075018     win32_layer.obj
 0002:00001030       ??_C@_0BD@GCDBJKHI@RL_ClearBackground@ 0000000140075030     win32_layer.obj
 0002:00001048       ??_C@_0BA@HPBBHDGG@RL_BeginDrawing@ 0000000140075048     win32_layer.obj
 0002:00001058       ??_C@_0O@JIOGHLBF@RL_EndDrawing@ 0000000140075058     win32_layer.obj
 0002:00001068       ??_C@_0P@LPAKGADM@RL_BeginMode2D@ 0000000140075068     win32_layer.obj
 0002:00001078       ??_C@_0N@PACPBEDC@RL_EndMode2D@ 0000000140075078     win32_layer.obj
 0002:00001088       ??_C@_0P@LOMIAKAL@RL_BeginMode3D@ 0000000140075088     win32_layer.obj
 0002:00001098       ??_C@_0N@PBONHOAF@RL_EndMode3D@ 0000000140075098     win32_layer.obj
 0002:000010a8       ??_C@_0BE@OAKKGPFO@RL_BeginTextureMode@ 00000001400750a8     win32_layer.obj
 0002:000010c0       ??_C@_0BC@PCKADBDF@RL_EndTextureMode@ 00000001400750c0     win32_layer.obj
 0002:000010d8       ??_C@_0BD@GLFJMPPB@RL_BeginShaderMode@ 00000001400750d8     win32_layer.obj
 0002:000010f0       ??_C@_0BB@NGOOPEKI@RL_EndShaderMode@ 00000001400750f0     win32_layer.obj
 0002:00001108       ??_C@_0BC@ENKEDPAO@RL_BeginBlendMode@ 0000000140075108     win32_layer.obj
 0002:00001120       ??_C@_0BA@EHGNHKPO@RL_EndBlendMode@ 0000000140075120     win32_layer.obj
 0002:00001130       ??_C@_0BE@ODPANCH@RL_BeginScissorMode@ 0000000140075130     win32_layer.obj
 0002:00001148       ??_C@_0BC@BMDFFDEM@RL_EndScissorMode@ 0000000140075148     win32_layer.obj
 0002:00001160       ??_C@_0O@NHGHNJFN@RL_LoadShader@ 0000000140075160     win32_layer.obj
 0002:00001170       ??_C@_0BI@JCPLLDJN@RL_LoadShaderFromMemory@ 0000000140075170     win32_layer.obj
 0002:00001188       ??_C@_0BF@HIOCFOAL@RL_GetShaderLocation@ 0000000140075188     win32_layer.obj
 0002:000011a0       ??_C@_0BL@GEBGNHLK@RL_GetShaderLocationAttrib@ 00000001400751a0     win32_layer.obj
 0002:000011c0       ??_C@_0BC@FCEFELOA@RL_SetShaderValue@ 00000001400751c0     win32_layer.obj
 0002:000011d8       ??_C@_0BD@EMLJFNOB@RL_SetShaderValueV@ 00000001400751d8     win32_layer.obj
 0002:000011f0       ??_C@_0BI@HBGFMFAE@RL_SetShaderValueMatrix@ 00000001400751f0     win32_layer.obj
 0002:00001208       ??_C@_0BJ@GHPHGIAH@RL_SetShaderValueTexture@ 0000000140075208     win32_layer.obj
 0002:00001228       ??_C@_0BA@KHOIPNIE@RL_UnloadShader@ 0000000140075228     win32_layer.obj
 0002:00001238       ??_C@_0P@EDJBOGNM@RL_GetMouseRay@ 0000000140075238     win32_layer.obj
 0002:00001248       ??_C@_0BD@CCMPIPLM@RL_GetCameraMatrix@ 0000000140075248     win32_layer.obj
 0002:00001260       ??_C@_0BF@IGINOGDF@RL_GetCameraMatrix2D@ 0000000140075260     win32_layer.obj
 0002:00001278       ??_C@_0BE@DDPAJNBE@RL_GetWorldToScreen@ 0000000140075278     win32_layer.obj
 0002:00001290       ??_C@_0BG@HHDNFKGJ@RL_GetScreenToWorld2D@ 0000000140075290     win32_layer.obj
 0002:000012a8       ??_C@_0BG@DBKHLHIJ@RL_GetWorldToScreenEx@ 00000001400752a8     win32_layer.obj
 0002:000012c0       ??_C@_0BG@BDOKLAKD@RL_GetWorldToScreen2D@ 00000001400752c0     win32_layer.obj
 0002:000012d8       ??_C@_0BA@KENLDNPK@RL_SetTargetFPS@ 00000001400752d8     win32_layer.obj
 0002:000012e8       ??_C@_09IDKGGEFC@RL_GetFPS@ 00000001400752e8     win32_layer.obj
 0002:000012f8       ??_C@_0BA@KMAIMAIL@RL_GetFrameTime@ 00000001400752f8     win32_layer.obj
 0002:00001308       ??_C@_0L@CEJKLCAN@RL_GetTime@ 0000000140075308     win32_layer.obj
 0002:00001318       ??_C@_0BC@INOOGIEE@RL_GetRandomValue@ 0000000140075318     win32_layer.obj
 0002:00001330       ??_C@_0BB@LPCJJHAH@RL_SetRandomSeed@ 0000000140075330     win32_layer.obj
 0002:00001348       ??_C@_0BC@PFJFHNPH@RL_TakeScreenshot@ 0000000140075348     win32_layer.obj
 0002:00001360       ??_C@_0BC@MAMELKIM@RL_SetConfigFlags@ 0000000140075360     win32_layer.obj
 0002:00001378       ??_C@_0BE@MAMLGHIH@RL_SetTraceLogLevel@ 0000000140075378     win32_layer.obj
 0002:00001390       ??_C@_0M@HJPNHDAD@RL_MemAlloc@ 0000000140075390     win32_layer.obj
 0002:000013a0       ??_C@_0O@CLILLEIC@RL_MemRealloc@ 00000001400753a0     win32_layer.obj
 0002:000013b0       ??_C@_0L@CKILIFC@RL_MemFree@ 00000001400753b0     win32_layer.obj
 0002:000013c0       ??_C@_0L@DAAOBBJH@RL_OpenURL@ 00000001400753c0     win32_layer.obj
 0002:000013d0       ??_C@_0BH@INBAFBOM@RL_SetTraceLogCallback@ 00000001400753d0     win32_layer.obj
 0002:000013e8       ??_C@_0BA@OBHPEPGE@RL_LoadFileData@ 00000001400753e8     win32_layer.obj
 0002:000013f8       ??_C@_0BC@INIGKFGM@RL_UnloadFileData@ 00000001400753f8     win32_layer.obj
 0002:00001410       ??_C@_0BA@PDDGFFOD@RL_SaveFileData@ 0000000140075410     win32_layer.obj
 0002:00001420       ??_C@_0BE@KJBEFFCE@RL_ExportDataAsCode@ 0000000140075420     win32_layer.obj
 0002:00001438       ??_C@_0BA@DAFCFAMB@RL_LoadFileText@ 0000000140075438     win32_layer.obj
 0002:00001448       ??_C@_0BC@FMKLLKMJ@RL_UnloadFileText@ 0000000140075448     win32_layer.obj
 0002:00001460       ??_C@_0BA@CCBLEKEG@RL_SaveFileText@ 0000000140075460     win32_layer.obj
 0002:00001470       ??_C@_0O@PLKKGBNJ@RL_FileExists@ 0000000140075470     win32_layer.obj
 0002:00001480       ??_C@_0BD@OEKHFDDI@RL_DirectoryExists@ 0000000140075480     win32_layer.obj
 0002:00001498       ??_C@_0BD@ENCBMJAP@RL_IsFileExtension@ 0000000140075498     win32_layer.obj
 0002:000014b0       ??_C@_0BB@HPHMGIEO@RL_GetFileLength@ 00000001400754b0     win32_layer.obj
 0002:000014c8       ??_C@_0BE@BOELDLPI@RL_GetFileExtension@ 00000001400754c8     win32_layer.obj
 0002:000014e0       ??_C@_0P@JLIAKEHO@RL_GetFileName@ 00000001400754e0     win32_layer.obj
 0002:000014f0       ??_C@_0BJ@KKDCMEHJ@RL_GetFileNameWithoutExt@ 00000001400754f0     win32_layer.obj
 0002:00001510       ??_C@_0BE@CGPMGKAG@RL_GetDirectoryPath@ 0000000140075510     win32_layer.obj
 0002:00001528       ??_C@_0BI@JJNCGMBC@RL_GetPrevDirectoryPath@ 0000000140075528     win32_layer.obj
 0002:00001540       ??_C@_0BH@GCNJBNKP@RL_GetWorkingDirectory@ 0000000140075540     win32_layer.obj
 0002:00001558       ??_C@_0BL@KGEBPLLD@RL_GetApplicationDirectory@ 0000000140075558     win32_layer.obj
 0002:00001578       ??_C@_0BD@CPPCCKPA@RL_ChangeDirectory@ 0000000140075578     win32_layer.obj
 0002:00001590       ??_C@_0O@GLMLFNEO@RL_IsPathFile@ 0000000140075590     win32_layer.obj
 0002:000015a0       ??_C@_0BG@IJHBKLBO@RL_LoadDirectoryFiles@ 00000001400755a0     win32_layer.obj
 0002:000015b8       ??_C@_0BI@EPCHABL@RL_LoadDirectoryFilesEx@ 00000001400755b8     win32_layer.obj
 0002:000015d0       ??_C@_0BI@LNOFJNGE@RL_UnloadDirectoryFiles@ 00000001400755d0     win32_layer.obj
 0002:000015e8       ??_C@_0BB@MIKNLFHD@RL_IsFileDropped@ 00000001400755e8     win32_layer.obj
 0002:00001600       ??_C@_0BE@NAKHIFHH@RL_LoadDroppedFiles@ 0000000140075600     win32_layer.obj
 0002:00001618       ??_C@_0BG@DABMIPGJ@RL_UnloadDroppedFiles@ 0000000140075618     win32_layer.obj
 0002:00001630       ??_C@_0BC@COJHMFE@RL_GetFileModTime@ 0000000140075630     win32_layer.obj
 0002:00001648       ??_C@_0BA@ICDLKADE@RL_CompressData@ 0000000140075648     win32_layer.obj
 0002:00001658       ??_C@_0BC@FMGDDFHG@RL_DecompressData@ 0000000140075658     win32_layer.obj
 0002:00001670       ??_C@_0BE@LHBAFINI@RL_EncodeDataBase64@ 0000000140075670     win32_layer.obj
 0002:00001688       ??_C@_0BE@GKGNLICG@RL_DecodeDataBase64@ 0000000140075688     win32_layer.obj
 0002:000016a0       ??_C@_0BA@KLNKIGCB@RL_IsKeyPressed@ 00000001400756a0     win32_layer.obj
 0002:000016b0       ??_C@_0N@JFBPLHO@RL_IsKeyDown@ 00000001400756b0     win32_layer.obj
 0002:000016c0       ??_C@_0BB@DLFMHGAM@RL_IsKeyReleased@ 00000001400756c0     win32_layer.obj
 0002:000016d8       ??_C@_0L@BBKHCICG@RL_IsKeyUp@ 00000001400756d8     win32_layer.obj
 0002:000016e8       ??_C@_0O@JLIDNMPN@RL_SetExitKey@ 00000001400756e8     win32_layer.obj
 0002:000016f8       ??_C@_0BB@ILKIFEFP@RL_GetKeyPressed@ 00000001400756f8     win32_layer.obj
 0002:00001710       ??_C@_0BC@BHDNFOML@RL_GetCharPressed@ 0000000140075710     win32_layer.obj
 0002:00001728       ??_C@_0BG@JGMOPLJD@RL_IsGamepadAvailable@ 0000000140075728     win32_layer.obj
 0002:00001740       ??_C@_0BC@GNFOCAHN@RL_GetGamepadName@ 0000000140075740     win32_layer.obj
 0002:00001758       ??_C@_0BK@CGPBLBLL@RL_IsGamepadButtonPressed@ 0000000140075758     win32_layer.obj
 0002:00001778       ??_C@_0BH@GCPKBOPG@RL_IsGamepadButtonDown@ 0000000140075778     win32_layer.obj
 0002:00001790       ??_C@_0BL@CLALCHGB@RL_IsGamepadButtonReleased@ 0000000140075790     win32_layer.obj
 0002:000017b0       ??_C@_0BF@BPLHNFFJ@RL_IsGamepadButtonUp@ 00000001400757b0     win32_layer.obj
 0002:000017c8       ??_C@_0BL@NFEIMCFO@RL_GetGamepadButtonPressed@ 00000001400757c8     win32_layer.obj
 0002:000017e8       ??_C@_0BH@KBHIAHJB@RL_GetGamepadAxisCount@ 00000001400757e8     win32_layer.obj
 0002:00001800       ??_C@_0BK@BGLBCEHJ@RL_GetGamepadAxisMovement@ 0000000140075800     win32_layer.obj
 0002:00001820       ??_C@_0BG@CGMHFFAJ@RL_SetGamepadMappings@ 0000000140075820     win32_layer.obj
 0002:00001838       ??_C@_0BI@BAONBFHB@RL_IsMouseButtonPressed@ 0000000140075838     win32_layer.obj
 0002:00001850       ??_C@_0BF@LDOHDBJP@RL_IsMouseButtonDown@ 0000000140075850     win32_layer.obj
 0002:00001868       ??_C@_0BJ@FAIMBAGL@RL_IsMouseButtonReleased@ 0000000140075868     win32_layer.obj
 0002:00001888       ??_C@_0BD@OLHIBGPM@RL_IsMouseButtonUp@ 0000000140075888     win32_layer.obj
 0002:000018a0       ??_C@_0N@KNECLIOA@RL_GetMouseX@ 00000001400758a0     win32_layer.obj
 0002:000018b0       ??_C@_0N@LEFJIJKB@RL_GetMouseY@ 00000001400758b0     win32_layer.obj
 0002:000018c0       ??_C@_0BE@NKOKENGH@RL_GetMousePosition@ 00000001400758c0     win32_layer.obj
 0002:000018d8       ??_C@_0BB@MDCPEEO@RL_GetMouseDelta@ 00000001400758d8     win32_layer.obj
 0002:000018f0       ??_C@_0BE@LOLDPDNF@RL_SetMousePosition@ 00000001400758f0     win32_layer.obj
 0002:00001908       ??_C@_0BC@EANILGCN@RL_SetMouseOffset@ 0000000140075908     win32_layer.obj
 0002:00001920       ??_C@_0BB@GGIMGPKL@RL_SetMouseScale@ 0000000140075920     win32_layer.obj
 0002:00001938       ??_C@_0BF@PJLOFOMG@RL_GetMouseWheelMove@ 0000000140075938     win32_layer.obj
 0002:00001950       ??_C@_0BG@JOBPCDAJ@RL_GetMouseWheelMoveV@ 0000000140075950     win32_layer.obj
 0002:00001968       ??_C@_0BC@MMJHLPHO@RL_SetMouseCursor@ 0000000140075968     win32_layer.obj
 0002:00001980       ??_C@_0N@HMFKFDB@RL_GetTouchX@ 0000000140075980     win32_layer.obj
 0002:00001990       ??_C@_0N@BONOJEHA@RL_GetTouchY@ 0000000140075990     win32_layer.obj
 0002:000019a0       ??_C@_0BE@EJAGMBDA@RL_GetTouchPosition@ 00000001400759a0     win32_layer.obj
 0002:000019b8       ??_C@_0BD@OFIFDHP@RL_GetTouchPointId@ 00000001400759b8     win32_layer.obj
 0002:000019d0       ??_C@_0BG@CIDLOADD@RL_GetTouchPointCount@ 00000001400759d0     win32_layer.obj
 0002:000019e8       ??_C@_0BG@JHAMHABO@RL_SetGesturesEnabled@ 00000001400759e8     win32_layer.obj
 0002:00001a00       ??_C@_0BF@CGLMOJMN@RL_IsGestureDetected@ 0000000140075a00     win32_layer.obj
 0002:00001a18       ??_C@_0BG@COPCFOON@RL_GetGestureDetected@ 0000000140075a18     win32_layer.obj
 0002:00001a30       ??_C@_0BK@BJBGODDA@RL_GetGestureHoldDuration@ 0000000140075a30     win32_layer.obj
 0002:00001a50       ??_C@_0BI@LFAJCLOP@RL_GetGestureDragVector@ 0000000140075a50     win32_layer.obj
 0002:00001a68       ??_C@_0BH@GJFEEAIK@RL_GetGestureDragAngle@ 0000000140075a68     win32_layer.obj
 0002:00001a80       ??_C@_0BJ@JNJEMEIJ@RL_GetGesturePinchVector@ 0000000140075a80     win32_layer.obj
 0002:00001aa0       ??_C@_0BI@PGADLILC@RL_GetGesturePinchAngle@ 0000000140075aa0     win32_layer.obj
 0002:00001ab8       ??_C@_0BB@PMAJBPND@RL_SetCameraMode@ 0000000140075ab8     win32_layer.obj
 0002:00001ad0       ??_C@_0BA@IJCNKGDF@RL_UpdateCamera@ 0000000140075ad0     win32_layer.obj
 0002:00001ae0       ??_C@_0BH@GOPHCHFE@RL_SetCameraPanControl@ 0000000140075ae0     win32_layer.obj
 0002:00001af8       ??_C@_0BH@MNJPHPAA@RL_SetCameraAltControl@ 0000000140075af8     win32_layer.obj
 0002:00001b10       ??_C@_0BO@FFNLBLDM@RL_SetCameraSmoothZoomControl@ 0000000140075b10     win32_layer.obj
 0002:00001b30       ??_C@_0BJ@EFDDLFHH@RL_SetCameraMoveControls@ 0000000140075b30     win32_layer.obj
 0002:00001b50       ??_C@_0BE@LKIPKEKL@RL_SetShapesTexture@ 0000000140075b50     win32_layer.obj
 0002:00001b68       ??_C@_0N@IKILFCAF@RL_DrawPixel@ 0000000140075b68     win32_layer.obj
 0002:00001b78       ??_C@_0O@JMABIFAP@RL_DrawPixelV@ 0000000140075b78     win32_layer.obj
 0002:00001b88       ??_C@_0M@BHCEGBCJ@RL_DrawLine@ 0000000140075b88     win32_layer.obj
 0002:00001b98       ??_C@_0N@KOEEEGNP@RL_DrawLineV@ 0000000140075b98     win32_layer.obj
 0002:00001ba8       ??_C@_0O@OPEEGFNE@RL_DrawLineEx@ 0000000140075ba8     win32_layer.obj
 0002:00001bb8       ??_C@_0BC@JPDMCPHO@RL_DrawLineBezier@ 0000000140075bb8     win32_layer.obj
 0002:00001bd0       ??_C@_0BG@LKKEJIDJ@RL_DrawLineBezierQuad@ 0000000140075bd0     win32_layer.obj
 0002:00001be8       ??_C@_0BH@EFBMILNJ@RL_DrawLineBezierCubic@ 0000000140075be8     win32_layer.obj
 0002:00001c00       ??_C@_0BB@FKMLGKKB@RL_DrawLineStrip@ 0000000140075c00     win32_layer.obj
 0002:00001c18       ??_C@_0O@FBIHCBBB@RL_DrawCircle@ 0000000140075c18     win32_layer.obj
 0002:00001c28       ??_C@_0BE@HJCNNHD@RL_DrawCircleSector@ 0000000140075c28     win32_layer.obj
 0002:00001c40       ??_C@_0BJ@KGNFHNOH@RL_DrawCircleSectorLines@ 0000000140075c40     win32_layer.obj
 0002:00001c60       ??_C@_0BG@KEPPHLGN@RL_DrawCircleGradient@ 0000000140075c60     win32_layer.obj
 0002:00001c78       ??_C@_0P@IGAAFNAB@RL_DrawCircleV@ 0000000140075c78     win32_layer.obj
 0002:00001c88       ??_C@_0BD@HPJLGLJM@RL_DrawCircleLines@ 0000000140075c88     win32_layer.obj
 0002:00001ca0       ??_C@_0P@JHDEFCLO@RL_DrawEllipse@ 0000000140075ca0     win32_layer.obj
 0002:00001cb0       ??_C@_0BE@KONOFMCI@RL_DrawEllipseLines@ 0000000140075cb0     win32_layer.obj
 0002:00001cc8       ??_C@_0M@PKMCCKEI@RL_DrawRing@ 0000000140075cc8     win32_layer.obj
 0002:00001cd8       ??_C@_0BB@KGDLGLCO@RL_DrawRingLines@ 0000000140075cd8     win32_layer.obj
 0002:00001cf0       ??_C@_0BB@OKGPAAJC@RL_DrawRectangle@ 0000000140075cf0     win32_layer.obj
 0002:00001d08       ??_C@_0BC@PCAKGHLK@RL_DrawRectangleV@ 0000000140075d08     win32_layer.obj
 0002:00001d20       ??_C@_0BE@ECFCOGDL@RL_DrawRectangleRec@ 0000000140075d20     win32_layer.obj
 0002:00001d38       ??_C@_0BE@FNIHNEEJ@RL_DrawRectanglePro@ 0000000140075d38     win32_layer.obj
 0002:00001d50       ??_C@_0BK@PFAAENMI@RL_DrawRectangleGradientV@ 0000000140075d50     win32_layer.obj
 0002:00001d70       ??_C@_0BK@CBEBHCBH@RL_DrawRectangleGradientH@ 0000000140075d70     win32_layer.obj
 0002:00001d90       ??_C@_0BL@GMMMKEBI@RL_DrawRectangleGradientEx@ 0000000140075d90     win32_layer.obj
 0002:00001db0       ??_C@_0BG@DBJDJPOO@RL_DrawRectangleLines@ 0000000140075db0     win32_layer.obj
 0002:00001dc8       ??_C@_0BI@DBPKNNPB@RL_DrawRectangleLinesEx@ 0000000140075dc8     win32_layer.obj
 0002:00001de0       ??_C@_0BI@DGCOHMAA@RL_DrawRectangleRounded@ 0000000140075de0     win32_layer.obj
 0002:00001df8       ??_C@_0BN@OHGJJJFO@RL_DrawRectangleRoundedLines@ 0000000140075df8     win32_layer.obj
 0002:00001e18       ??_C@_0BA@FHFPDPHO@RL_DrawTriangle@ 0000000140075e18     win32_layer.obj
 0002:00001e28       ??_C@_0BE@BIMJINJJ@DrawTriangleRotated@ 0000000140075e28     win32_layer.obj
 0002:00001e40       ??_C@_0BF@BPPGIKC@RL_DrawTriangleLines@ 0000000140075e40     win32_layer.obj
 0002:00001e58       ??_C@_0BJ@ENHBMPHA@DrawTriangleLinesRotated@ 0000000140075e58     win32_layer.obj
 0002:00001e78       ??_C@_0BD@PBHBMDIL@RL_DrawTriangleFan@ 0000000140075e78     win32_layer.obj
 0002:00001e90       ??_C@_0BF@FDPHMJFP@RL_DrawTriangleStrip@ 0000000140075e90     win32_layer.obj
 0002:00001ea8       ??_C@_0M@GMOBIKE@DrawPolygon@ 0000000140075ea8     win32_layer.obj
 0002:00001eb8       ??_C@_0M@HCKMMNEF@RL_DrawPoly@ 0000000140075eb8     win32_layer.obj
 0002:00001ec8       ??_C@_0BB@KEBACCHH@RL_DrawPolyLines@ 0000000140075ec8     win32_layer.obj
 0002:00001ee0       ??_C@_0BD@CEKJLGBA@RL_DrawPolyLinesEx@ 0000000140075ee0     win32_layer.obj
 0002:00001ef8       ??_C@_0BG@GCKFLNPN@RL_CheckCollisionRecs@ 0000000140075ef8     win32_layer.obj
 0002:00001f10       ??_C@_0BJ@KOOOBBEL@RL_CheckCollisionCircles@ 0000000140075f10     win32_layer.obj
 0002:00001f30       ??_C@_0BL@GBHPOBCG@RL_CheckCollisionCircleRec@ 0000000140075f30     win32_layer.obj
 0002:00001f50       ??_C@_0BK@NCCBCN@RL_CheckCollisionPointRec@ 0000000140075f50     win32_layer.obj
 0002:00001f70       ??_C@_0BN@EPOIGPNA@RL_CheckCollisionPointCircle@ 0000000140075f70     win32_layer.obj
 0002:00001f90       ??_C@_0BP@BENKKLIJ@RL_CheckCollisionPointTriangle@ 0000000140075f90     win32_layer.obj
 0002:00001fb0       ??_C@_0BH@NBJBIINM@RL_CheckCollisionLines@ 0000000140075fb0     win32_layer.obj
 0002:00001fc8       ??_C@_0BL@MAILBELO@RL_CheckCollisionPointLine@ 0000000140075fc8     win32_layer.obj
 0002:00001fe8       ??_C@_0BD@MNNICMEO@RL_GetCollisionRec@ 0000000140075fe8     win32_layer.obj
 0002:00002000       ??_C@_0N@LMOLLDCF@RL_LoadImage@ 0000000140076000     win32_layer.obj
 0002:00002010       ??_C@_0BA@IONJMLDD@RL_LoadImageRaw@ 0000000140076010     win32_layer.obj
 0002:00002020       ??_C@_0BB@GJGNOEJ@RL_LoadImageAnim@ 0000000140076020     win32_layer.obj
 0002:00002038       ??_C@_0BH@DDANPFEB@RL_LoadImageFromMemory@ 0000000140076038     win32_layer.obj
 0002:00002050       ??_C@_0BI@KPDPCLPC@RL_LoadImageFromTexture@ 0000000140076050     win32_layer.obj
 0002:00002068       ??_C@_0BH@EDFCCAJL@RL_LoadImageFromScreen@ 0000000140076068     win32_layer.obj
 0002:00002080       ??_C@_0P@FJDLOFCA@RL_UnloadImage@ 0000000140076080     win32_layer.obj
 0002:00002090       ??_C@_0P@LLBIMNDE@RL_ExportImage@ 0000000140076090     win32_layer.obj
 0002:000020a0       ??_C@_0BF@JGEADPCA@RL_ExportImageAsCode@ 00000001400760a0     win32_layer.obj
 0002:000020b8       ??_C@_0BB@HBMFFLNK@RL_GenImageColor@ 00000001400760b8     win32_layer.obj
 0002:000020d0       ??_C@_0BF@CJMKAOHB@RL_GenImageGradientV@ 00000001400760d0     win32_layer.obj
 0002:000020e8       ??_C@_0BF@PNILDBKO@RL_GenImageGradientH@ 00000001400760e8     win32_layer.obj
 0002:00002100       ??_C@_0BK@GBDFCGGF@RL_GenImageGradientRadial@ 0000000140076100     win32_layer.obj
 0002:00002120       ??_C@_0BD@MCKKOJBG@RL_GenImageChecked@ 0000000140076120     win32_layer.obj
 0002:00002138       ??_C@_0BG@GNOGOPOH@RL_GenImageWhiteNoise@ 0000000140076138     win32_layer.obj
 0002:00002150       ??_C@_0BE@LCMHECJJ@RL_GenImageCellular@ 0000000140076150     win32_layer.obj
 0002:00002168       ??_C@_0N@FEICIBMJ@RL_ImageCopy@ 0000000140076168     win32_layer.obj
 0002:00002178       ??_C@_0BC@JPFHMDAL@RL_ImageFromImage@ 0000000140076178     win32_layer.obj
 0002:00002190       ??_C@_0N@FCECAFMK@RL_ImageText@ 0000000140076190     win32_layer.obj
 0002:000021a0       ??_C@_0P@NAMICFNM@RL_ImageTextEx@ 00000001400761a0     win32_layer.obj
 0002:000021b0       ??_C@_0P@HFECCKNJ@RL_ImageFormat@ 00000001400761b0     win32_layer.obj
 0002:000021c0       ??_C@_0O@KCDMGEPK@RL_ImageToPOT@ 00000001400761c0     win32_layer.obj
 0002:000021d0       ??_C@_0N@DAEJFBIP@RL_ImageCrop@ 00000001400761d0     win32_layer.obj
 0002:000021e0       ??_C@_0BC@COBEFC@RL_ImageAlphaCrop@ 00000001400761e0     win32_layer.obj
 0002:000021f8       ??_C@_0BD@DFOFAFHI@RL_ImageAlphaClear@ 00000001400761f8     win32_layer.obj
 0002:00002210       ??_C@_0BC@EBLIMDMM@RL_ImageAlphaMask@ 0000000140076210     win32_layer.obj
 0002:00002228       ??_C@_0BJ@BLOPJAHM@RL_ImageAlphaPremultiply@ 0000000140076228     win32_layer.obj
 0002:00002248       ??_C@_0P@LGOAGAAE@RL_ImageResize@ 0000000140076248     win32_layer.obj
 0002:00002258       ??_C@_0BB@DNCANAPN@RL_ImageResizeNN@ 0000000140076258     win32_layer.obj
 0002:00002270       ??_C@_0BF@IGBFPIJE@RL_ImageResizeCanvas@ 0000000140076270     win32_layer.obj
 0002:00002288       ??_C@_0BA@IPBDCCNE@RL_ImageMipmaps@ 0000000140076288     win32_layer.obj
 0002:00002298       ??_C@_0P@NNEJNCCF@RL_ImageDither@ 0000000140076298     win32_layer.obj
 0002:000022a8       ??_C@_0BF@NJJHABHO@RL_ImageFlipVertical@ 00000001400762a8     win32_layer.obj
 0002:000022c0       ??_C@_0BH@HMPDMNLC@RL_ImageFlipHorizontal@ 00000001400762c0     win32_layer.obj
 0002:000022d8       ??_C@_0BB@KJPMPEPM@RL_ImageRotateCW@ 00000001400762d8     win32_layer.obj
 0002:000022f0       ??_C@_0BC@FKHHICPM@RL_ImageRotateCCW@ 00000001400762f0     win32_layer.obj
 0002:00002308       ??_C@_0BC@GGNBKGEK@RL_ImageColorTint@ 0000000140076308     win32_layer.obj
 0002:00002320       ??_C@_0BE@IKDMOGEA@RL_ImageColorInvert@ 0000000140076320     win32_layer.obj
 0002:00002338       ??_C@_0BH@BGKNEPAO@RL_ImageColorGrayscale@ 0000000140076338     win32_layer.obj
 0002:00002350       ??_C@_0BG@GAMMGLF@RL_ImageColorContrast@ 0000000140076350     win32_layer.obj
 0002:00002368       ??_C@_0BI@NMPLHKLA@RL_ImageColorBrightness@ 0000000140076368     win32_layer.obj
 0002:00002380       ??_C@_0BF@MNIGFHPL@RL_ImageColorReplace@ 0000000140076380     win32_layer.obj
 0002:00002398       ??_C@_0BD@CNJNBOHF@RL_LoadImageColors@ 0000000140076398     win32_layer.obj
 0002:000023b0       ??_C@_0BE@PAFHJLCC@RL_LoadImagePalette@ 00000001400763b0     win32_layer.obj
 0002:000023c8       ??_C@_0BF@EDHOBOHP@RL_UnloadImageColors@ 00000001400763c8     win32_layer.obj
 0002:000023e0       ??_C@_0BG@BAOMJBDM@RL_UnloadImagePalette@ 00000001400763e0     win32_layer.obj
 0002:000023f8       ??_C@_0BH@EEILJODF@RL_GetImageAlphaBorder@ 00000001400763f8     win32_layer.obj
 0002:00002410       ??_C@_0BB@JHOKFOEH@RL_GetImageColor@ 0000000140076410     win32_layer.obj
 0002:00002428       ??_C@_0BI@MLDLBPGN@RL_ImageClearBackground@ 0000000140076428     win32_layer.obj
 0002:00002440       ??_C@_0BC@GDIIEACF@RL_ImageDrawPixel@ 0000000140076440     win32_layer.obj
 0002:00002458       ??_C@_0BD@KHIGKGNF@RL_ImageDrawPixelV@ 0000000140076458     win32_layer.obj
 0002:00002470       ??_C@_0BB@HHJDHECP@RL_ImageDrawLine@ 0000000140076470     win32_layer.obj
 0002:00002488       ??_C@_0BC@EHEHFEPP@RL_ImageDrawLineV@ 0000000140076488     win32_layer.obj
 0002:000024a0       ??_C@_0BD@GKAAACML@RL_ImageDrawCircle@ 00000001400764a0     win32_layer.obj
 0002:000024b8       ??_C@_0BE@OADNOBOI@RL_ImageDrawCircleV@ 00000001400764b8     win32_layer.obj
 0002:000024d0       ??_C@_0BG@KHAENBKN@RL_ImageDrawRectangle@ 00000001400764d0     win32_layer.obj
 0002:000024e8       ??_C@_0BH@EECBCBFG@RL_ImageDrawRectangleV@ 00000001400764e8     win32_layer.obj
 0002:00002500       ??_C@_0BJ@CPCGAIFF@RL_ImageDrawRectangleRec@ 0000000140076500     win32_layer.obj
 0002:00002520       ??_C@_0BL@INFPHLMM@RL_ImageDrawRectangleLines@ 0000000140076520     win32_layer.obj
 0002:00002540       ??_C@_0N@MHLGDGFC@RL_ImageDraw@ 0000000140076540     win32_layer.obj
 0002:00002550       ??_C@_0BB@CGKHOLAG@RL_ImageDrawText@ 0000000140076550     win32_layer.obj
 0002:00002568       ??_C@_0BD@PADFAGAE@RL_ImageDrawTextEx@ 0000000140076568     win32_layer.obj
 0002:00002580       ??_C@_0P@HCLFCOOF@RL_LoadTexture@ 0000000140076580     win32_layer.obj
 0002:00002590       ??_C@_0BI@JJNMEBPC@RL_LoadTextureFromImage@ 0000000140076590     win32_layer.obj
 0002:000025a8       ??_C@_0BG@NHOFJJFE@RL_LoadTextureCubemap@ 00000001400765a8     win32_layer.obj
 0002:000025c0       ??_C@_0BF@LPMKNFDL@RL_LoadRenderTexture@ 00000001400765c0     win32_layer.obj
 0002:000025d8       ??_C@_0BB@INMKMLLB@RL_UnloadTexture@ 00000001400765d8     win32_layer.obj
 0002:000025f0       ??_C@_0BH@EFCFFDFC@RL_UnloadRenderTexture@ 00000001400765f0     win32_layer.obj
 0002:00002608       ??_C@_0BB@EBKNGCMM@RL_UpdateTexture@ 0000000140076608     win32_layer.obj
 0002:00002620       ??_C@_0BE@GNBEPJD@RL_UpdateTextureRec@ 0000000140076620     win32_layer.obj
 0002:00002638       ??_C@_0BF@GOFIKKBD@RL_GenTextureMipmaps@ 0000000140076638     win32_layer.obj
 0002:00002650       ??_C@_0BE@CKNHEMI@RL_SetTextureFilter@ 0000000140076650     win32_layer.obj
 0002:00002668       ??_C@_0BC@NGFKMDCB@RL_SetTextureWrap@ 0000000140076668     win32_layer.obj
 0002:00002680       ??_C@_0BC@HOKODMNJ@DrawRenderTexture@ 0000000140076680     win32_layer.obj
 0002:00002698       ??_C@_0P@IEJGKPGD@RL_DrawTexture@ 0000000140076698     win32_layer.obj
 0002:000026a8       ??_C@_0BA@DINOFMJP@RL_DrawTextureV@ 00000001400766a8     win32_layer.obj
 0002:000026b8       ??_C@_0BB@JJAOLOFO@RL_DrawTextureEx@ 00000001400766b8     win32_layer.obj
 0002:000026d0       ??_C@_0BJ@HLJEOFNC@DrawTextureRotatedScaled@ 00000001400766d0     win32_layer.obj
 0002:000026f0       ??_C@_0BD@MOCGKMAG@DrawTextureRotated@ 00000001400766f0     win32_layer.obj
 0002:00002708       ??_C@_0BC@BLKKBFCM@RL_DrawTextureRec@ 0000000140076708     win32_layer.obj
 0002:00002720       ??_C@_0BD@CHGPJBHE@RL_DrawTextureQuad@ 0000000140076720     win32_layer.obj
 0002:00002738       ??_C@_0BE@FAKLCNMN@RL_DrawTextureTiled@ 0000000140076738     win32_layer.obj
 0002:00002750       ??_C@_0BC@EHPCHFO@RL_DrawTexturePro@ 0000000140076750     win32_layer.obj
 0002:00002768       ??_C@_0BF@LNAAIDKE@RL_DrawTextureNPatch@ 0000000140076768     win32_layer.obj
 0002:00002780       ??_C@_0BD@NCBPPAHA@RL_DrawTexturePoly@ 0000000140076780     win32_layer.obj
 0002:00002798       ??_C@_07PANALAJD@RL_Fade@  0000000140076798     win32_layer.obj
 0002:000027a0       ??_C@_0O@EFKPKCIB@RL_ColorToInt@ 00000001400767a0     win32_layer.obj
 0002:000027b0       ??_C@_0BC@HBOIMKHH@RL_ColorNormalize@ 00000001400767b0     win32_layer.obj
 0002:000027c8       ??_C@_0BH@NMNBIABE@RL_ColorFromNormalized@ 00000001400767c8     win32_layer.obj
 0002:000027e0       ??_C@_0O@HGBCPFAH@RL_ColorToHSV@ 00000001400767e0     win32_layer.obj
 0002:000027f0       ??_C@_0BA@IMGEFEOA@RL_ColorFromHSV@ 00000001400767f0     win32_layer.obj
 0002:00002800       ??_C@_0O@OPAPGGPE@RL_ColorAlpha@ 0000000140076800     win32_layer.obj
 0002:00002810       ??_C@_0BD@CADBIIMP@RL_ColorAlphaBlend@ 0000000140076810     win32_layer.obj
 0002:00002828       ??_C@_0M@EHCENIEL@RL_GetColor@ 0000000140076828     win32_layer.obj
 0002:00002838       ??_C@_0BB@JMGELCPH@RL_GetPixelColor@ 0000000140076838     win32_layer.obj
 0002:00002850       ??_C@_0BB@ODHKABIA@RL_SetPixelColor@ 0000000140076850     win32_layer.obj
 0002:00002868       ??_C@_0BE@MIBEAMMJ@RL_GetPixelDataSize@ 0000000140076868     win32_layer.obj
 0002:00002880       ??_C@_0BC@ICPAEDIA@RL_GetFontDefault@ 0000000140076880     win32_layer.obj
 0002:00002898       ??_C@_0M@PCACPDJD@RL_LoadFont@ 0000000140076898     win32_layer.obj
 0002:000028a8       ??_C@_0O@OPGPDEKI@RL_LoadFontEx@ 00000001400768a8     win32_layer.obj
 0002:000028b8       ??_C@_0BF@HMBPPNJG@RL_LoadFontFromImage@ 00000001400768b8     win32_layer.obj
 0002:000028d0       ??_C@_0BG@OGNMDNFG@RL_LoadFontFromMemory@ 00000001400768d0     win32_layer.obj
 0002:000028e8       ??_C@_0BA@HIAFIGPE@RL_LoadFontData@ 00000001400768e8     win32_layer.obj
 0002:000028f8       ??_C@_0BF@MLBBAOJF@RL_GenImageFontAtlas@ 00000001400768f8     win32_layer.obj
 0002:00002910       ??_C@_0BC@BEPMGMPM@RL_UnloadFontData@ 0000000140076910     win32_layer.obj
 0002:00002928       ??_C@_0O@PHOKPLFO@RL_UnloadFont@ 0000000140076928     win32_layer.obj
 0002:00002938       ??_C@_0BE@OCAECLPG@RL_ExportFontAsCode@ 0000000140076938     win32_layer.obj
 0002:00002950       ??_C@_0L@IAOIIJIM@RL_DrawFPS@ 0000000140076950     win32_layer.obj
 0002:00002960       ??_C@_0M@EGBAPOAA@RL_DrawText@ 0000000140076960     win32_layer.obj
 0002:00002970       ??_C@_0O@MLLCCFNO@RL_DrawTextEx@ 0000000140076970     win32_layer.obj
 0002:00002980       ??_C@_0P@OJJFBIOF@RL_DrawTextPro@ 0000000140076980     win32_layer.obj
 0002:00002990       ??_C@_0BF@HADCEDBO@RL_DrawTextCodepoint@ 0000000140076990     win32_layer.obj
 0002:000029a8       ??_C@_0BG@POGNCFBF@RL_DrawTextCodepoints@ 00000001400769a8     win32_layer.obj
 0002:000029c0       ??_C@_0P@CEGFBKCG@RL_MeasureText@ 00000001400769c0     win32_layer.obj
 0002:000029d0       ??_C@_0BB@KPALOCOO@RL_MeasureTextEx@ 00000001400769d0     win32_layer.obj
 0002:000029e8       ??_C@_0BB@IENIOIIB@RL_GetGlyphIndex@ 00000001400769e8     win32_layer.obj
 0002:00002a00       ??_C@_0BA@MBBMJKPJ@RL_GetGlyphInfo@ 0000000140076a00     win32_layer.obj
 0002:00002a10       ??_C@_0BE@BGJNBGCM@RL_GetGlyphAtlasRec@ 0000000140076a10     win32_layer.obj
 0002:00002a28       ??_C@_0BC@NBLMCECN@RL_LoadCodepoints@ 0000000140076a28     win32_layer.obj
 0002:00002a40       ??_C@_0BE@FJLKMJLK@RL_UnloadCodepoints@ 0000000140076a40     win32_layer.obj
 0002:00002a58       ??_C@_0BF@ICPHOJHO@RL_GetCodepointCount@ 0000000140076a58     win32_layer.obj
 0002:00002a70       ??_C@_0BA@LINEGJBM@RL_GetCodepoint@ 0000000140076a70     win32_layer.obj
 0002:00002a80       ??_C@_0BD@DNEGGAHM@RL_CodepointToUTF8@ 0000000140076a80     win32_layer.obj
 0002:00002a98       ??_C@_0BI@HHBBJFIO@RL_TextCodepointsToUTF8@ 0000000140076a98     win32_layer.obj
 0002:00002ab0       ??_C@_0M@OOLMKLPD@RL_TextCopy@ 0000000140076ab0     win32_layer.obj
 0002:00002ac0       ??_C@_0P@LBGDLFFN@RL_TextIsEqual@ 0000000140076ac0     win32_layer.obj
 0002:00002ad0       ??_C@_0O@LIIMFNEB@RL_TextLength@ 0000000140076ad0     win32_layer.obj
 0002:00002ae0       ??_C@_0P@CMHEEAED@RL_TextSubtext@ 0000000140076ae0     win32_layer.obj
 0002:00002af0       ??_C@_0P@FFEGFLBG@RL_TextReplace@ 0000000140076af0     win32_layer.obj
 0002:00002b00       ??_C@_0O@FAPADIHC@RL_TextInsert@ 0000000140076b00     win32_layer.obj
 0002:00002b10       ??_C@_0M@PFNINFOL@RL_TextJoin@ 0000000140076b10     win32_layer.obj
 0002:00002b20       ??_C@_0N@IIIGOKGA@RL_TextSplit@ 0000000140076b20     win32_layer.obj
 0002:00002b30       ??_C@_0O@ECJNCHGL@RL_TextAppend@ 0000000140076b30     win32_layer.obj
 0002:00002b40       ??_C@_0BB@HAKHAJKP@RL_TextFindIndex@ 0000000140076b40     win32_layer.obj
 0002:00002b58       ??_C@_0P@CMIDCLAH@RL_TextToUpper@ 0000000140076b58     win32_layer.obj
 0002:00002b68       ??_C@_0P@HHDNEALO@RL_TextToLower@ 0000000140076b68     win32_layer.obj
 0002:00002b78       ??_C@_0BA@LBBJPEJP@RL_TextToPascal@ 0000000140076b78     win32_layer.obj
 0002:00002b88       ??_C@_0BB@FAELHHPH@RL_TextToInteger@ 0000000140076b88     win32_layer.obj
 0002:00002ba0       ??_C@_0O@MMMLAIMJ@RL_DrawLine3D@ 0000000140076ba0     win32_layer.obj
 0002:00002bb0       ??_C@_0P@DANDFLL@RL_DrawPoint3D@ 0000000140076bb0     win32_layer.obj
 0002:00002bc0       ??_C@_0BA@KNIILDAB@RL_DrawCircle3D@ 0000000140076bc0     win32_layer.obj
 0002:00002bd0       ??_C@_0BC@LFOCPPNC@RL_DrawTriangle3D@ 0000000140076bd0     win32_layer.obj
 0002:00002be8       ??_C@_0BH@GNKDLJLA@RL_DrawTriangleStrip3D@ 0000000140076be8     win32_layer.obj
 0002:00002c00       ??_C@_0M@IGKBOHLL@RL_DrawCube@ 0000000140076c00     win32_layer.obj
 0002:00002c10       ??_C@_0N@LANEDBDB@RL_DrawCubeV@ 0000000140076c10     win32_layer.obj
 0002:00002c20       ??_C@_0BB@JHENCOIE@RL_DrawCubeWires@ 0000000140076c20     win32_layer.obj
 0002:00002c38       ??_C@_0BC@GKDPAMF@RL_DrawCubeWiresV@ 0000000140076c38     win32_layer.obj
 0002:00002c50       ??_C@_0BD@FMJJELAO@RL_DrawCubeTexture@ 0000000140076c50     win32_layer.obj
 0002:00002c68       ??_C@_0BG@PBAIGGPO@RL_DrawCubeTextureRec@ 0000000140076c68     win32_layer.obj
 0002:00002c80       ??_C@_0O@LADLAAJ@RL_DrawSphere@ 0000000140076c80     win32_layer.obj
 0002:00002c90       ??_C@_0BA@ILBELPBD@RL_DrawSphereEx@ 0000000140076c90     win32_layer.obj
 0002:00002ca0       ??_C@_0BD@PPEBCNOD@RL_DrawSphereWires@ 0000000140076ca0     win32_layer.obj
 0002:00002cb8       ??_C@_0BA@GEBILBKN@RL_DrawCylinder@ 0000000140076cb8     win32_layer.obj
 0002:00002cc8       ??_C@_0BC@DGHIJJHD@RL_DrawCylinderEx@ 0000000140076cc8     win32_layer.obj
 0002:00002ce0       ??_C@_0BF@DAEMEICJ@RL_DrawCylinderWires@ 0000000140076ce0     win32_layer.obj
 0002:00002cf8       ??_C@_0BH@KNPGNKNA@RL_DrawCylinderWiresEx@ 0000000140076cf8     win32_layer.obj
 0002:00002d10       ??_C@_0N@LCONJBMI@RL_DrawPlane@ 0000000140076d10     win32_layer.obj
 0002:00002d20       ??_C@_0L@BFFBAKML@RL_DrawRay@ 0000000140076d20     win32_layer.obj
 0002:00002d30       ??_C@_0M@PLLIKHGC@RL_DrawGrid@ 0000000140076d30     win32_layer.obj
 0002:00002d40       ??_C@_0N@LICCDNEG@RL_LoadModel@ 0000000140076d40     win32_layer.obj
 0002:00002d50       ??_C@_0BF@JBPEIIJH@RL_LoadModelFromMesh@ 0000000140076d50     win32_layer.obj
 0002:00002d68       ??_C@_0P@FNPCGLED@RL_UnloadModel@ 0000000140076d68     win32_layer.obj
 0002:00002d78       ??_C@_0BJ@FLPPNACD@RL_UnloadModelKeepMeshes@ 0000000140076d78     win32_layer.obj
 0002:00002d98       ??_C@_0BH@KDHNPID@RL_GetModelBoundingBox@ 0000000140076d98     win32_layer.obj
 0002:00002db0       ??_C@_0N@KAEMFOMH@RL_DrawModel@ 0000000140076db0     win32_layer.obj
 0002:00002dc0       ??_C@_0P@JJNPCBOD@RL_DrawModelEx@ 0000000140076dc0     win32_layer.obj
 0002:00002dd0       ??_C@_0BC@KJPBOCIN@RL_DrawModelWires@ 0000000140076dd0     win32_layer.obj
 0002:00002de8       ??_C@_0BE@FBJOHAHG@RL_DrawModelWiresEx@ 0000000140076de8     win32_layer.obj
 0002:00002e00       ??_C@_0BD@PKIODGJI@RL_DrawBoundingBox@ 0000000140076e00     win32_layer.obj
 0002:00002e18       ??_C@_0BB@DHNIAJJC@RL_DrawBillboard@ 0000000140076e18     win32_layer.obj
 0002:00002e30       ??_C@_0BE@MGJFHLIA@RL_DrawBillboardRec@ 0000000140076e30     win32_layer.obj
 0002:00002e48       ??_C@_0BE@NJEAEJPC@RL_DrawBillboardPro@ 0000000140076e48     win32_layer.obj
 0002:00002e60       ??_C@_0O@CEGJPGAO@RL_UploadMesh@ 0000000140076e60     win32_layer.obj
 0002:00002e70       ??_C@_0BE@GBNKJCDG@RL_UpdateMeshBuffer@ 0000000140076e70     win32_layer.obj
 0002:00002e88       ??_C@_0O@BNAOEHFF@RL_UnloadMesh@ 0000000140076e88     win32_layer.obj
 0002:00002e98       ??_C@_0M@MBMCLJEP@RL_DrawMesh@ 0000000140076e98     win32_layer.obj
 0002:00002ea8       ??_C@_0BF@GOGLMKI@RL_DrawMeshInstanced@ 0000000140076ea8     win32_layer.obj
 0002:00002ec0       ??_C@_0O@IGFMEHJM@RL_ExportMesh@ 0000000140076ec0     win32_layer.obj
 0002:00002ed0       ??_C@_0BG@KKBKPABH@RL_GetMeshBoundingBox@ 0000000140076ed0     win32_layer.obj
 0002:00002ee8       ??_C@_0BD@PHGLODB@RL_GenMeshTangents@ 0000000140076ee8     win32_layer.obj
 0002:00002f00       ??_C@_0P@ILEEKIIO@RL_GenMeshPoly@ 0000000140076f00     win32_layer.obj
 0002:00002f10       ??_C@_0BA@LOKCGCJF@RL_GenMeshPlane@ 0000000140076f10     win32_layer.obj
 0002:00002f20       ??_C@_0P@HPEJICHA@RL_GenMeshCube@ 0000000140076f20     win32_layer.obj
 0002:00002f30       ??_C@_0BB@BONFNCLD@RL_GenMeshSphere@ 0000000140076f30     win32_layer.obj
 0002:00002f48       ??_C@_0BF@GHGOMFB@RL_GenMeshHemiSphere@ 0000000140076f48     win32_layer.obj
 0002:00002f60       ??_C@_0BD@NJIOOCDN@RL_GenMeshCylinder@ 0000000140076f60     win32_layer.obj
 0002:00002f78       ??_C@_0P@EJPHMMOP@RL_GenMeshCone@ 0000000140076f78     win32_layer.obj
 0002:00002f88       ??_C@_0BA@CMNEFLGE@RL_GenMeshTorus@ 0000000140076f88     win32_layer.obj
 0002:00002f98       ??_C@_0P@JDCAKJGM@RL_GenMeshKnot@ 0000000140076f98     win32_layer.obj
 0002:00002fa8       ??_C@_0BE@LACIMFPH@RL_GenMeshHeightmap@ 0000000140076fa8     win32_layer.obj
 0002:00002fc0       ??_C@_0BD@GOLJMNEK@RL_GenMeshCubicmap@ 0000000140076fc0     win32_layer.obj
 0002:00002fd8       ??_C@_0BB@CPAGBIMF@RL_LoadMaterials@ 0000000140076fd8     win32_layer.obj
 0002:00002ff0       ??_C@_0BH@HNMJFIMB@RL_LoadMaterialDefault@ 0000000140076ff0     win32_layer.obj
 0002:00003008       ??_C@_0BC@MMJBIILC@RL_UnloadMaterial@ 0000000140077008     win32_layer.obj
 0002:00003020       ??_C@_0BG@DCEODFIL@RL_SetMaterialTexture@ 0000000140077020     win32_layer.obj
 0002:00003038       ??_C@_0BI@CIGOGCIK@RL_SetModelMeshMaterial@ 0000000140077038     win32_layer.obj
 0002:00003050       ??_C@_0BH@ILJLHCAH@RL_LoadModelAnimations@ 0000000140077050     win32_layer.obj
 0002:00003068       ??_C@_0BI@HMHHPAII@RL_UpdateModelAnimation@ 0000000140077068     win32_layer.obj
 0002:00003080       ??_C@_0BI@NIFCPLKG@RL_UnloadModelAnimation@ 0000000140077080     win32_layer.obj
 0002:00003098       ??_C@_0BJ@DLHPHOBD@RL_UnloadModelAnimations@ 0000000140077098     win32_layer.obj
 0002:000030b8       ??_C@_0BJ@ONEBAEGP@RL_IsModelAnimationValid@ 00000001400770b8     win32_layer.obj
 0002:000030d8       ??_C@_0BJ@LNNIANIM@RL_CheckCollisionSpheres@ 00000001400770d8     win32_layer.obj
 0002:000030f8       ??_C@_0BH@BBKJBEEP@RL_CheckCollisionBoxes@ 00000001400770f8     win32_layer.obj
 0002:00003110       ??_C@_0BL@GKEPJODC@RL_CheckCollisionBoxSphere@ 0000000140077110     win32_layer.obj
 0002:00003130       ??_C@_0BJ@EJNDOEM@RL_GetRayCollisionSphere@ 0000000140077130     win32_layer.obj
 0002:00003150       ??_C@_0BG@NOLPBAAH@RL_GetRayCollisionBox@ 0000000140077150     win32_layer.obj
 0002:00003168       ??_C@_0BH@NCCGFDEI@RL_GetRayCollisionMesh@ 0000000140077168     win32_layer.obj
 0002:00003180       ??_C@_0BL@NAFBCFIH@RL_GetRayCollisionTriangle@ 0000000140077180     win32_layer.obj
 0002:000031a0       ??_C@_0BH@JEDIEGEG@RL_GetRayCollisionQuad@ 00000001400771a0     win32_layer.obj
 0002:000031b8       ??_C@_0BD@KOAIEOIO@RL_InitAudioDevice@ 00000001400771b8     win32_layer.obj
 0002:000031d0       ??_C@_0BE@KMPPNIDC@RL_CloseAudioDevice@ 00000001400771d0     win32_layer.obj
 0002:000031e8       ??_C@_0BG@MAPCKCPJ@RL_IsAudioDeviceReady@ 00000001400771e8     win32_layer.obj
 0002:00003200       ??_C@_0BD@IOLHGEAA@RL_SetMasterVolume@ 0000000140077200     win32_layer.obj
 0002:00003218       ??_C@_0M@OLBOLEK@RL_LoadWave@ 0000000140077218     win32_layer.obj
 0002:00003228       ??_C@_0BG@KJGHPIFF@RL_LoadWaveFromMemory@ 0000000140077228     win32_layer.obj
 0002:00003240       ??_C@_0N@KNNHALLO@RL_LoadSound@ 0000000140077240     win32_layer.obj
 0002:00003250       ??_C@_0BF@INMBCDIK@RL_LoadSoundFromWave@ 0000000140077250     win32_layer.obj
 0002:00003268       ??_C@_0P@PNLOBNOL@RL_UpdateSound@ 0000000140077268     win32_layer.obj
 0002:00003278       ??_C@_0O@LFJODIH@RL_UnloadWave@ 0000000140077278     win32_layer.obj
 0002:00003288       ??_C@_0P@EIAHFNLL@RL_UnloadSound@ 0000000140077288     win32_layer.obj
 0002:00003298       ??_C@_0O@JAALODEO@RL_ExportWave@ 0000000140077298     win32_layer.obj
 0002:000032a8       ??_C@_0BE@DELMNBJC@RL_ExportWaveAsCode@ 00000001400772a8     win32_layer.obj
 0002:000032c0       ??_C@_0N@KPMBKLBD@RL_PlaySound@ 00000001400772c0     win32_layer.obj
 0002:000032d0       ??_C@_0N@NDPMKHJI@RL_StopSound@ 00000001400772d0     win32_layer.obj
 0002:000032e0       ??_C@_0O@IEGCHAG@RL_PauseSound@ 00000001400772e0     win32_layer.obj
 0002:000032f0       ??_C@_0P@BCNDPAB@RL_ResumeSound@ 00000001400772f0     win32_layer.obj
 0002:00003300       ??_C@_0BC@BABLABND@RL_PlaySoundMulti@ 0000000140077300     win32_layer.obj
 0002:00003318       ??_C@_0BC@DDMCHPNB@RL_StopSoundMulti@ 0000000140077318     win32_layer.obj
 0002:00003330       ??_C@_0BE@EPKHECEL@RL_GetSoundsPlaying@ 0000000140077330     win32_layer.obj
 0002:00003348       ??_C@_0BC@CKHLFPH@RL_IsSoundPlaying@ 0000000140077348     win32_layer.obj
 0002:00003360       ??_C@_0BC@NDIMJAHH@RL_SetSoundVolume@ 0000000140077360     win32_layer.obj
 0002:00003378       ??_C@_0BB@MONEFLPK@RL_SetSoundPitch@ 0000000140077378     win32_layer.obj
 0002:00003390       ??_C@_0P@FCPNNFE@RL_SetSoundPan@ 0000000140077390     win32_layer.obj
 0002:000033a0       ??_C@_0M@MLMODDKP@RL_WaveCopy@ 00000001400773a0     win32_layer.obj
 0002:000033b0       ??_C@_0M@KPAFODOJ@RL_WaveCrop@ 00000001400773b0     win32_layer.obj
 0002:000033c0       ??_C@_0O@GDIKKLBE@RL_WaveFormat@ 00000001400773c0     win32_layer.obj
 0002:000033d0       ??_C@_0BD@NBKOLDJL@RL_LoadWaveSamples@ 00000001400773d0     win32_layer.obj
 0002:000033e8       ??_C@_0BF@LPENLDJB@RL_UnloadWaveSamples@ 00000001400773e8     win32_layer.obj
 0002:00003400       ??_C@_0BD@GDNLAGKD@RL_LoadMusicStream@ 0000000140077400     win32_layer.obj
 0002:00003418       ??_C@_0BN@CKDCJAE@RL_LoadMusicStreamFromMemory@ 0000000140077418     win32_layer.obj
 0002:00003438       ??_C@_0BF@NDIAGKJ@RL_UnloadMusicStream@ 0000000140077438     win32_layer.obj
 0002:00003450       ??_C@_0BD@MAIIEHCI@RL_PlayMusicStream@ 0000000140077450     win32_layer.obj
 0002:00003468       ??_C@_0BI@MEKHGLFB@RL_IsMusicStreamPlaying@ 0000000140077468     win32_layer.obj
 0002:00003480       ??_C@_0BF@PKKKGLPM@RL_UpdateMusicStream@ 0000000140077480     win32_layer.obj
 0002:00003498       ??_C@_0BD@COKFPPHK@RL_StopMusicStream@ 0000000140077498     win32_layer.obj
 0002:000034b0       ??_C@_0BE@ELDMEMPE@RL_PauseMusicStream@ 00000001400774b0     win32_layer.obj
 0002:000034c8       ??_C@_0BF@OFFPOLIC@RL_ResumeMusicStream@ 00000001400774c8     win32_layer.obj
 0002:000034e0       ??_C@_0BD@FCMFHIDP@RL_SeekMusicStream@ 00000001400774e0     win32_layer.obj
 0002:000034f8       ??_C@_0BC@BJEGCGEN@RL_SetMusicVolume@ 00000001400774f8     win32_layer.obj
 0002:00003510       ??_C@_0BB@LOKAOLAL@RL_SetMusicPitch@ 0000000140077510     win32_layer.obj
 0002:00003528       ??_C@_0P@EAKDLAMG@RL_SetMusicPan@ 0000000140077528     win32_layer.obj
 0002:00003538       ??_C@_0BG@EEILDFGK@RL_GetMusicTimeLength@ 0000000140077538     win32_layer.obj
 0002:00003550       ??_C@_0BG@EADNKDCO@RL_GetMusicTimePlayed@ 0000000140077550     win32_layer.obj
 0002:00003568       ??_C@_0BD@PEAMMEPM@RL_LoadAudioStream@ 0000000140077568     win32_layer.obj
 0002:00003580       ??_C@_0BF@JKOPMEPG@RL_UnloadAudioStream@ 0000000140077580     win32_layer.obj
 0002:00003598       ??_C@_0BF@GNHNKJKD@RL_UpdateAudioStream@ 0000000140077598     win32_layer.obj
 0002:000035b0       ??_C@_0BK@EPMNHJAG@RL_IsAudioStreamProcessed@ 00000001400775b0     win32_layer.obj
 0002:000035d0       ??_C@_0BD@FHFPIFHH@RL_PlayAudioStream@ 00000001400775d0     win32_layer.obj
 0002:000035e8       ??_C@_0BE@NMOLIOKL@RL_PauseAudioStream@ 00000001400775e8     win32_layer.obj
 0002:00003600       ??_C@_0BF@HCIICJNN@RL_ResumeAudioStream@ 0000000140077600     win32_layer.obj
 0002:00003618       ??_C@_0BI@FGFIDHOE@RL_IsAudioStreamPlaying@ 0000000140077618     win32_layer.obj
 0002:00003630       ??_C@_0BD@LJHCDNCF@RL_StopAudioStream@ 0000000140077630     win32_layer.obj
 0002:00003648       ??_C@_0BI@BCEGGCNA@RL_SetAudioStreamVolume@ 0000000140077648     win32_layer.obj
 0002:00003660       ??_C@_0BH@GFDLFHME@RL_SetAudioStreamPitch@ 0000000140077660     win32_layer.obj
 0002:00003678       ??_C@_0BF@FKDPCJLD@RL_SetAudioStreamPan@ 0000000140077678     win32_layer.obj
 0002:00003690       ??_C@_0CD@NNJGHOLF@RL_SetAudioStreamBufferSizeDefa@ 0000000140077690     win32_layer.obj
 0002:000036b8       ??_C@_0BK@DECKFGOB@RL_SetAudioStreamCallback@ 00000001400776b8     win32_layer.obj
 0002:000036d8       ??_C@_0BO@IMNOEEPK@RL_AttachAudioStreamProcessor@ 00000001400776d8     win32_layer.obj
 0002:000036f8       ??_C@_0BO@MOFMMJBB@RL_DetachAudioStreamProcessor@ 00000001400776f8     win32_layer.obj
 0002:00003718       ??_C@_0BC@KCIOFHDE@Result?4InitWindow@ 0000000140077718     win32_layer.obj
 0002:00003730       ??_C@_1CE@CAOOJHOC@?$AAR?$AAe?$AAs?$AAu?$AAl?$AAt?$AA?4?$AAI?$AAn?$AAi?$AAt?$AAW?$AAi?$AAn?$AAd@ 0000000140077730     win32_layer.obj
 0002:00003758       ??_C@_0BJ@HCFLNPOC@Result?4WindowShouldClose@ 0000000140077758     win32_layer.obj
 0002:00003778       ??_C@_1DC@HLMPHPGM@?$AAR?$AAe?$AAs?$AAu?$AAl?$AAt?$AA?4?$AAW?$AAi?$AAn?$AAd?$AAo?$AAw?$AAS?$AAh@ 0000000140077778     win32_layer.obj
 0002:000037b0       ??_C@_0BD@DHHJAOCC@Result?4CloseWindow@ 00000001400777b0     win32_layer.obj
 0002:000037c8       ??_C@_1CG@HDAABFJA@?$AAR?$AAe?$AAs?$AAu?$AAl?$AAt?$AA?4?$AAC?$AAl?$AAo?$AAs?$AAe?$AAW?$AAi?$AAn@ 00000001400777c8     win32_layer.obj
 0002:000037f0       ??_C@_0BF@NIIBKLPE@Result?4IsWindowReady@ 00000001400777f0     win32_layer.obj
 0002:00003808       ??_C@_1CK@MJFNDGJA@?$AAR?$AAe?$AAs?$AAu?$AAl?$AAt?$AA?4?$AAI?$AAs?$AAW?$AAi?$AAn?$AAd?$AAo?$AAw@ 0000000140077808     win32_layer.obj
 0002:00003838       ??_C@_0BK@IFHLEFLM@Result?4IsWindowFullscreen@ 0000000140077838     win32_layer.obj
 0002:00003858       ??_C@_1DE@PKICKOPO@?$AAR?$AAe?$AAs?$AAu?$AAl?$AAt?$AA?4?$AAI?$AAs?$AAW?$AAi?$AAn?$AAd?$AAo?$AAw@ 0000000140077858     win32_layer.obj
 0002:00003890       ??_C@_0BG@CIMGCHBI@Result?4IsWindowHidden@ 0000000140077890     win32_layer.obj
 0002:000038a8       ??_C@_1CM@EGLAPEDM@?$AAR?$AAe?$AAs?$AAu?$AAl?$AAt?$AA?4?$AAI?$AAs?$AAW?$AAi?$AAn?$AAd?$AAo?$AAw@ 00000001400778a8     win32_layer.obj
 0002:000038d8       ??_C@_0BJ@LJLFCIKB@Result?4IsWindowMinimized@ 00000001400778d8     win32_layer.obj
 0002:000038f8       ??_C@_1DC@PKJHIKKJ@?$AAR?$AAe?$AAs?$AAu?$AAl?$AAt?$AA?4?$AAI?$AAs?$AAW?$AAi?$AAn?$AAd?$AAo?$AAw@ 00000001400778f8     win32_layer.obj
 0002:00003930       ??_C@_0BJ@LILJLCBF@Result?4IsWindowMaximized@ 0000000140077930     win32_layer.obj
 0002:00003950       ??_C@_1DC@FIHAHDNP@?$AAR?$AAe?$AAs?$AAu?$AAl?$AAt?$AA?4?$AAI?$AAs?$AAW?$AAi?$AAn?$AAd?$AAo?$AAw@ 0000000140077950     win32_layer.obj
 0002:00003988       ??_C@_0BH@FNCNLOPC@Result?4IsWindowFocused@ 0000000140077988     win32_layer.obj
 0002:000039a0       ??_C@_1CO@MJMABPDF@?$AAR?$AAe?$AAs?$AAu?$AAl?$AAt?$AA?4?$AAI?$AAs?$AAW?$AAi?$AAn?$AAd?$AAo?$AAw@ 00000001400779a0     win32_layer.obj
 0002:000039d0       ??_C@_0BH@NKGCOJPP@Result?4IsWindowResized@ 00000001400779d0     win32_layer.obj
 0002:000039e8       ??_C@_1CO@HCECAAG@?$AAR?$AAe?$AAs?$AAu?$AAl?$AAt?$AA?4?$AAI?$AAs?$AAW?$AAi?$AAn?$AAd?$AAo?$AAw@ 00000001400779e8     win32_layer.obj
 0002:00003a18       ??_C@_0BF@LEAMDIEO@Result?4IsWindowState@ 0000000140077a18     win32_layer.obj
 0002:00003a30       ??_C@_1CK@IDINHKJF@?$AAR?$AAe?$AAs?$AAu?$AAl?$AAt?$AA?4?$AAI?$AAs?$AAW?$AAi?$AAn?$AAd?$AAo?$AAw@ 0000000140077a30     win32_layer.obj
 0002:00003a60       ??_C@_0BG@CHIBMHPP@Result?4SetWindowState@ 0000000140077a60     win32_layer.obj
 0002:00003a78       ??_C@_1CM@NPLBMGAE@?$AAR?$AAe?$AAs?$AAu?$AAl?$AAt?$AA?4?$AAS?$AAe?$AAt?$AAW?$AAi?$AAn?$AAd?$AAo@ 0000000140077a78     win32_layer.obj
 0002:00003aa8       ??_C@_0BI@PHPOCOLH@Result?4ClearWindowState@ 0000000140077aa8     win32_layer.obj
 0002:00003ac0       ??_C@_1DA@OECDNDBJ@?$AAR?$AAe?$AAs?$AAu?$AAl?$AAt?$AA?4?$AAC?$AAl?$AAe?$AAa?$AAr?$AAW?$AAi?$AAn@ 0000000140077ac0     win32_layer.obj
 0002:00003af0       ??_C@_0BI@PODIHCJF@Result?4ToggleFullscreen@ 0000000140077af0     win32_layer.obj
 0002:00003b08       ??_C@_1DA@DBCJGKFJ@?$AAR?$AAe?$AAs?$AAu?$AAl?$AAt?$AA?4?$AAT?$AAo?$AAg?$AAg?$AAl?$AAe?$AAF?$AAu@ 0000000140077b08     win32_layer.obj
 0002:00003b38       ??_C@_0BG@EIAMCAOL@Result?4MaximizeWindow@ 0000000140077b38     win32_layer.obj
 0002:00003b50       ??_C@_1CM@CCEBBLBC@?$AAR?$AAe?$AAs?$AAu?$AAl?$AAt?$AA?4?$AAM?$AAa?$AAx?$AAi?$AAm?$AAi?$AAz?$AAe@ 0000000140077b50     win32_layer.obj
 0002:00003b80       ??_C@_0BG@GPLHEHNK@Result?4MinimizeWindow@ 0000000140077b80     win32_layer.obj
 0002:00003b98       ??_C@_1CM@LKGCHFDD@?$AAR?$AAe?$AAs?$AAu?$AAl?$AAt?$AA?4?$AAM?$AAi?$AAn?$AAi?$AAm?$AAi?$AAz?$AAe@ 0000000140077b98     win32_layer.obj
 0002:00003bc8       ??_C@_0BF@EJLMDNIK@Result?4RestoreWindow@ 0000000140077bc8     win32_layer.obj
 0002:00003be0       ??_C@_1CK@KHNOIMKE@?$AAR?$AAe?$AAs?$AAu?$AAl?$AAt?$AA?4?$AAR?$AAe?$AAs?$AAt?$AAo?$AAr?$AAe?$AAW@ 0000000140077be0     win32_layer.obj
 0002:00003c10       ??_C@_0BF@ODHDPHHC@Result?4SetWindowIcon@ 0000000140077c10     win32_layer.obj
 0002:00003c28       ??_C@_1CK@MJHGDNNO@?$AAR?$AAe?$AAs?$AAu?$AAl?$AAt?$AA?4?$AAS?$AAe?$AAt?$AAW?$AAi?$AAn?$AAd?$AAo@ 0000000140077c28     win32_layer.obj
 0002:00003c58       ??_C@_0BG@NHAGPBBB@Result?4SetWindowTitle@ 0000000140077c58     win32_layer.obj
 0002:00003c70       ??_C@_1CM@KCKHJKGK@?$AAR?$AAe?$AAs?$AAu?$AAl?$AAt?$AA?4?$AAS?$AAe?$AAt?$AAW?$AAi?$AAn?$AAd?$AAo@ 0000000140077c70     win32_layer.obj
 0002:00003ca0       ??_C@_0BJ@FEJCIHGA@Result?4SetWindowPosition@ 0000000140077ca0     win32_layer.obj
 0002:00003cc0       ??_C@_1DC@LIFNLEPE@?$AAR?$AAe?$AAs?$AAu?$AAl?$AAt?$AA?4?$AAS?$AAe?$AAt?$AAW?$AAi?$AAn?$AAd?$AAo@ 0000000140077cc0     win32_layer.obj
 0002:00003cf8       ??_C@_0BI@EFMNCALI@Result?4SetWindowMonitor@ 0000000140077cf8     win32_layer.obj
 0002:00003d10       ??_C@_1DA@DGJMJDKJ@?$AAR?$AAe?$AAs?$AAu?$AAl?$AAt?$AA?4?$AAS?$AAe?$AAt?$AAW?$AAi?$AAn?$AAd?$AAo@ 0000000140077d10     win32_layer.obj
 0002:00003d40       ??_C@_0BI@HAJBNPOK@Result?4SetWindowMinSize@ 0000000140077d40     win32_layer.obj
 0002:00003d58       ??_C@_1DA@MIOEBCBK@?$AAR?$AAe?$AAs?$AAu?$AAl?$AAt?$AA?4?$AAS?$AAe?$AAt?$AAW?$AAi?$AAn?$AAd?$AAo@ 0000000140077d58     win32_layer.obj
 0002:00003d88       ??_C@_0BF@FPIHCAGF@Result?4SetWindowSize@ 0000000140077d88     win32_layer.obj
 0002:00003da0       ??_C@_1CK@OMCACEBO@?$AAR?$AAe?$AAs?$AAu?$AAl?$AAt?$AA?4?$AAS?$AAe?$AAt?$AAW?$AAi?$AAn?$AAd?$AAo@ 0000000140077da0     win32_layer.obj
 0002:00003dd0       ??_C@_0BI@HMGMHLIO@Result?4SetWindowOpacity@ 0000000140077dd0     win32_layer.obj
 0002:00003de8       ??_C@_1DA@LNACGAEL@?$AAR?$AAe?$AAs?$AAu?$AAl?$AAt?$AA?4?$AAS?$AAe?$AAt?$AAW?$AAi?$AAn?$AAd?$AAo@ 0000000140077de8     win32_layer.obj
 0002:00003e18       ??_C@_0BH@OMODCDGM@Result?4GetWindowHandle@ 0000000140077e18     win32_layer.obj
 0002:00003e30       ??_C@_1CO@GBMOKIMB@?$AAR?$AAe?$AAs?$AAu?$AAl?$AAt?$AA?4?$AAG?$AAe?$AAt?$AAW?$AAi?$AAn?$AAd?$AAo@ 0000000140077e30     win32_layer.obj
 0002:00003e60       ??_C@_0BG@MAMIHBIC@Result?4GetScreenWidth@ 0000000140077e60     win32_layer.obj
 0002:00003e78       ??_C@_1CM@CLOCLJEI@?$AAR?$AAe?$AAs?$AAu?$AAl?$AAt?$AA?4?$AAG?$AAe?$AAt?$AAS?$AAc?$AAr?$AAe?$AAe@ 0000000140077e78     win32_layer.obj
 0002:00003ea8       ??_C@_0BH@BEENIGBD@Result?4GetScreenHeight@ 0000000140077ea8     win32_layer.obj
 0002:00003ec0       ??_C@_1CO@FMKGKKGP@?$AAR?$AAe?$AAs?$AAu?$AAl?$AAt?$AA?4?$AAG?$AAe?$AAt?$AAS?$AAc?$AAr?$AAe?$AAe@ 0000000140077ec0     win32_layer.obj
 0002:00003ef0       ??_C@_0BG@DJEPHEDB@Result?4GetRenderWidth@ 0000000140077ef0     win32_layer.obj
 0002:00003f08       ??_C@_1CM@EINDALIB@?$AAR?$AAe?$AAs?$AAu?$AAl?$AAt?$AA?4?$AAG?$AAe?$AAt?$AAR?$AAe?$AAn?$AAd?$AAe@ 0000000140077f08     win32_layer.obj
 0002:00003f38       ??_C@_0BH@EGNMODCA@Result?4GetRenderHeight@ 0000000140077f38     win32_layer.obj
 0002:00003f50       ??_C@_1CO@GDPBHHPJ@?$AAR?$AAe?$AAs?$AAu?$AAl?$AAt?$AA?4?$AAG?$AAe?$AAt?$AAR?$AAe?$AAn?$AAd?$AAe@ 0000000140077f50     win32_layer.obj
 0002:00003f80       ??_C@_0BH@DKFMILOH@Result?4GetMonitorCount@ 0000000140077f80     win32_layer.obj
 0002:00003f98       ??_C@_1CO@LMIGFPAC@?$AAR?$AAe?$AAs?$AAu?$AAl?$AAt?$AA?4?$AAG?$AAe?$AAt?$AAM?$AAo?$AAn?$AAi?$AAt@ 0000000140077f98     win32_layer.obj
 0002:00003fc8       ??_C@_0BJ@CANAPCC@Result?4GetCurrentMonitor@ 0000000140077fc8     win32_layer.obj
 0002:00003fe8       ??_C@_1DC@LEFLCEBE@?$AAR?$AAe?$AAs?$AAu?$AAl?$AAt?$AA?4?$AAG?$AAe?$AAt?$AAC?$AAu?$AAr?$AAr?$AAe@ 0000000140077fe8     win32_layer.obj
 0002:00004020       ??_C@_0BK@DEEJDML@Result?4GetMonitorPosition@ 0000000140078020     win32_layer.obj
 0002:00004040       ??_C@_1DE@FGHNLCOO@?$AAR?$AAe?$AAs?$AAu?$AAl?$AAt?$AA?4?$AAG?$AAe?$AAt?$AAM?$AAo?$AAn?$AAi?$AAt@ 0000000140078040     win32_layer.obj
 0002:00004078       ??_C@_0BH@DCDIHFML@Result?4GetMonitorWidth@ 0000000140078078     win32_layer.obj
 0002:00004090       ??_C@_1CO@LGBFABKJ@?$AAR?$AAe?$AAs?$AAu?$AAl?$AAt?$AA?4?$AAG?$AAe?$AAt?$AAM?$AAo?$AAn?$AAi?$AAt@ 0000000140078090     win32_layer.obj
 0002:000040c0       ??_C@_0BI@BLLPIPCD@Result?4GetMonitorHeight@ 00000001400780c0     win32_layer.obj
 0002:000040d8       ??_C@_1DA@NOHJMOIL@?$AAR?$AAe?$AAs?$AAu?$AAl?$AAt?$AA?4?$AAG?$AAe?$AAt?$AAM?$AAo?$AAn?$AAi?$AAt@ 00000001400780d8     win32_layer.obj
 0002:00004108       ??_C@_0BP@LMMJHMPA@Result?4GetMonitorPhysicalWidth@ 0000000140078108     win32_layer.obj
 0002:00004128       ??_C@_1DO@PJHFLAB@?$AAR?$AAe?$AAs?$AAu?$AAl?$AAt?$AA?4?$AAG?$AAe?$AAt?$AAM?$AAo?$AAn?$AAi?$AAt@ 0000000140078128     win32_layer.obj
 0002:00004168       ??_C@_0CA@KKDKJHAO@Result?4GetMonitorPhysicalHeight@ 0000000140078168     win32_layer.obj
 0002:00004190       ??_C@_1EA@DDBJPJAC@?$AAR?$AAe?$AAs?$AAu?$AAl?$AAt?$AA?4?$AAG?$AAe?$AAt?$AAM?$AAo?$AAn?$AAi?$AAt@ 0000000140078190     win32_layer.obj
 0002:000041d0       ??_C@_0BN@JFCCCNOL@Result?4GetMonitorRefreshRate@ 00000001400781d0     win32_layer.obj
 0002:000041f0       ??_C@_1DK@JLKKFGAE@?$AAR?$AAe?$AAs?$AAu?$AAl?$AAt?$AA?4?$AAG?$AAe?$AAt?$AAM?$AAo?$AAn?$AAi?$AAt@ 00000001400781f0     win32_layer.obj
 0002:00004230       ??_C@_0BJ@HBJJAMHO@Result?4GetWindowPosition@ 0000000140078230     win32_layer.obj
 0002:00004250       ??_C@_1DC@GBEMIODP@?$AAR?$AAe?$AAs?$AAu?$AAl?$AAt?$AA?4?$AAG?$AAe?$AAt?$AAW?$AAi?$AAn?$AAd?$AAo@ 0000000140078250     win32_layer.obj
 0002:00004288       ??_C@_0BJ@EFBNOALJ@Result?4GetWindowScaleDPI@ 0000000140078288     win32_layer.obj
 0002:000042a8       ??_C@_1DC@FBEBLAOK@?$AAR?$AAe?$AAs?$AAu?$AAl?$AAt?$AA?4?$AAG?$AAe?$AAt?$AAW?$AAi?$AAn?$AAd?$AAo@ 00000001400782a8     win32_layer.obj
 0002:000042e0       ??_C@_0BG@FHDMAEMF@Result?4GetMonitorName@ 00000001400782e0     win32_layer.obj
 0002:000042f8       ??_C@_1CM@JKFCININ@?$AAR?$AAe?$AAs?$AAu?$AAl?$AAt?$AA?4?$AAG?$AAe?$AAt?$AAM?$AAo?$AAn?$AAi?$AAt@ 00000001400782f8     win32_layer.obj
 0002:00004328       ??_C@_0BI@FIMBOCAM@Result?4SetClipboardText@ 0000000140078328     win32_layer.obj
 0002:00004340       ??_C@_1DA@DALGMFOK@?$AAR?$AAe?$AAs?$AAu?$AAl?$AAt?$AA?4?$AAS?$AAe?$AAt?$AAC?$AAl?$AAi?$AAp?$AAb@ 0000000140078340     win32_layer.obj
 0002:00004370       ??_C@_0BI@DMJIFMLO@Result?4GetClipboardText@ 0000000140078370     win32_layer.obj
 0002:00004388       ??_C@_1DA@IHAJJIJB@?$AAR?$AAe?$AAs?$AAu?$AAl?$AAt?$AA?4?$AAG?$AAe?$AAt?$AAC?$AAl?$AAi?$AAp?$AAb@ 0000000140078388     win32_layer.obj
 0002:000043b8       ??_C@_0BK@BNPOEMPL@Result?4EnableEventWaiting@ 00000001400783b8     win32_layer.obj
 0002:000043d8       ??_C@_1DE@FDFONHNE@?$AAR?$AAe?$AAs?$AAu?$AAl?$AAt?$AA?4?$AAE?$AAn?$AAa?$AAb?$AAl?$AAe?$AAE?$AAv@ 00000001400783d8     win32_layer.obj
 0002:00004410       ??_C@_0BL@GAHJKOIF@Result?4DisableEventWaiting@ 0000000140078410     win32_layer.obj
 0002:00004430       ??_C@_1DG@ILNLEOML@?$AAR?$AAe?$AAs?$AAu?$AAl?$AAt?$AA?4?$AAD?$AAi?$AAs?$AAa?$AAb?$AAl?$AAe?$AAE@ 0000000140078430     win32_layer.obj
 0002:00004468       ??_C@_0BI@EOINPEGK@Result?4SwapScreenBuffer@ 0000000140078468     win32_layer.obj
 0002:00004480       ??_C@_1DA@DDPKPOHH@?$AAR?$AAe?$AAs?$AAu?$AAl?$AAt?$AA?4?$AAS?$AAw?$AAa?$AAp?$AAS?$AAc?$AAr?$AAe@ 0000000140078480     win32_layer.obj
 0002:000044b0       ??_C@_0BH@MNLIBIKI@Result?4PollInputEvents@ 00000001400784b0     win32_layer.obj
 0002:000044c8       ??_C@_1CO@GJACJGNI@?$AAR?$AAe?$AAs?$AAu?$AAl?$AAt?$AA?4?$AAP?$AAo?$AAl?$AAl?$AAI?$AAn?$AAp?$AAu@ 00000001400784c8     win32_layer.obj
 0002:000044f8       ??_C@_0BA@HJDBBEDP@Result?4WaitTime@ 00000001400784f8     win32_layer.obj
 0002:00004508       ??_C@_1CA@BLMGLOCD@?$AAR?$AAe?$AAs?$AAu?$AAl?$AAt?$AA?4?$AAW?$AAa?$AAi?$AAt?$AAT?$AAi?$AAm?$AAe@ 0000000140078508     win32_layer.obj
 0002:00004528       ??_C@_0BC@OMHAFOII@Result?4ShowCursor@ 0000000140078528     win32_layer.obj
 0002:00004540       ??_C@_1CE@LHKDBNON@?$AAR?$AAe?$AAs?$AAu?$AAl?$AAt?$AA?4?$AAS?$AAh?$AAo?$AAw?$AAC?$AAu?$AAr?$AAs@ 0000000140078540     win32_layer.obj
 0002:00004568       ??_C@_0BC@DCKONOLC@Result?4HideCursor@ 0000000140078568     win32_layer.obj
 0002:00004580       ??_C@_1CE@GHFIIPDJ@?$AAR?$AAe?$AAs?$AAu?$AAl?$AAt?$AA?4?$AAH?$AAi?$AAd?$AAe?$AAC?$AAu?$AAr?$AAs@ 0000000140078580     win32_layer.obj
 0002:000045a8       ??_C@_0BG@HMBEIJNA@Result?4IsCursorHidden@ 00000001400785a8     win32_layer.obj
 0002:000045c0       ??_C@_1CM@DFNIMLKH@?$AAR?$AAe?$AAs?$AAu?$AAl?$AAt?$AA?4?$AAI?$AAs?$AAC?$AAu?$AAr?$AAs?$AAo?$AAr@ 00000001400785c0     win32_layer.obj
 0002:000045f0       ??_C@_0BE@JAFHKNBA@Result?4EnableCursor@ 00000001400785f0     win32_layer.obj
 0002:00004608       ??_C@_1CI@HHBPEOFK@?$AAR?$AAe?$AAs?$AAu?$AAl?$AAt?$AA?4?$AAE?$AAn?$AAa?$AAb?$AAl?$AAe?$AAC?$AAu@ 0000000140078608     win32_layer.obj
 0002:00004630       ??_C@_0BF@PBAHBCKM@Result?4DisableCursor@ 0000000140078630     win32_layer.obj
 0002:00004648       ??_C@_1CK@KPBPKHIJ@?$AAR?$AAe?$AAs?$AAu?$AAl?$AAt?$AA?4?$AAD?$AAi?$AAs?$AAa?$AAb?$AAl?$AAe?$AAC@ 0000000140078648     win32_layer.obj
 0002:00004678       ??_C@_0BI@LLJKMOEK@Result?4IsCursorOnScreen@ 0000000140078678     win32_layer.obj
 0002:00004690       ??_C@_1DA@OPJILONN@?$AAR?$AAe?$AAs?$AAu?$AAl?$AAt?$AA?4?$AAI?$AAs?$AAC?$AAu?$AAr?$AAs?$AAo?$AAr@ 0000000140078690     win32_layer.obj
 0002:000046c0       ??_C@_0BH@LLGJBKJP@Result?4ClearBackground@ 00000001400786c0     win32_layer.obj
 0002:000046d8       ??_C@_1CO@LAEDLDLL@?$AAR?$AAe?$AAs?$AAu?$AAl?$AAt?$AA?4?$AAC?$AAl?$AAe?$AAa?$AAr?$AAB?$AAa?$AAc@ 00000001400786d8     win32_layer.obj
 0002:00004708       ??_C@_0BE@MAKJCOHP@Result?4BeginDrawing@ 0000000140078708     win32_layer.obj
 0002:00004720       ??_C@_1CI@EHMBABJD@?$AAR?$AAe?$AAs?$AAu?$AAl?$AAt?$AA?4?$AAB?$AAe?$AAg?$AAi?$AAn?$AAD?$AAr?$AAa@ 0000000140078720     win32_layer.obj
 0002:00004748       ??_C@_0BC@HJFKLAMH@Result?4EndDrawing@ 0000000140078748     win32_layer.obj
 0002:00004760       ??_C@_1CE@FDIPPDGI@?$AAR?$AAe?$AAs?$AAu?$AAl?$AAt?$AA?4?$AAE?$AAn?$AAd?$AAD?$AAr?$AAa?$AAw?$AAi@ 0000000140078760     win32_layer.obj
 0002:00004788       ??_C@_0BD@NHDGGPAP@Result?4BeginMode2D@ 0000000140078788     win32_layer.obj
 0002:000047a0       ??_C@_1CG@HFNGMJMJ@?$AAR?$AAe?$AAs?$AAu?$AAl?$AAt?$AA?4?$AAB?$AAe?$AAg?$AAi?$AAn?$AAM?$AAo?$AAd@ 00000001400787a0     win32_layer.obj
 0002:000047c8       ??_C@_0BB@ECHMNOHJ@Result?4EndMode2D@ 00000001400787c8     win32_layer.obj
 0002:000047e0       ??_C@_1CC@EJAIHGK@?$AAR?$AAe?$AAs?$AAu?$AAl?$AAt?$AA?4?$AAE?$AAn?$AAd?$AAM?$AAo?$AAd?$AAe?$AA2@ 00000001400787e0     win32_layer.obj
 0002:00004808       ??_C@_0BD@NGPEAFDI@Result?4BeginMode3D@ 0000000140078808     win32_layer.obj
 0002:00004820       ??_C@_1CG@LOIKBKGM@?$AAR?$AAe?$AAs?$AAu?$AAl?$AAt?$AA?4?$AAB?$AAe?$AAg?$AAi?$AAn?$AAM?$AAo?$AAd@ 0000000140078820     win32_layer.obj
 0002:00004848       ??_C@_0BB@EDLOLEEO@Result?4EndMode3D@ 0000000140078848     win32_layer.obj
 0002:00004860       ??_C@_1CC@MPMMFEMP@?$AAR?$AAe?$AAs?$AAu?$AAl?$AAt?$AA?4?$AAE?$AAn?$AAd?$AAM?$AAo?$AAd?$AAe?$AA3@ 0000000140078860     win32_layer.obj
 0002:00004888       ??_C@_0BI@NOBNEAAF@Result?4BeginTextureMode@ 0000000140078888     win32_layer.obj
 0002:000048a0       ??_C@_1DA@GKMNMLJD@?$AAR?$AAe?$AAs?$AAu?$AAl?$AAt?$AA?4?$AAB?$AAe?$AAg?$AAi?$AAn?$AAT?$AAe?$AAx@ 00000001400788a0     win32_layer.obj
 0002:000048d0       ??_C@_0BG@HMHKAKNM@Result?4EndTextureMode@ 00000001400788d0     win32_layer.obj
 0002:000048e8       ??_C@_1CM@JLBPLCCB@?$AAR?$AAe?$AAs?$AAu?$AAl?$AAt?$AA?4?$AAE?$AAn?$AAd?$AAT?$AAe?$AAx?$AAt?$AAu@ 00000001400788e8     win32_layer.obj
 0002:00004918       ??_C@_0BH@LCABEPBG@Result?4BeginShaderMode@ 0000000140078918     win32_layer.obj
 0002:00004930       ??_C@_1CO@EEGKPACO@?$AAR?$AAe?$AAs?$AAu?$AAl?$AAt?$AA?4?$AAB?$AAe?$AAg?$AAi?$AAn?$AAS?$AAh?$AAa@ 0000000140078930     win32_layer.obj
 0002:00004960       ??_C@_0BF@LCDKOEDF@Result?4EndShaderMode@ 0000000140078960     win32_layer.obj
 0002:00004978       ??_C@_1CK@GJCPDOGL@?$AAR?$AAe?$AAs?$AAu?$AAl?$AAt?$AA?4?$AAE?$AAn?$AAd?$AAS?$AAh?$AAa?$AAd?$AAe@ 0000000140078978     win32_layer.obj
 0002:000049a8       ??_C@_0BG@MDHOAEOH@Result?4BeginBlendMode@ 00000001400789a8     win32_layer.obj
 0002:000049c0       ??_C@_1CM@ENKLKCFL@?$AAR?$AAe?$AAs?$AAu?$AAl?$AAt?$AA?4?$AAB?$AAe?$AAg?$AAi?$AAn?$AAB?$AAl?$AAe@ 00000001400789c0     win32_layer.obj
 0002:000049f0       ??_C@_0BE@PINFCHOH@Result?4EndBlendMode@ 00000001400789f0     win32_layer.obj
 0002:00004a08       ??_C@_1CI@NOKMCCLF@?$AAR?$AAe?$AAs?$AAu?$AAl?$AAt?$AA?4?$AAE?$AAn?$AAd?$AAB?$AAl?$AAe?$AAn?$AAd@ 0000000140078a08     win32_layer.obj
 0002:00004a30       ??_C@_0BI@DAIICCHM@Result?4BeginScissorMode@ 0000000140078a30     win32_layer.obj
 0002:00004a48       ??_C@_1DA@LHPCBNMD@?$AAR?$AAe?$AAs?$AAu?$AAl?$AAt?$AA?4?$AAB?$AAe?$AAg?$AAi?$AAn?$AAS?$AAc?$AAi@ 0000000140078a48     win32_layer.obj
 0002:00004a78       ??_C@_0BG@JCOPGIKF@Result?4EndScissorMode@ 0000000140078a78     win32_layer.obj
 0002:00004a90       ??_C@_1CM@EGCAGEHB@?$AAR?$AAe?$AAs?$AAu?$AAl?$AAt?$AA?4?$AAE?$AAn?$AAd?$AAS?$AAc?$AAi?$AAs?$AAs@ 0000000140078a90     win32_layer.obj
 0002:00004ac0       ??_C@_0BC@DGNLBCIP@Result?4LoadShader@ 0000000140078ac0     win32_layer.obj
 0002:00004ad8       ??_C@_1CE@BKDBIAFL@?$AAR?$AAe?$AAs?$AAu?$AAl?$AAt?$AA?4?$AAL?$AAo?$AAa?$AAd?$AAS?$AAh?$AAa?$AAd@ 0000000140078ad8     win32_layer.obj
 0002:00004b00       ??_C@_0BM@NHADBPDH@Result?4LoadShaderFromMemory@ 0000000140078b00     win32_layer.obj
 0002:00004b20       ??_C@_1DI@GDCGEJFK@?$AAR?$AAe?$AAs?$AAu?$AAl?$AAt?$AA?4?$AAL?$AAo?$AAa?$AAd?$AAS?$AAh?$AAa?$AAd@ 0000000140078b20     win32_layer.obj
 0002:00004b58       ??_C@_0BJ@IEGFGBFI@Result?4GetShaderLocation@ 0000000140078b58     win32_layer.obj
 0002:00004b78       ??_C@_1DC@PCONPJIH@?$AAR?$AAe?$AAs?$AAu?$AAl?$AAt?$AA?4?$AAG?$AAe?$AAt?$AAS?$AAh?$AAa?$AAd?$AAe@ 0000000140078b78     win32_layer.obj
 0002:00004bb0       ??_C@_0BP@BCNIGIC@Result?4GetShaderLocationAttrib@ 0000000140078bb0     win32_layer.obj
 0002:00004bd0       ??_C@_1DO@MIDEMMEC@?$AAR?$AAe?$AAs?$AAu?$AAl?$AAt?$AA?4?$AAG?$AAe?$AAt?$AAS?$AAh?$AAa?$AAd?$AAe@ 0000000140078bd0     win32_layer.obj
 0002:00004c10       ??_C@_0BG@NMJPHAAJ@Result?4SetShaderValue@ 0000000140078c10     win32_layer.obj
 0002:00004c28       ??_C@_1CM@KEGNGDDD@?$AAR?$AAe?$AAs?$AAu?$AAl?$AAt?$AA?4?$AAS?$AAe?$AAt?$AAS?$AAh?$AAa?$AAd?$AAe@ 0000000140078c28     win32_layer.obj
 0002:00004c58       ??_C@_0BH@JFOBNNAG@Result?4SetShaderValueV@ 0000000140078c58     win32_layer.obj
 0002:00004c70       ??_C@_1CO@MOLGKBMB@?$AAR?$AAe?$AAs?$AAu?$AAl?$AAt?$AA?4?$AAS?$AAe?$AAt?$AAS?$AAh?$AAa?$AAd?$AAe@ 0000000140078c70     win32_layer.obj
 0002:00004ca0       ??_C@_0BM@DEJNGJKO@Result?4SetShaderValueMatrix@ 0000000140078ca0     win32_layer.obj
 0002:00004cc0       ??_C@_1DI@OCMDIKMO@?$AAR?$AAe?$AAs?$AAu?$AAl?$AAt?$AA?4?$AAS?$AAe?$AAt?$AAS?$AAh?$AAa?$AAd?$AAe@ 0000000140078cc0     win32_layer.obj
 0002:00004cf8       ??_C@_0BN@FBLBNKFN@Result?4SetShaderValueTexture@ 0000000140078cf8     win32_layer.obj
 0002:00004d18       ??_C@_1DK@PEIHPAJD@?$AAR?$AAe?$AAs?$AAu?$AAl?$AAt?$AA?4?$AAS?$AAe?$AAt?$AAS?$AAh?$AAa?$AAd?$AAe@ 0000000140078d18     win32_layer.obj
 0002:00004d58       ??_C@_0BE@BIFAKAJN@Result?4UnloadShader@ 0000000140078d58     win32_layer.obj
 0002:00004d70       ??_C@_1CI@CLGMGNPE@?$AAR?$AAe?$AAs?$AAu?$AAl?$AAt?$AA?4?$AAU?$AAn?$AAl?$AAo?$AAa?$AAd?$AAS?$AAh@ 0000000140078d70     win32_layer.obj
 0002:00004d98       ??_C@_0BD@CLKNOJOP@Result?4GetMouseRay@ 0000000140078d98     win32_layer.obj
 0002:00004db0       ??_C@_1CG@FDBALLHJ@?$AAR?$AAe?$AAs?$AAu?$AAl?$AAt?$AA?4?$AAG?$AAe?$AAt?$AAM?$AAo?$AAu?$AAs?$AAe@ 0000000140078db0     win32_layer.obj
 0002:00004dd8       ??_C@_0BH@PLJHAPFL@Result?4GetCameraMatrix@ 0000000140078dd8     win32_layer.obj
 0002:00004df0       ??_C@_1CO@PLOBFCEH@?$AAR?$AAe?$AAs?$AAu?$AAl?$AAt?$AA?4?$AAG?$AAe?$AAt?$AAC?$AAa?$AAm?$AAe?$AAr@ 0000000140078df0     win32_layer.obj
 0002:00004e20       ??_C@_0BJ@HKAKNJGG@Result?4GetCameraMatrix2D@ 0000000140078e20     win32_layer.obj
 0002:00004e40       ??_C@_1DC@FJDFBKKP@?$AAR?$AAe?$AAs?$AAu?$AAl?$AAt?$AA?4?$AAG?$AAe?$AAt?$AAC?$AAa?$AAm?$AAe?$AAr@ 0000000140078e40     win32_layer.obj
 0002:00004e78       ??_C@_0BI@NEHLCEP@Result?4GetWorldToScreen@ 0000000140078e78     win32_layer.obj
 0002:00004e90       ??_C@_1DA@BNHEBMBH@?$AAR?$AAe?$AAs?$AAu?$AAl?$AAt?$AA?4?$AAG?$AAe?$AAt?$AAW?$AAo?$AAr?$AAl?$AAd@ 0000000140078e90     win32_layer.obj
 0002:00004ec0       ??_C@_0BK@IFKDNNBI@Result?4GetScreenToWorld2D@ 0000000140078ec0     win32_layer.obj
 0002:00004ee0       ??_C@_1DE@NGBGFGIG@?$AAR?$AAe?$AAs?$AAu?$AAl?$AAt?$AA?4?$AAG?$AAe?$AAt?$AAS?$AAc?$AAr?$AAe?$AAe@ 0000000140078ee0     win32_layer.obj
 0002:00004f18       ??_C@_0BK@MDDJDAPI@Result?4GetWorldToScreenEx@ 0000000140078f18     win32_layer.obj
 0002:00004f38       ??_C@_1DE@BLJPGLF@?$AAR?$AAe?$AAs?$AAu?$AAl?$AAt?$AA?4?$AAG?$AAe?$AAt?$AAW?$AAo?$AAr?$AAl?$AAd@ 0000000140078f38     win32_layer.obj
 0002:00004f70       ??_C@_0BK@OBHEDHNC@Result?4GetWorldToScreen2D@ 0000000140078f70     win32_layer.obj
 0002:00004f90       ??_C@_1DE@KNGDIMNF@?$AAR?$AAe?$AAs?$AAu?$AAl?$AAt?$AA?4?$AAG?$AAe?$AAt?$AAW?$AAo?$AAr?$AAl?$AAd@ 0000000140078f90     win32_layer.obj
 0002:00004fc8       ??_C@_0BE@BLGDGAOD@Result?4SetTargetFPS@ 0000000140078fc8     win32_layer.obj
 0002:00004fe0       ??_C@_1CI@OJNDMFDN@?$AAR?$AAe?$AAs?$AAu?$AAl?$AAt?$AA?4?$AAS?$AAe?$AAt?$AAT?$AAa?$AAr?$AAg?$AAe@ 0000000140078fe0     win32_layer.obj
 0002:00005008       ??_C@_0O@DLKGPPGE@Result?4GetFPS@ 0000000140079008     win32_layer.obj
 0002:00005018       ??_C@_1BM@ILDONOEM@?$AAR?$AAe?$AAs?$AAu?$AAl?$AAt?$AA?4?$AAG?$AAe?$AAt?$AAF?$AAP?$AAS@ 0000000140079018     win32_layer.obj
 0002:00005038       ??_C@_0BE@BDLAJNJC@Result?4GetFrameTime@ 0000000140079038     win32_layer.obj
 0002:00005050       ??_C@_1CI@JIEPMEJL@?$AAR?$AAe?$AAs?$AAu?$AAl?$AAt?$AA?4?$AAG?$AAe?$AAt?$AAF?$AAr?$AAa?$AAm?$AAe@ 0000000140079050     win32_layer.obj
 0002:00005078       ??_C@_0P@OLJICHAP@Result?4GetTime@ 0000000140079078     win32_layer.obj
 0002:00005088       ??_C@_1BO@LGPGAMIL@?$AAR?$AAe?$AAs?$AAu?$AAl?$AAt?$AA?4?$AAG?$AAe?$AAt?$AAT?$AAi?$AAm?$AAe@ 0000000140079088     win32_layer.obj
 0002:000050a8       ??_C@_0BG@DDEFDKN@Result?4GetRandomValue@ 00000001400790a8     win32_layer.obj
 0002:000050c0       ??_C@_1CM@LCEGLGGB@?$AAR?$AAe?$AAs?$AAu?$AAl?$AAt?$AA?4?$AAG?$AAe?$AAt?$AAR?$AAa?$AAn?$AAd?$AAo@ 00000001400790c0     win32_layer.obj
 0002:000050f0       ??_C@_0BF@NLPNIHJK@Result?4SetRandomSeed@ 00000001400790f0     win32_layer.obj
 0002:00005108       ??_C@_1CK@MBMOMCJF@?$AAR?$AAe?$AAs?$AAu?$AAl?$AAt?$AA?4?$AAS?$AAe?$AAt?$AAR?$AAa?$AAn?$AAd?$AAo@ 0000000140079108     win32_layer.obj
 0002:00005138       ??_C@_0BG@HLEPEGBO@Result?4TakeScreenshot@ 0000000140079138     win32_layer.obj
 0002:00005150       ??_C@_1CM@LGEBLNCH@?$AAR?$AAe?$AAs?$AAu?$AAl?$AAt?$AA?4?$AAT?$AAa?$AAk?$AAe?$AAS?$AAc?$AAr?$AAe@ 0000000140079150     win32_layer.obj
 0002:00005180       ??_C@_0BG@EOBOIBGF@Result?4SetConfigFlags@ 0000000140079180     win32_layer.obj
 0002:00005198       ??_C@_1CM@NLCIGAGL@?$AAR?$AAe?$AAs?$AAu?$AAl?$AAt?$AA?4?$AAS?$AAe?$AAt?$AAC?$AAo?$AAn?$AAf?$AAi@ 0000000140079198     win32_layer.obj
 0002:000051c8       ??_C@_0BI@POHMEINM@Result?4SetTraceLogLevel@ 00000001400791c8     win32_layer.obj
 0002:000051e0       ??_C@_1DA@HIANOMDF@?$AAR?$AAe?$AAs?$AAu?$AAl?$AAt?$AA?4?$AAS?$AAe?$AAt?$AAT?$AAr?$AAa?$AAc?$AAe@ 00000001400791e0     win32_layer.obj
 0002:00005210       ??_C@_0BA@JHDMBALK@Result?4MemAlloc@ 0000000140079210     win32_layer.obj
 0002:00005220       ??_C@_1CA@DNJAJHED@?$AAR?$AAe?$AAs?$AAu?$AAl?$AAt?$AA?4?$AAM?$AAe?$AAm?$AAA?$AAl?$AAl?$AAo?$AAc@ 0000000140079220     win32_layer.obj
 0002:00005240       ??_C@_0BC@MKDHHPFA@Result?4MemRealloc@ 0000000140079240     win32_layer.obj
 0002:00005258       ??_C@_1CE@EFOEKHKC@?$AAR?$AAe?$AAs?$AAu?$AAl?$AAt?$AA?4?$AAM?$AAe?$AAm?$AAR?$AAe?$AAa?$AAl?$AAl@ 0000000140079258     win32_layer.obj
 0002:00005280       ??_C@_0P@MNKKCNFA@Result?4MemFree@ 0000000140079280     win32_layer.obj
 0002:00005290       ??_C@_1BO@DNCNJPAP@?$AAR?$AAe?$AAs?$AAu?$AAl?$AAt?$AA?4?$AAM?$AAe?$AAm?$AAF?$AAr?$AAe?$AAe@ 0000000140079290     win32_layer.obj
 0002:000052b0       ??_C@_0P@PPAMIEJF@Result?4OpenURL@ 00000001400792b0     win32_layer.obj
 0002:000052c0       ??_C@_1BO@DFOMGBFJ@?$AAR?$AAe?$AAs?$AAu?$AAl?$AAt?$AA?4?$AAO?$AAp?$AAe?$AAn?$AAU?$AAR?$AAL@ 00000001400792c0     win32_layer.obj
 0002:000052e0       ??_C@_0BL@KKOAIOMB@Result?4SetTraceLogCallback@ 00000001400792e0     win32_layer.obj
 0002:00005300       ??_C@_1DG@HKLGPEBM@?$AAR?$AAe?$AAs?$AAu?$AAl?$AAt?$AA?4?$AAS?$AAe?$AAt?$AAT?$AAr?$AAa?$AAc?$AAe@ 0000000140079300     win32_layer.obj
 0002:00005338       ??_C@_0BE@FOMHBCHN@Result?4LoadFileData@ 0000000140079338     win32_layer.obj
 0002:00005350       ??_C@_1CI@MPOKHMCG@?$AAR?$AAe?$AAs?$AAu?$AAl?$AAt?$AA?4?$AAL?$AAo?$AAa?$AAd?$AAF?$AAi?$AAl?$AAe@ 0000000140079350     win32_layer.obj
 0002:00005378       ??_C@_0BG@DFMJOIF@Result?4UnloadFileData@ 0000000140079378     win32_layer.obj
 0002:00005390       ??_C@_1CM@CFBDBFKF@?$AAR?$AAe?$AAs?$AAu?$AAl?$AAt?$AA?4?$AAU?$AAn?$AAl?$AAo?$AAa?$AAd?$AAF?$AAi@ 0000000140079390     win32_layer.obj
 0002:000053c0       ??_C@_0BE@EMIOAIPK@Result?4SaveFileData@ 00000001400793c0     win32_layer.obj
 0002:000053d8       ??_C@_1CI@CDCLFAGN@?$AAR?$AAe?$AAs?$AAu?$AAl?$AAt?$AA?4?$AAS?$AAa?$AAv?$AAe?$AAF?$AAi?$AAl?$AAe@ 00000001400793d8     win32_layer.obj
 0002:00005400       ??_C@_0BI@JHKDHKHP@Result?4ExportDataAsCode@ 0000000140079400     win32_layer.obj
 0002:00005418       ??_C@_1DA@JPJEGHDD@?$AAR?$AAe?$AAs?$AAu?$AAl?$AAt?$AA?4?$AAE?$AAx?$AAp?$AAo?$AAr?$AAt?$AAD?$AAa@ 0000000140079418     win32_layer.obj
 0002:00005448       ??_C@_0BE@IPOKANNI@Result?4LoadFileText@ 0000000140079448     win32_layer.obj
 0002:00005460       ??_C@_1CI@HMALJEOC@?$AAR?$AAe?$AAs?$AAu?$AAl?$AAt?$AA?4?$AAL?$AAo?$AAa?$AAd?$AAF?$AAi?$AAl?$AAe@ 0000000140079460     win32_layer.obj
 0002:00005488       ??_C@_0BG@NCHBIBCA@Result?4UnloadFileText@ 0000000140079488     win32_layer.obj
 0002:000054a0       ??_C@_1CM@JGPCPNGB@?$AAR?$AAe?$AAs?$AAu?$AAl?$AAt?$AA?4?$AAU?$AAn?$AAl?$AAo?$AAa?$AAd?$AAF?$AAi@ 00000001400794a0     win32_layer.obj
 0002:000054d0       ??_C@_0BE@JNKDBHFP@Result?4SaveFileText@ 00000001400794d0     win32_layer.obj
 0002:000054e8       ??_C@_1CI@JAMKLIKJ@?$AAR?$AAe?$AAs?$AAu?$AAl?$AAt?$AA?4?$AAS?$AAa?$AAv?$AAe?$AAF?$AAi?$AAl?$AAe@ 00000001400794e8     win32_layer.obj
 0002:00005510       ??_C@_0BC@BKBGKKAL@Result?4FileExists@ 0000000140079510     win32_layer.obj
 0002:00005528       ??_C@_1CE@NDDFPIMP@?$AAR?$AAe?$AAs?$AAu?$AAl?$AAt?$AA?4?$AAF?$AAi?$AAl?$AAe?$AAE?$AAx?$AAi?$AAs@ 0000000140079528     win32_layer.obj
 0002:00005550       ??_C@_0BH@DNPPNDNP@Result?4DirectoryExists@ 0000000140079550     win32_layer.obj
 0002:00005568       ??_C@_1CO@IGGBDLCP@?$AAR?$AAe?$AAs?$AAu?$AAl?$AAt?$AA?4?$AAD?$AAi?$AAr?$AAe?$AAc?$AAt?$AAo?$AAr@ 0000000140079568     win32_layer.obj
 0002:00005598       ??_C@_0BH@JEHJEJOI@Result?4IsFileExtension@ 0000000140079598     win32_layer.obj
 0002:000055b0       ??_C@_1CO@LCMMOKDJ@?$AAR?$AAe?$AAs?$AAu?$AAl?$AAt?$AA?4?$AAI?$AAs?$AAF?$AAi?$AAl?$AAe?$AAE?$AAx@ 00000001400795b0     win32_layer.obj
 0002:000055e0       ??_C@_0BF@BLKIHIND@Result?4GetFileLength@ 00000001400795e0     win32_layer.obj
 0002:000055f8       ??_C@_1CK@PFAKFJFO@?$AAR?$AAe?$AAs?$AAu?$AAl?$AAt?$AA?4?$AAG?$AAe?$AAt?$AAF?$AAi?$AAl?$AAe?$AAL@ 00000001400795f8     win32_layer.obj
 0002:00005628       ??_C@_0BI@CAPMBEKD@Result?4GetFileExtension@ 0000000140079628     win32_layer.obj
 0002:00005640       ??_C@_1DA@NNOFFCNH@?$AAR?$AAe?$AAs?$AAu?$AAl?$AAt?$AA?4?$AAG?$AAe?$AAt?$AAF?$AAi?$AAl?$AAe?$AAE@ 0000000140079640     win32_layer.obj
 0002:00005670       ??_C@_0BD@PDLMKLEN@Result?4GetFileName@ 0000000140079670     win32_layer.obj
 0002:00005688       ??_C@_1CG@HGFKOCG@?$AAR?$AAe?$AAs?$AAu?$AAl?$AAt?$AA?4?$AAG?$AAe?$AAt?$AAF?$AAi?$AAl?$AAe?$AAN@ 0000000140079688     win32_layer.obj
 0002:000056b0       ??_C@_0BN@JMHEHGCD@Result?4GetFileNameWithoutExt@ 00000001400796b0     win32_layer.obj
 0002:000056d0       ??_C@_1DK@DHINCHGO@?$AAR?$AAe?$AAs?$AAu?$AAl?$AAt?$AA?4?$AAG?$AAe?$AAt?$AAF?$AAi?$AAl?$AAe?$AAN@ 00000001400796d0     win32_layer.obj
 0002:00005710       ??_C@_0BI@BIELEFFN@Result?4GetDirectoryPath@ 0000000140079710     win32_layer.obj
 0002:00005728       ??_C@_1DA@LNAFIEPE@?$AAR?$AAe?$AAs?$AAu?$AAl?$AAt?$AA?4?$AAG?$AAe?$AAt?$AAD?$AAi?$AAr?$AAe?$AAc@ 0000000140079728     win32_layer.obj
 0002:00005758       ??_C@_0BM@NMCKMALI@Result?4GetPrevDirectoryPath@ 0000000140079758     win32_layer.obj
 0002:00005778       ??_C@_1DI@KMLKKHJD@?$AAR?$AAe?$AAs?$AAu?$AAl?$AAt?$AA?4?$AAG?$AAe?$AAt?$AAP?$AAr?$AAe?$AAv?$AAD@ 0000000140079778     win32_layer.obj
 0002:000057b0       ??_C@_0BL@EFCJMCIC@Result?4GetWorkingDirectory@ 00000001400797b0     win32_layer.obj
 0002:000057d0       ??_C@_1DG@HBKBHLCL@?$AAR?$AAe?$AAs?$AAu?$AAl?$AAt?$AA?4?$AAG?$AAe?$AAt?$AAW?$AAo?$AAr?$AAk?$AAi@ 00000001400797d0     win32_layer.obj
 0002:00005808       ??_C@_0BP@MDHKKKIL@Result?4GetApplicationDirectory@ 0000000140079808     win32_layer.obj
 0002:00005828       ??_C@_1DO@FPBIFPEM@?$AAR?$AAe?$AAs?$AAu?$AAl?$AAt?$AA?4?$AAG?$AAe?$AAt?$AAA?$AAp?$AAp?$AAl?$AAi@ 0000000140079828     win32_layer.obj
 0002:00005868       ??_C@_0BH@PGKKKKBH@Result?4ChangeDirectory@ 0000000140079868     win32_layer.obj
 0002:00005880       ??_C@_1CO@DKNNLPAI@?$AAR?$AAe?$AAs?$AAu?$AAl?$AAt?$AA?4?$AAC?$AAh?$AAa?$AAn?$AAg?$AAe?$AAD?$AAi@ 0000000140079880     win32_layer.obj
 0002:000058b0       ??_C@_0BC@IKHHJGJM@Result?4IsPathFile@ 00000001400798b0     win32_layer.obj
 0002:000058c8       ??_C@_1CE@PAEKIPAE@?$AAR?$AAe?$AAs?$AAu?$AAl?$AAt?$AA?4?$AAI?$AAs?$AAP?$AAa?$AAt?$AAh?$AAF?$AAi@ 00000001400798c8     win32_layer.obj
 0002:000058f0       ??_C@_0BK@HLOPCMGP@Result?4LoadDirectoryFiles@ 00000001400798f0     win32_layer.obj
 0002:00005910       ??_C@_1DE@NGBNKFAL@?$AAR?$AAe?$AAs?$AAu?$AAl?$AAt?$AA?4?$AAL?$AAo?$AAa?$AAd?$AAD?$AAi?$AAr?$AAe@ 0000000140079910     win32_layer.obj
 0002:00005948       ??_C@_0BM@EBAKNMLB@Result?4LoadDirectoryFilesEx@ 0000000140079948     win32_layer.obj
 0002:00005968       ??_C@_1DI@GJHABANL@?$AAR?$AAe?$AAs?$AAu?$AAl?$AAt?$AA?4?$AAL?$AAo?$AAa?$AAd?$AAD?$AAi?$AAr?$AAe@ 0000000140079968     win32_layer.obj
 0002:000059a0       ??_C@_0BM@PIBNDBMO@Result?4UnloadDirectoryFiles@ 00000001400799a0     win32_layer.obj
 0002:000059c0       ??_C@_1DI@KJJMBMIA@?$AAR?$AAe?$AAs?$AAu?$AAl?$AAt?$AA?4?$AAU?$AAn?$AAl?$AAo?$AAa?$AAd?$AAD?$AAi@ 00000001400799c0     win32_layer.obj
 0002:000059f8       ??_C@_0BF@KMHJKFOO@Result?4IsFileDropped@ 00000001400799f8     win32_layer.obj
 0002:00005a10       ??_C@_1CK@EJPHMCFO@?$AAR?$AAe?$AAs?$AAu?$AAl?$AAt?$AA?4?$AAI?$AAs?$AAF?$AAi?$AAl?$AAe?$AAD?$AAr@ 0000000140079a10     win32_layer.obj
 0002:00005a40       ??_C@_0BI@OOBAKKCM@Result?4LoadDroppedFiles@ 0000000140079a40     win32_layer.obj
 0002:00005a58       ??_C@_1DA@PHCPJLLJ@?$AAR?$AAe?$AAs?$AAu?$AAl?$AAt?$AA?4?$AAL?$AAo?$AAa?$AAd?$AAD?$AAr?$AAo?$AAp@ 0000000140079a58     win32_layer.obj
 0002:00005a88       ??_C@_0BK@MCICAIBI@Result?4UnloadDroppedFiles@ 0000000140079a88     win32_layer.obj
 0002:00005aa8       ??_C@_1DE@GEEMIHBJ@?$AAR?$AAe?$AAs?$AAu?$AAl?$AAt?$AA?4?$AAU?$AAn?$AAl?$AAo?$AAa?$AAd?$AAD?$AAr@ 0000000140079aa8     win32_layer.obj
 0002:00005ae0       ??_C@_0BG@IMDDEHLN@Result?4GetFileModTime@ 0000000140079ae0     win32_layer.obj
 0002:00005af8       ??_C@_1CM@JIKIEEKI@?$AAR?$AAe?$AAs?$AAu?$AAl?$AAt?$AA?4?$AAG?$AAe?$AAt?$AAF?$AAi?$AAl?$AAe?$AAM@ 0000000140079af8     win32_layer.obj
 0002:00005b28       ??_C@_0BE@DNIDPNCN@Result?4CompressData@ 0000000140079b28     win32_layer.obj
 0002:00005b40       ??_C@_1CI@FKFPPKA@?$AAR?$AAe?$AAs?$AAu?$AAl?$AAt?$AA?4?$AAC?$AAo?$AAm?$AAp?$AAr?$AAe?$AAs?$AAs@ 0000000140079b40     win32_layer.obj
 0002:00005b68       ??_C@_0BG@NCLJAOJP@Result?4DecompressData@ 0000000140079b68     win32_layer.obj
 0002:00005b80       ??_C@_1CM@KMKBKGOG@?$AAR?$AAe?$AAs?$AAu?$AAl?$AAt?$AA?4?$AAD?$AAe?$AAc?$AAo?$AAm?$AAp?$AAr?$AAe@ 0000000140079b80     win32_layer.obj
 0002:00005bb0       ??_C@_0BI@IJKHHHID@Result?4EncodeDataBase64@ 0000000140079bb0     win32_layer.obj
 0002:00005bc8       ??_C@_1DA@MDILJCFP@?$AAR?$AAe?$AAs?$AAu?$AAl?$AAt?$AA?4?$AAE?$AAn?$AAc?$AAo?$AAd?$AAe?$AAD?$AAa@ 0000000140079bc8     win32_layer.obj
 0002:00005bf8       ??_C@_0BI@FENKJHHN@Result?4DecodeDataBase64@ 0000000140079bf8     win32_layer.obj
 0002:00005c10       ??_C@_1DA@MNACPPIC@?$AAR?$AAe?$AAs?$AAu?$AAl?$AAt?$AA?4?$AAD?$AAe?$AAc?$AAo?$AAd?$AAe?$AAD?$AAa@ 0000000140079c10     win32_layer.obj
 0002:00005c40       ??_C@_0BE@BEGCNLDI@Result?4IsKeyPressed@ 0000000140079c40     win32_layer.obj
 0002:00005c58       ??_C@_1CI@PDNNDLDM@?$AAR?$AAe?$AAs?$AAu?$AAl?$AAt?$AA?4?$AAI?$AAs?$AAK?$AAe?$AAy?$AAP?$AAr?$AAe@ 0000000140079c58     win32_layer.obj
 0002:00005c80       ??_C@_0BB@LLACDBDF@Result?4IsKeyDown@ 0000000140079c80     win32_layer.obj
 0002:00005c98       ??_C@_1CC@MAOENAFK@?$AAR?$AAe?$AAs?$AAu?$AAl?$AAt?$AA?4?$AAI?$AAs?$AAK?$AAe?$AAy?$AAD?$AAo?$AAw@ 0000000140079c98     win32_layer.obj
 0002:00005cc0       ??_C@_0BF@FPIIGGJB@Result?4IsKeyReleased@ 0000000140079cc0     win32_layer.obj
 0002:00005cd8       ??_C@_1CK@HHBGKDLK@?$AAR?$AAe?$AAs?$AAu?$AAl?$AAt?$AA?4?$AAI?$AAs?$AAK?$AAe?$AAy?$AAR?$AAe?$AAl@ 0000000140079cd8     win32_layer.obj
 0002:00005d08       ??_C@_0P@NOKFLNCE@Result?4IsKeyUp@ 0000000140079d08     win32_layer.obj
 0002:00005d18       ??_C@_1BO@BKNNNOMP@?$AAR?$AAe?$AAs?$AAu?$AAl?$AAt?$AA?4?$AAI?$AAs?$AAK?$AAe?$AAy?$AAU?$AAp@ 0000000140079d18     win32_layer.obj
 0002:00005d38       ??_C@_0BC@HKDPBHCP@Result?4SetExitKey@ 0000000140079d38     win32_layer.obj
 0002:00005d50       ??_C@_1CE@GEGOBHHK@?$AAR?$AAe?$AAs?$AAu?$AAl?$AAt?$AA?4?$AAS?$AAe?$AAt?$AAE?$AAx?$AAi?$AAt?$AAK@ 0000000140079d50     win32_layer.obj
 0002:00005d78       ??_C@_0BF@OPHMEEMC@Result?4GetKeyPressed@ 0000000140079d78     win32_layer.obj
 0002:00005d90       ??_C@_1CK@FNFOFKEE@?$AAR?$AAe?$AAs?$AAu?$AAl?$AAt?$AA?4?$AAG?$AAe?$AAt?$AAK?$AAe?$AAy?$AAP?$AAr@ 0000000140079d90     win32_layer.obj
 0002:00005dc0       ??_C@_0BG@JJOHGFCC@Result?4GetCharPressed@ 0000000140079dc0     win32_layer.obj
 0002:00005dd8       ??_C@_1CM@KPOKCHBM@?$AAR?$AAe?$AAs?$AAu?$AAl?$AAt?$AA?4?$AAG?$AAe?$AAt?$AAC?$AAh?$AAa?$AAr?$AAP@ 0000000140079dd8     win32_layer.obj
 0002:00005e08       ??_C@_0BK@GEFAHMOC@Result?4IsGamepadAvailable@ 0000000140079e08     win32_layer.obj
 0002:00005e28       ??_C@_1DE@EGONHHME@?$AAR?$AAe?$AAs?$AAu?$AAl?$AAt?$AA?4?$AAI?$AAs?$AAG?$AAa?$AAm?$AAe?$AAp?$AAa@ 0000000140079e28     win32_layer.obj
 0002:00005e60       ??_C@_0BG@ODIEBLJE@Result?4GetGamepadName@ 0000000140079e60     win32_layer.obj
 0002:00005e78       ??_C@_1CM@BFAJGEGH@?$AAR?$AAe?$AAs?$AAu?$AAl?$AAt?$AA?4?$AAG?$AAe?$AAt?$AAG?$AAa?$AAm?$AAe?$AAp@ 0000000140079e78     win32_layer.obj
 0002:00005ea8       ??_C@_0BO@KNHJEPOD@Result?4IsGamepadButtonPressed@ 0000000140079ea8     win32_layer.obj
 0002:00005ec8       ??_C@_1DM@MHCNEBFN@?$AAR?$AAe?$AAs?$AAu?$AAl?$AAt?$AA?4?$AAI?$AAs?$AAG?$AAa?$AAm?$AAe?$AAp?$AAa@ 0000000140079ec8     win32_layer.obj
 0002:00005f08       ??_C@_0BL@EFAKMBNL@Result?4IsGamepadButtonDown@ 0000000140079f08     win32_layer.obj
 0002:00005f28       ??_C@_1DG@IFMMPMPE@?$AAR?$AAe?$AAs?$AAu?$AAl?$AAt?$AA?4?$AAI?$AAs?$AAG?$AAa?$AAm?$AAe?$AAp?$AAa@ 0000000140079f28     win32_layer.obj
 0002:00005f60       ??_C@_0BP@EODAHGFJ@Result?4IsGamepadButtonReleased@ 0000000140079f60     win32_layer.obj
 0002:00005f80       ??_C@_1DO@LLCAFFIO@?$AAR?$AAe?$AAs?$AAu?$AAl?$AAt?$AA?4?$AAI?$AAs?$AAG?$AAa?$AAm?$AAe?$AAp?$AAa@ 0000000140079f80     win32_layer.obj
 0002:00005fc0       ??_C@_0BJ@ODDAOKAK@Result?4IsGamepadButtonUp@ 0000000140079fc0     win32_layer.obj
 0002:00005fe0       ??_C@_1DC@ONDJEPOP@?$AAR?$AAe?$AAs?$AAu?$AAl?$AAt?$AA?4?$AAI?$AAs?$AAG?$AAa?$AAm?$AAe?$AAp?$AAa@ 0000000140079fe0     win32_layer.obj
 0002:00006018       ??_C@_0BP@LAHDJDGG@Result?4GetGamepadButtonPressed@ 000000014007a018     win32_layer.obj
 0002:00006038       ??_C@_1DO@LILMOMNE@?$AAR?$AAe?$AAs?$AAu?$AAl?$AAt?$AA?4?$AAG?$AAe?$AAt?$AAG?$AAa?$AAm?$AAe?$AAp@ 000000014007a038     win32_layer.obj
 0002:00006078       ??_C@_0BL@IGIINILM@Result?4GetGamepadAxisCount@ 000000014007a078     win32_layer.obj
 0002:00006098       ??_C@_1DG@KNGBJEIC@?$AAR?$AAe?$AAs?$AAu?$AAl?$AAt?$AA?4?$AAG?$AAe?$AAt?$AAG?$AAa?$AAm?$AAe?$AAp@ 000000014007a098     win32_layer.obj
 0002:000060d0       ??_C@_0BO@JNDJNKCB@Result?4GetGamepadAxisMovement@ 000000014007a0d0     win32_layer.obj
 0002:000060f0       ??_C@_1DM@KEAJKEBG@?$AAR?$AAe?$AAs?$AAu?$AAl?$AAt?$AA?4?$AAG?$AAe?$AAt?$AAG?$AAa?$AAm?$AAe?$AAp@ 000000014007a0f0     win32_layer.obj
 0002:00006130       ??_C@_0BK@NEFJNCHI@Result?4SetGamepadMappings@ 000000014007a130     win32_layer.obj
 0002:00006150       ??_C@_1DE@OPEHCAFC@?$AAR?$AAe?$AAs?$AAu?$AAl?$AAt?$AA?4?$AAS?$AAe?$AAt?$AAG?$AAa?$AAm?$AAe?$AAp@ 000000014007a150     win32_layer.obj
 0002:00006188       ??_C@_0BM@FFBFLJNL@Result?4IsMouseButtonPressed@ 000000014007a188     win32_layer.obj
 0002:000061a8       ??_C@_1DI@FPBIECFM@?$AAR?$AAe?$AAs?$AAu?$AAl?$AAt?$AA?4?$AAI?$AAs?$AAM?$AAo?$AAu?$AAs?$AAe?$AAB@ 000000014007a1a8     win32_layer.obj
 0002:000061e0       ??_C@_0BJ@EPGAAOMM@Result?4IsMouseButtonDown@ 000000014007a1e0     win32_layer.obj
 0002:00006200       ??_C@_1DC@DKEPABMD@?$AAR?$AAe?$AAs?$AAu?$AAl?$AAt?$AA?4?$AAI?$AAs?$AAM?$AAo?$AAu?$AAs?$AAe?$AAB@ 000000014007a200     win32_layer.obj
 0002:00006238       ??_C@_0BN@GGMKKCDB@Result?4IsMouseButtonReleased@ 000000014007a238     win32_layer.obj
 0002:00006258       ??_C@_1DK@DLDCKNEA@?$AAR?$AAe?$AAs?$AAu?$AAl?$AAt?$AA?4?$AAI?$AAs?$AAM?$AAo?$AAu?$AAs?$AAe?$AAB@ 000000014007a258     win32_layer.obj
 0002:00006298       ??_C@_0BH@DCCAJGBL@Result?4IsMouseButtonUp@ 000000014007a298     win32_layer.obj
 0002:000062b0       ??_C@_1CO@JPDALKIA@?$AAR?$AAe?$AAs?$AAu?$AAl?$AAt?$AA?4?$AAI?$AAs?$AAM?$AAo?$AAu?$AAs?$AAe?$AAB@ 000000014007a2b0     win32_layer.obj
 0002:000062e0       ??_C@_0BB@BPBBHCKL@Result?4GetMouseX@ 000000014007a2e0     win32_layer.obj
 0002:000062f8       ??_C@_1CC@KMFCLOAE@?$AAR?$AAe?$AAs?$AAu?$AAl?$AAt?$AA?4?$AAG?$AAe?$AAt?$AAM?$AAo?$AAu?$AAs?$AAe@ 000000014007a2f8     win32_layer.obj
 0002:00006320       ??_C@_0BB@GAKEDOK@Result?4GetMouseY@ 000000014007a320     win32_layer.obj
 0002:00006338       ??_C@_1CC@BEOONJGB@?$AAR?$AAe?$AAs?$AAu?$AAl?$AAt?$AA?4?$AAG?$AAe?$AAt?$AAM?$AAo?$AAu?$AAs?$AAe@ 000000014007a338     win32_layer.obj
 0002:00006360       ??_C@_0BI@OEFNGCDM@Result?4GetMousePosition@ 000000014007a360     win32_layer.obj
 0002:00006378       ??_C@_1DA@POCMIAPE@?$AAR?$AAe?$AAs?$AAu?$AAl?$AAt?$AA?4?$AAG?$AAe?$AAt?$AAM?$AAo?$AAu?$AAs?$AAe@ 000000014007a378     win32_layer.obj
 0002:000063a8       ??_C@_0BF@GIOGOEND@Result?4GetMouseDelta@ 000000014007a3a8     win32_layer.obj
 0002:000063c0       ??_C@_1CK@KKCAOEGA@?$AAR?$AAe?$AAs?$AAu?$AAl?$AAt?$AA?4?$AAG?$AAe?$AAt?$AAM?$AAo?$AAu?$AAs?$AAe@ 000000014007a3c0     win32_layer.obj
 0002:000063f0       ??_C@_0BI@IAAENMIO@Result?4SetMousePosition@ 000000014007a3f0     win32_layer.obj
 0002:00006408       ??_C@_1DA@EJJDNNIP@?$AAR?$AAe?$AAs?$AAu?$AAl?$AAt?$AA?4?$AAS?$AAe?$AAt?$AAM?$AAo?$AAu?$AAs?$AAe@ 000000014007a408     win32_layer.obj
 0002:00006438       ??_C@_0BG@MOACINME@Result?4SetMouseOffset@ 000000014007a438     win32_layer.obj
 0002:00006450       ??_C@_1CM@BJHIFCNE@?$AAR?$AAe?$AAs?$AAu?$AAl?$AAt?$AA?4?$AAS?$AAe?$AAt?$AAM?$AAo?$AAu?$AAs?$AAe@ 000000014007a450     win32_layer.obj
 0002:00006480       ??_C@_0BF@CFIHPDG@Result?4SetMouseScale@ 000000014007a480     win32_layer.obj
 0002:00006498       ??_C@_1CK@DJNELHIA@?$AAR?$AAe?$AAs?$AAu?$AAl?$AAt?$AA?4?$AAS?$AAe?$AAt?$AAM?$AAo?$AAu?$AAs?$AAe@ 000000014007a498     win32_layer.obj
 0002:000064c8       ??_C@_0BJ@FDJGBJF@Result?4GetMouseWheelMove@ 000000014007a4c8     win32_layer.obj
 0002:000064e8       ??_C@_1DC@KNJOIMHK@?$AAR?$AAe?$AAs?$AAu?$AAl?$AAt?$AA?4?$AAG?$AAe?$AAt?$AAM?$AAo?$AAu?$AAs?$AAe@ 000000014007a4e8     win32_layer.obj
 0002:00006520       ??_C@_0BK@GMIBKEHI@Result?4GetMouseWheelMoveV@ 000000014007a520     win32_layer.obj
 0002:00006540       ??_C@_1DE@NPLIKDJH@?$AAR?$AAe?$AAs?$AAu?$AAl?$AAt?$AA?4?$AAG?$AAe?$AAt?$AAM?$AAo?$AAu?$AAs?$AAe@ 000000014007a540     win32_layer.obj
 0002:00006578       ??_C@_0BG@ECENIEJH@Result?4SetMouseCursor@ 000000014007a578     win32_layer.obj
 0002:00006590       ??_C@_1CM@OCLOKBNN@?$AAR?$AAe?$AAs?$AAu?$AAl?$AAt?$AA?4?$AAS?$AAe?$AAt?$AAM?$AAo?$AAu?$AAs?$AAe@ 000000014007a590     win32_layer.obj
 0002:000065c0       ??_C@_0BB@LFJGGPHK@Result?4GetTouchX@ 000000014007a5c0     win32_layer.obj
 0002:000065d8       ??_C@_1CC@KEJDFPNN@?$AAR?$AAe?$AAs?$AAu?$AAl?$AAt?$AA?4?$AAG?$AAe?$AAt?$AAT?$AAo?$AAu?$AAc?$AAh@ 000000014007a5d8     win32_layer.obj
 0002:00006600       ??_C@_0BB@KMINFODL@Result?4GetTouchY@ 000000014007a600     win32_layer.obj
 0002:00006618       ??_C@_1CC@BMCPDILI@?$AAR?$AAe?$AAs?$AAu?$AAl?$AAt?$AA?4?$AAG?$AAe?$AAt?$AAT?$AAo?$AAu?$AAc?$AAh@ 000000014007a618     win32_layer.obj
 0002:00006640       ??_C@_0BI@HHLBOOGL@Result?4GetTouchPosition@ 000000014007a640     win32_layer.obj
 0002:00006658       ??_C@_1DA@PGMPAIDN@?$AAR?$AAe?$AAs?$AAu?$AAl?$AAt?$AA?4?$AAG?$AAe?$AAt?$AAT?$AAo?$AAu?$AAc?$AAh@ 000000014007a658     win32_layer.obj
 0002:00006688       ??_C@_0BH@NHAANDJI@Result?4GetTouchPointId@ 000000014007a688     win32_layer.obj
 0002:000066a0       ??_C@_1CO@NNAHJPLK@?$AAR?$AAe?$AAs?$AAu?$AAl?$AAt?$AA?4?$AAG?$AAe?$AAt?$AAT?$AAo?$AAu?$AAc?$AAh@ 000000014007a6a0     win32_layer.obj
 0002:000066d0       ??_C@_0BK@NKKFGHEC@Result?4GetTouchPointCount@ 000000014007a6d0     win32_layer.obj
 0002:000066f0       ??_C@_1DE@NAEFMLIL@?$AAR?$AAe?$AAs?$AAu?$AAl?$AAt?$AA?4?$AAG?$AAe?$AAt?$AAT?$AAo?$AAu?$AAc?$AAh@ 000000014007a6f0     win32_layer.obj
 0002:00006728       ??_C@_0BK@GFJCPHGP@Result?4SetGesturesEnabled@ 000000014007a728     win32_layer.obj
 0002:00006748       ??_C@_1DE@PEJNHKFH@?$AAR?$AAe?$AAs?$AAu?$AAl?$AAt?$AA?4?$AAS?$AAe?$AAt?$AAG?$AAe?$AAs?$AAt?$AAu@ 000000014007a748     win32_layer.obj
 0002:00006780       ??_C@_0BJ@NKDLNGJO@Result?4IsGestureDetected@ 000000014007a780     win32_layer.obj
 0002:000067a0       ??_C@_1DC@MNCAHOJ@?$AAR?$AAe?$AAs?$AAu?$AAl?$AAt?$AA?4?$AAI?$AAs?$AAG?$AAe?$AAs?$AAt?$AAu?$AAr@ 000000014007a7a0     win32_layer.obj
 0002:000067d8       ??_C@_0BK@NMGMNJJM@Result?4GetGestureDetected@ 000000014007a7d8     win32_layer.obj
 0002:000067f8       ??_C@_1DE@GIHEHNGI@?$AAR?$AAe?$AAs?$AAu?$AAl?$AAt?$AA?4?$AAG?$AAe?$AAt?$AAG?$AAe?$AAs?$AAt?$AAu@ 000000014007a7f8     win32_layer.obj
 0002:00006830       ??_C@_0BO@JCJOBNGI@Result?4GetGestureHoldDuration@ 000000014007a830     win32_layer.obj
 0002:00006850       ??_C@_1DM@CNJJAENO@?$AAR?$AAe?$AAs?$AAu?$AAl?$AAt?$AA?4?$AAG?$AAe?$AAt?$AAG?$AAe?$AAs?$AAt?$AAu@ 000000014007a850     win32_layer.obj
 0002:00006890       ??_C@_0BM@PAPBIHEF@Result?4GetGestureDragVector@ 000000014007a890     win32_layer.obj
 0002:000068b0       ??_C@_1DI@BHADHLOD@?$AAR?$AAe?$AAs?$AAu?$AAl?$AAt?$AA?4?$AAG?$AAe?$AAt?$AAG?$AAe?$AAs?$AAt?$AAu@ 000000014007a8b0     win32_layer.obj
 0002:000068e8       ??_C@_0BL@EOKEJPKH@Result?4GetGestureDragAngle@ 000000014007a8e8     win32_layer.obj
 0002:00006908       ??_C@_1DG@FHAFCDGE@?$AAR?$AAe?$AAs?$AAu?$AAl?$AAt?$AA?4?$AAG?$AAe?$AAt?$AAG?$AAe?$AAs?$AAt?$AAu@ 000000014007a908     win32_layer.obj
 0002:00006940       ??_C@_0BN@KLNCHGND@Result?4GetGesturePinchVector@ 000000014007a940     win32_layer.obj
 0002:00006960       ??_C@_1DK@IJNPCBKF@?$AAR?$AAe?$AAs?$AAu?$AAl?$AAt?$AA?4?$AAG?$AAe?$AAt?$AAG?$AAe?$AAs?$AAt?$AAu@ 000000014007a960     win32_layer.obj
 0002:000069a0       ??_C@_0BM@LDPLBEBI@Result?4GetGesturePinchAngle@ 000000014007a9a0     win32_layer.obj
 0002:000069c0       ??_C@_1DI@CFEFCLFD@?$AAR?$AAe?$AAs?$AAu?$AAl?$AAt?$AA?4?$AAG?$AAe?$AAt?$AAG?$AAe?$AAs?$AAt?$AAu@ 000000014007a9c0     win32_layer.obj
 0002:000069f8       ??_C@_0BF@JINNAPEO@Result?4SetCameraMode@ 000000014007a9f8     win32_layer.obj
 0002:00006a10       ??_C@_1CK@DEPKLIAC@?$AAR?$AAe?$AAs?$AAu?$AAl?$AAt?$AA?4?$AAS?$AAe?$AAt?$AAC?$AAa?$AAm?$AAe?$AAr@ 000000014007aa10     win32_layer.obj
 0002:00006a40       ??_C@_0BE@DGJFPLCM@Result?4UpdateCamera@ 000000014007aa40     win32_layer.obj
 0002:00006a58       ??_C@_1CI@IDEPJBJB@?$AAR?$AAe?$AAs?$AAu?$AAl?$AAt?$AA?4?$AAU?$AAp?$AAd?$AAa?$AAt?$AAe?$AAC?$AAa@ 000000014007aa58     win32_layer.obj
 0002:00006a80       ??_C@_0BL@EJAHPIHJ@Result?4SetCameraPanControl@ 000000014007aa80     win32_layer.obj
 0002:00006aa0       ??_C@_1DG@OLIBEJNF@?$AAR?$AAe?$AAs?$AAu?$AAl?$AAt?$AA?4?$AAS?$AAe?$AAt?$AAC?$AAa?$AAm?$AAe?$AAr@ 000000014007aaa0     win32_layer.obj
 0002:00006ad8       ??_C@_0BL@OKGPKACN@Result?4SetCameraAltControl@ 000000014007aad8     win32_layer.obj
 0002:00006af8       ??_C@_1DG@NPCJPIGO@?$AAR?$AAe?$AAs?$AAu?$AAl?$AAt?$AA?4?$AAS?$AAe?$AAt?$AAC?$AAa?$AAm?$AAe?$AAr@ 000000014007aaf8     win32_layer.obj
 0002:00006b30       ??_C@_0CC@GNAICKEA@Result?4SetCameraSmoothZoomContr@ 000000014007ab30     win32_layer.obj
 0002:00006b60       ??_C@_1EE@LDKIFHMF@?$AAR?$AAe?$AAs?$AAu?$AAl?$AAt?$AA?4?$AAS?$AAe?$AAt?$AAC?$AAa?$AAm?$AAe?$AAr@ 000000014007ab60     win32_layer.obj
 0002:00006ba8       ??_C@_0BN@HDHFAHCN@Result?4SetCameraMoveControls@ 000000014007aba8     win32_layer.obj
 0002:00006bc8       ??_C@_1DK@ELCEDKLG@?$AAR?$AAe?$AAs?$AAu?$AAl?$AAt?$AA?4?$AAS?$AAe?$AAt?$AAC?$AAa?$AAm?$AAe?$AAr@ 000000014007abc8     win32_layer.obj
 0002:00006c08       ??_C@_0BI@IEDIILPA@Result?4SetShapesTexture@ 000000014007ac08     win32_layer.obj
 0002:00006c20       ??_C@_1DA@PLJKLCJI@?$AAR?$AAe?$AAs?$AAu?$AAl?$AAt?$AA?4?$AAS?$AAe?$AAt?$AAS?$AAh?$AAa?$AAp?$AAe@ 000000014007ac20     win32_layer.obj
 0002:00006c50       ??_C@_0BB@DINIJIEO@Result?4DrawPixel@ 000000014007ac50     win32_layer.obj
 0002:00006c68       ??_C@_1CC@FAOFGDKG@?$AAR?$AAe?$AAs?$AAu?$AAl?$AAt?$AA?4?$AAD?$AAr?$AAa?$AAw?$AAP?$AAi?$AAx?$AAe@ 000000014007ac68     win32_layer.obj
 0002:00006c90       ??_C@_0BC@HNLNEONN@Result?4DrawPixelV@ 000000014007ac90     win32_layer.obj
 0002:00006ca8       ??_C@_1CE@MCIACLBG@?$AAR?$AAe?$AAs?$AAu?$AAl?$AAt?$AA?4?$AAD?$AAr?$AAa?$AAw?$AAP?$AAi?$AAx?$AAe@ 000000014007aca8     win32_layer.obj
 0002:00006cd0       ??_C@_0BA@PJOFACJA@Result?4DrawLine@ 000000014007acd0     win32_layer.obj
 0002:00006ce0       ??_C@_1CA@OGCGMKEB@?$AAR?$AAe?$AAs?$AAu?$AAl?$AAt?$AA?4?$AAD?$AAr?$AAa?$AAw?$AAL?$AAi?$AAn?$AAe@ 000000014007ace0     win32_layer.obj
 0002:00006d00       ??_C@_0BB@BMBHIMJE@Result?4DrawLineV@ 000000014007ad00     win32_layer.obj
 0002:00006d18       ??_C@_1CC@HMLFODLC@?$AAR?$AAe?$AAs?$AAu?$AAl?$AAt?$AA?4?$AAD?$AAr?$AAa?$AAw?$AAL?$AAi?$AAn?$AAe@ 000000014007ad18     win32_layer.obj
 0002:00006d40       ??_C@_0BC@OPIKOAG@Result?4DrawLineEx@ 000000014007ad40     win32_layer.obj
 0002:00006d58       ??_C@_1CE@MEDJPLAL@?$AAR?$AAe?$AAs?$AAu?$AAl?$AAt?$AA?4?$AAD?$AAr?$AAa?$AAw?$AAL?$AAi?$AAn?$AAe@ 000000014007ad58     win32_layer.obj
 0002:00006d80       ??_C@_0BG@BBOGBEJH@Result?4DrawLineBezier@ 000000014007ad80     win32_layer.obj
 0002:00006d98       ??_C@_1CM@EEEJHEOG@?$AAR?$AAe?$AAs?$AAu?$AAl?$AAt?$AA?4?$AAD?$AAr?$AAa?$AAw?$AAL?$AAi?$AAn?$AAe@ 000000014007ad98     win32_layer.obj
 0002:00006dc8       ??_C@_0BK@EIDKBPEI@Result?4DrawLineBezierQuad@ 000000014007adc8     win32_layer.obj
 0002:00006de8       ??_C@_1DE@BNDGLDNK@?$AAR?$AAe?$AAs?$AAu?$AAl?$AAt?$AA?4?$AAD?$AAr?$AAa?$AAw?$AAL?$AAi?$AAn?$AAe@ 000000014007ade8     win32_layer.obj
 0002:00006e20       ??_C@_0BL@GCOMFEPE@Result?4DrawLineBezierCubic@ 000000014007ae20     win32_layer.obj
 0002:00006e40       ??_C@_1DG@NCBOONCG@?$AAR?$AAe?$AAs?$AAu?$AAl?$AAt?$AA?4?$AAD?$AAr?$AAa?$AAw?$AAL?$AAi?$AAn?$AAe@ 000000014007ae40     win32_layer.obj
 0002:00006e78       ??_C@_0BF@DOBPHKDM@Result?4DrawLineStrip@ 000000014007ae78     win32_layer.obj
 0002:00006e90       ??_C@_1CK@BNAONIEJ@?$AAR?$AAe?$AAs?$AAu?$AAl?$AAt?$AA?4?$AAD?$AAr?$AAa?$AAw?$AAL?$AAi?$AAn?$AAe@ 000000014007ae90     win32_layer.obj
 0002:00006ec0       ??_C@_0BC@LADLOKMD@Result?4DrawCircle@ 000000014007aec0     win32_layer.obj
 0002:00006ed8       ??_C@_1CE@OLIAPMKA@?$AAR?$AAe?$AAs?$AAu?$AAl?$AAt?$AA?4?$AAD?$AAr?$AAa?$AAw?$AAC?$AAi?$AAr?$AAc@ 000000014007aed8     win32_layer.obj
 0002:00006f00       ??_C@_0BI@DJCFPCCI@Result?4DrawCircleSector@ 000000014007af00     win32_layer.obj
 0002:00006f18       ??_C@_1DA@GEIMFHFL@?$AAR?$AAe?$AAs?$AAu?$AAl?$AAt?$AA?4?$AAD?$AAr?$AAa?$AAw?$AAC?$AAi?$AAr?$AAc@ 000000014007af18     win32_layer.obj
 0002:00006f48       ??_C@_0BN@JAJDMPLN@Result?4DrawCircleSectorLines@ 000000014007af48     win32_layer.obj
 0002:00006f68       ??_C@_1DK@NAODFPLK@?$AAR?$AAe?$AAs?$AAu?$AAl?$AAt?$AA?4?$AAD?$AAr?$AAa?$AAw?$AAC?$AAi?$AAr?$AAc@ 000000014007af68     win32_layer.obj
 0002:00006fa8       ??_C@_0BK@FGGBPMBM@Result?4DrawCircleGradient@ 000000014007afa8     win32_layer.obj
 0002:00006fc8       ??_C@_1DE@NGHGLHKA@?$AAR?$AAe?$AAs?$AAu?$AAl?$AAt?$AA?4?$AAD?$AAr?$AAa?$AAw?$AAC?$AAi?$AAr?$AAc@ 000000014007afc8     win32_layer.obj
 0002:00007000       ??_C@_0BD@OODMFCDC@Result?4DrawCircleV@ 000000014007b000     win32_layer.obj
 0002:00007018       ??_C@_1CG@PEGKLJCA@?$AAR?$AAe?$AAs?$AAu?$AAl?$AAt?$AA?4?$AAD?$AAr?$AAa?$AAw?$AAC?$AAi?$AAr?$AAc@ 000000014007b018     win32_layer.obj
 0002:00007040       ??_C@_0BH@KGMDOLHL@Result?4DrawCircleLines@ 000000014007b040     win32_layer.obj
 0002:00007058       ??_C@_1CO@HHEPLLLB@?$AAR?$AAe?$AAs?$AAu?$AAl?$AAt?$AA?4?$AAD?$AAr?$AAa?$AAw?$AAC?$AAi?$AAr?$AAc@ 000000014007b058     win32_layer.obj
 0002:00007088       ??_C@_0BD@PPAIFNIN@Result?4DrawEllipse@ 000000014007b088     win32_layer.obj
 0002:000070a0       ??_C@_1CG@MNFGICCP@?$AAR?$AAe?$AAs?$AAu?$AAl?$AAt?$AA?4?$AAD?$AAr?$AAa?$AAw?$AAE?$AAl?$AAl?$AAi@ 000000014007b0a0     win32_layer.obj
 0002:000070c8       ??_C@_0BI@JAGJHDHD@Result?4DrawEllipseLines@ 000000014007b0c8     win32_layer.obj
 0002:000070e0       ??_C@_1DA@DEDPICEH@?$AAR?$AAe?$AAs?$AAu?$AAl?$AAt?$AA?4?$AAD?$AAr?$AAa?$AAw?$AAE?$AAl?$AAl?$AAi@ 000000014007b0e0     win32_layer.obj
 0002:00007110       ??_C@_0BA@BEADEJPB@Result?4DrawRing@ 000000014007b110     win32_layer.obj
 0002:00007120       ??_C@_1CA@HFEILDJB@?$AAR?$AAe?$AAs?$AAu?$AAl?$AAt?$AA?4?$AAD?$AAr?$AAa?$AAw?$AAR?$AAi?$AAn?$AAg@ 000000014007b120     win32_layer.obj
 0002:00007140       ??_C@_0BF@MCOPHLLD@Result?4DrawRingLines@ 000000014007b140     win32_layer.obj
 0002:00007158       ??_C@_1CK@OHOBMPIC@?$AAR?$AAe?$AAs?$AAu?$AAl?$AAt?$AA?4?$AAD?$AAr?$AAa?$AAw?$AAR?$AAi?$AAn?$AAg@ 000000014007b158     win32_layer.obj
 0002:00007188       ??_C@_0BF@IOLLBAAP@Result?4DrawRectangle@ 000000014007b188     win32_layer.obj
 0002:000071a0       ??_C@_1CK@MBPBGOKJ@?$AAR?$AAe?$AAs?$AAu?$AAl?$AAt?$AA?4?$AAD?$AAr?$AAa?$AAw?$AAR?$AAe?$AAc?$AAt@ 000000014007b1a0     win32_layer.obj
 0002:000071d0       ??_C@_0BG@HMNAFMFD@Result?4DrawRectangleV@ 000000014007b1d0     win32_layer.obj
 0002:000071e8       ??_C@_1CM@DLKJNKHA@?$AAR?$AAe?$AAs?$AAu?$AAl?$AAt?$AA?4?$AAD?$AAr?$AAa?$AAw?$AAR?$AAe?$AAc?$AAt@ 000000014007b1e8     win32_layer.obj
 0002:00007218       ??_C@_0BI@HMOFMJGA@Result?4DrawRectangleRec@ 000000014007b218     win32_layer.obj
 0002:00007230       ??_C@_1DA@NAAPDGAA@?$AAR?$AAe?$AAs?$AAu?$AAl?$AAt?$AA?4?$AAD?$AAr?$AAa?$AAw?$AAR?$AAe?$AAc?$AAt@ 000000014007b230     win32_layer.obj
 0002:00007260       ??_C@_0BI@GDDAPLBC@Result?4DrawRectanglePro@ 000000014007b260     win32_layer.obj
 0002:00007278       ??_C@_1DA@MGCPLMOG@?$AAR?$AAe?$AAs?$AAu?$AAl?$AAt?$AA?4?$AAD?$AAr?$AAa?$AAw?$AAR?$AAe?$AAc?$AAt@ 000000014007b278     win32_layer.obj
 0002:000072a8       ??_C@_0BO@HOIILDJA@Result?4DrawRectangleGradientV@ 000000014007b2a8     win32_layer.obj
 0002:000072c8       ??_C@_1DM@KECKHHB@?$AAR?$AAe?$AAs?$AAu?$AAl?$AAt?$AA?4?$AAD?$AAr?$AAa?$AAw?$AAR?$AAe?$AAc?$AAt@ 000000014007b2c8     win32_layer.obj
 0002:00007308       ??_C@_0BO@KKMJIMEP@Result?4DrawRectangleGradientH@ 000000014007b308     win32_layer.obj
 0002:00007328       ??_C@_1DM@LKIEIHNN@?$AAR?$AAe?$AAs?$AAu?$AAl?$AAt?$AA?4?$AAD?$AAr?$AAa?$AAw?$AAR?$AAe?$AAc?$AAt@ 000000014007b328     win32_layer.obj
 0002:00007368       ??_C@_0BP@JPHPFCA@Result?4DrawRectangleGradientEx@ 000000014007b368     win32_layer.obj
 0002:00007388       ??_C@_1DO@FFFPIMPI@?$AAR?$AAe?$AAs?$AAu?$AAl?$AAt?$AA?4?$AAD?$AAr?$AAa?$AAw?$AAR?$AAe?$AAc?$AAt@ 000000014007b388     win32_layer.obj
 0002:000073c8       ??_C@_0BK@MDANBIJP@Result?4DrawRectangleLines@ 000000014007b3c8     win32_layer.obj
 0002:000073e8       ??_C@_1DE@GEAOANBP@?$AAR?$AAe?$AAs?$AAu?$AAl?$AAt?$AA?4?$AAD?$AAr?$AAa?$AAw?$AAR?$AAe?$AAc?$AAt@ 000000014007b3e8     win32_layer.obj
 0002:00007420       ??_C@_0BM@HEACHBFL@Result?4DrawRectangleLinesEx@ 000000014007b420     win32_layer.obj
 0002:00007440       ??_C@_1DI@CFOAEPPJ@?$AAR?$AAe?$AAs?$AAu?$AAl?$AAt?$AA?4?$AAD?$AAr?$AAa?$AAw?$AAR?$AAe?$AAc?$AAt@ 000000014007b440     win32_layer.obj
 0002:00007478       ??_C@_0BM@HDNGNAKK@Result?4DrawRectangleRounded@ 000000014007b478     win32_layer.obj
 0002:00007498       ??_C@_1DI@PFPAKLFM@?$AAR?$AAe?$AAs?$AAu?$AAl?$AAt?$AA?4?$AAD?$AAr?$AAa?$AAw?$AAR?$AAe?$AAc?$AAt@ 000000014007b498     win32_layer.obj
 0002:000074d0       ??_C@_0CB@OMJKCBPM@Result?4DrawRectangleRoundedLine@ 000000014007b4d0     win32_layer.obj
 0002:00007500       ??_C@_1EC@PALNINBK@?$AAR?$AAe?$AAs?$AAu?$AAl?$AAt?$AA?4?$AAD?$AAr?$AAa?$AAw?$AAR?$AAe?$AAc?$AAt@ 000000014007b500     win32_layer.obj
 0002:00007548       ??_C@_0BE@OIOHGCGH@Result?4DrawTriangle@ 000000014007b548     win32_layer.obj
 0002:00007560       ??_C@_1CI@HODAPFBL@?$AAR?$AAe?$AAs?$AAu?$AAl?$AAt?$AA?4?$AAD?$AAr?$AAa?$AAw?$AAT?$AAr?$AAi?$AAa@ 000000014007b560     win32_layer.obj
 0002:00007588       ??_C@_0BJ@PNHIFHPB@Result?4DrawTriangleLines@ 000000014007b588     win32_layer.obj
 0002:000075a8       ??_C@_1DC@MGPMPCBI@?$AAR?$AAe?$AAs?$AAu?$AAl?$AAt?$AA?4?$AAD?$AAr?$AAa?$AAw?$AAT?$AAr?$AAi?$AAa@ 000000014007b5a8     win32_layer.obj
 0002:000075e0       ??_C@_0CA@JLOACFGI@Result?4DrawTriangleLinesRotated@ 000000014007b5e0     win32_layer.obj
 0002:00007600       ??_C@_1EA@GPAMOJOO@?$AAR?$AAe?$AAs?$AAu?$AAl?$AAt?$AA?4?$AAD?$AAr?$AAa?$AAw?$AAT?$AAr?$AAi?$AAa@ 000000014007b600     win32_layer.obj
 0002:00007640       ??_C@_0BH@CICJEDGM@Result?4DrawTriangleFan@ 000000014007b640     win32_layer.obj
 0002:00007658       ??_C@_1CO@LACCAHCL@?$AAR?$AAe?$AAs?$AAu?$AAl?$AAt?$AA?4?$AAD?$AAr?$AAa?$AAw?$AAT?$AAr?$AAi?$AAa@ 000000014007b658     win32_layer.obj
 0002:00007688       ??_C@_0BJ@KPHAPGAM@Result?4DrawTriangleStrip@ 000000014007b688     win32_layer.obj
 0002:000076a8       ??_C@_1DC@CEEDMBDM@?$AAR?$AAe?$AAs?$AAu?$AAl?$AAt?$AA?4?$AAD?$AAr?$AAa?$AAw?$AAT?$AAr?$AAi?$AAa@ 000000014007b6a8     win32_layer.obj
 0002:000076e0       ??_C@_0BD@KBFNADCE@Result?4DrawPolygon@ 000000014007b6e0     win32_layer.obj
 0002:000076f8       ??_C@_1CG@NPIMLIEH@?$AAR?$AAe?$AAs?$AAu?$AAl?$AAt?$AA?4?$AAD?$AAr?$AAa?$AAw?$AAP?$AAo?$AAl?$AAy@ 000000014007b6f8     win32_layer.obj
 0002:00007720       ??_C@_0BA@JMGNKOPM@Result?4DrawPoly@ 000000014007b720     win32_layer.obj
 0002:00007730       ??_C@_1CA@EKNMOLIM@?$AAR?$AAe?$AAs?$AAu?$AAl?$AAt?$AA?4?$AAD?$AAr?$AAa?$AAw?$AAP?$AAo?$AAl?$AAy@ 000000014007b730     win32_layer.obj
 0002:00007750       ??_C@_0BF@MAMEDCOK@Result?4DrawPolyLines@ 000000014007b750     win32_layer.obj
 0002:00007768       ??_C@_1CK@JNKEJAE@?$AAR?$AAe?$AAs?$AAu?$AAl?$AAt?$AA?4?$AAD?$AAr?$AAa?$AAw?$AAP?$AAo?$AAl?$AAy@ 000000014007b768     win32_layer.obj
 0002:00007798       ??_C@_0BH@PNPBDGPH@Result?4DrawPolyLinesEx@ 000000014007b798     win32_layer.obj
 0002:000077b0       ??_C@_1CO@DDMKHIF@?$AAR?$AAe?$AAs?$AAu?$AAl?$AAt?$AA?4?$AAD?$AAr?$AAa?$AAw?$AAP?$AAo?$AAl?$AAy@ 000000014007b7b0     win32_layer.obj
 0002:000077e0       ??_C@_0BK@JADLDKIM@Result?4CheckCollisionRecs@ 000000014007b7e0     win32_layer.obj
 0002:00007800       ??_C@_1DE@OJMGGIBC@?$AAR?$AAe?$AAs?$AAu?$AAl?$AAt?$AA?4?$AAC?$AAh?$AAe?$AAc?$AAk?$AAC?$AAo?$AAl@ 000000014007b800     win32_layer.obj
 0002:00007838       ??_C@_0BN@JIKIKDBB@Result?4CheckCollisionCircles@ 000000014007b838     win32_layer.obj
 0002:00007858       ??_C@_1DK@GGBHPPNP@?$AAR?$AAe?$AAs?$AAu?$AAl?$AAt?$AA?4?$AAC?$AAh?$AAe?$AAc?$AAk?$AAC?$AAo?$AAl@ 000000014007b858     win32_layer.obj
 0002:00007898       ??_C@_0BP@EEELABO@Result?4CheckCollisionCircleRec@ 000000014007b898     win32_layer.obj
 0002:000078b8       ??_C@_1DO@CFILHJBF@?$AAR?$AAe?$AAs?$AAu?$AAl?$AAt?$AA?4?$AAC?$AAh?$AAe?$AAc?$AAk?$AAC?$AAo?$AAl@ 000000014007b8b8     win32_layer.obj
 0002:000078f8       ??_C@_0BO@ILFKNPHF@Result?4CheckCollisionPointRec@ 000000014007b8f8     win32_layer.obj
 0002:00007918       ??_C@_1DM@EMFOJMKI@?$AAR?$AAe?$AAs?$AAu?$AAl?$AAt?$AA?4?$AAC?$AAh?$AAe?$AAc?$AAk?$AAC?$AAo?$AAl@ 000000014007b918     win32_layer.obj
 0002:00007958       ??_C@_0CB@EEBLNHHC@Result?4CheckCollisionPointCircl@ 000000014007b958     win32_layer.obj
 0002:00007980       ??_C@_1EC@KIJKEAKC@?$AAR?$AAe?$AAs?$AAu?$AAl?$AAt?$AA?4?$AAC?$AAh?$AAe?$AAc?$AAk?$AAC?$AAo?$AAl@ 000000014007b980     win32_layer.obj
 0002:000079c8       ??_C@_0CD@ENFBEFKP@Result?4CheckCollisionPointTrian@ 000000014007b9c8     win32_layer.obj
 0002:000079f0       ??_C@_1EG@EHIFNABF@?$AAR?$AAe?$AAs?$AAu?$AAl?$AAt?$AA?4?$AAC?$AAh?$AAe?$AAc?$AAk?$AAC?$AAo?$AAl@ 000000014007b9f0     win32_layer.obj
 0002:00007a38       ??_C@_0BL@PGGBFHPB@Result?4CheckCollisionLines@ 000000014007ba38     win32_layer.obj
 0002:00007a58       ??_C@_1DG@PDIIFFDG@?$AAR?$AAe?$AAs?$AAu?$AAl?$AAt?$AA?4?$AAC?$AAh?$AAe?$AAc?$AAk?$AAC?$AAo?$AAl@ 000000014007ba58     win32_layer.obj
 0002:00007a90       ??_C@_0BP@KFLAEFIG@Result?4CheckCollisionPointLine@ 000000014007ba90     win32_layer.obj
 0002:00007ab0       ??_C@_1DO@EBMJBFCL@?$AAR?$AAe?$AAs?$AAu?$AAl?$AAt?$AA?4?$AAC?$AAh?$AAe?$AAc?$AAk?$AAC?$AAo?$AAl@ 000000014007bab0     win32_layer.obj
 0002:00007af0       ??_C@_0BH@BEIAKMKJ@Result?4GetCollisionRec@ 000000014007baf0     win32_layer.obj
 0002:00007b08       ??_C@_1CO@MAGPMGFJ@?$AAR?$AAe?$AAs?$AAu?$AAl?$AAt?$AA?4?$AAG?$AAe?$AAt?$AAC?$AAo?$AAl?$AAl?$AAi@ 000000014007bb08     win32_layer.obj
 0002:00007b38       ??_C@_0BE@FBPEKDBO@Result?4RL_LoadImage@ 000000014007bb38     win32_layer.obj
 0002:00007b50       ??_C@_1CI@IFCGNKBP@?$AAR?$AAe?$AAs?$AAu?$AAl?$AAt?$AA?4?$AAR?$AAL?$AA_?$AAL?$AAo?$AAa?$AAd?$AAI@ 000000014007bb50     win32_layer.obj
 0002:00007b78       ??_C@_0BE@DBGBJGCK@Result?4LoadImageRaw@ 000000014007bb78     win32_layer.obj
 0002:00007b90       ??_C@_1CI@DLNBNNBG@?$AAR?$AAe?$AAs?$AAu?$AAl?$AAt?$AA?4?$AAL?$AAo?$AAa?$AAd?$AAI?$AAm?$AAa?$AAg@ 000000014007bb90     win32_layer.obj
 0002:00007bb8       ??_C@_0BF@GCECMONE@Result?4LoadImageAnim@ 000000014007bbb8     win32_layer.obj
 0002:00007bd0       ??_C@_1CK@BNDEEBN@?$AAR?$AAe?$AAs?$AAu?$AAl?$AAt?$AA?4?$AAL?$AAo?$AAa?$AAd?$AAI?$AAm?$AAa?$AAg@ 000000014007bbd0     win32_layer.obj
 0002:00007c00       ??_C@_0BL@BEPNCKGM@Result?4LoadImageFromMemory@ 000000014007bc00     win32_layer.obj
 0002:00007c20       ??_C@_1DG@DEJDFAME@?$AAR?$AAe?$AAs?$AAu?$AAl?$AAt?$AA?4?$AAL?$AAo?$AAa?$AAd?$AAI?$AAm?$AAa?$AAg@ 000000014007bc20     win32_layer.obj
 0002:00007c58       ??_C@_0BM@OKMHIHFI@Result?4LoadImageFromTexture@ 000000014007bc58     win32_layer.obj
 0002:00007c78       ??_C@_1DI@NIKOFJHF@?$AAR?$AAe?$AAs?$AAu?$AAl?$AAt?$AA?4?$AAL?$AAo?$AAa?$AAd?$AAI?$AAm?$AAa?$AAg@ 000000014007bc78     win32_layer.obj
 0002:00007cb0       ??_C@_0BL@GEKCPPLG@Result?4LoadImageFromScreen@ 000000014007bcb0     win32_layer.obj
 0002:00007cd0       ??_C@_1DG@OCPPAHGA@?$AAR?$AAe?$AAs?$AAu?$AAl?$AAt?$AA?4?$AAL?$AAo?$AAa?$AAd?$AAI?$AAm?$AAa?$AAg@ 000000014007bcd0     win32_layer.obj
 0002:00007d08       ??_C@_0BD@DBAHOKBD@Result?4UnloadImage@ 000000014007bd08     win32_layer.obj
 0002:00007d20       ??_C@_1CG@KBNGMHKL@?$AAR?$AAe?$AAs?$AAu?$AAl?$AAt?$AA?4?$AAU?$AAn?$AAl?$AAo?$AAa?$AAd?$AAI?$AAm@ 000000014007bd20     win32_layer.obj
 0002:00007d48       ??_C@_0BD@NDCEMCAH@Result?4ExportImage@ 000000014007bd48     win32_layer.obj
 0002:00007d60       ??_C@_1CG@JPBGIIJJ@?$AAR?$AAe?$AAs?$AAu?$AAl?$AAt?$AA?4?$AAE?$AAx?$AAp?$AAo?$AAr?$AAt?$AAI?$AAm@ 000000014007bd60     win32_layer.obj
 0002:00007d88       ??_C@_0BJ@GKMHAAHD@Result?4ExportImageAsCode@ 000000014007bd88     win32_layer.obj
 0002:00007da8       ??_C@_1DC@GPHBBBFN@?$AAR?$AAe?$AAs?$AAu?$AAl?$AAt?$AA?4?$AAE?$AAx?$AAp?$AAo?$AAr?$AAt?$AAI?$AAm@ 000000014007bda8     win32_layer.obj
 0002:00007de0       ??_C@_0BF@BFBBELEH@Result?4GenImageColor@ 000000014007bde0     win32_layer.obj
 0002:00007df8       ??_C@_1CK@BHAIAEAI@?$AAR?$AAe?$AAs?$AAu?$AAl?$AAt?$AA?4?$AAG?$AAe?$AAn?$AAI?$AAm?$AAa?$AAg?$AAe@ 000000014007bdf8     win32_layer.obj
 0002:00007e28       ??_C@_0BJ@NFENDBCC@Result?4GenImageGradientV@ 000000014007be28     win32_layer.obj
 0002:00007e48       ??_C@_1DC@DNFONMKB@?$AAR?$AAe?$AAs?$AAu?$AAl?$AAt?$AA?4?$AAG?$AAe?$AAn?$AAI?$AAm?$AAa?$AAg?$AAe@ 000000014007be48     win32_layer.obj
 0002:00007e80       ??_C@_0BJ@BAMAOPN@Result?4GenImageGradientH@ 000000014007be80     win32_layer.obj
 0002:00007ea0       ??_C@_1DC@INJIPMAN@?$AAR?$AAe?$AAs?$AAu?$AAl?$AAt?$AA?4?$AAG?$AAe?$AAn?$AAI?$AAm?$AAa?$AAg?$AAe@ 000000014007bea0     win32_layer.obj
 0002:00007ed8       ??_C@_0BO@OKLNNIDN@Result?4GenImageGradientRadial@ 000000014007bed8     win32_layer.obj
 0002:00007ef8       ??_C@_1DM@DCBKNCAG@?$AAR?$AAe?$AAs?$AAu?$AAl?$AAt?$AA?4?$AAG?$AAe?$AAn?$AAI?$AAm?$AAa?$AAg?$AAe@ 000000014007bef8     win32_layer.obj
 0002:00007f38       ??_C@_0BH@BLPCGJPB@Result?4GenImageChecked@ 000000014007bf38     win32_layer.obj
 0002:00007f50       ??_C@_1CO@OEGGCLJO@?$AAR?$AAe?$AAs?$AAu?$AAl?$AAt?$AA?4?$AAG?$AAe?$AAn?$AAI?$AAm?$AAa?$AAg?$AAe@ 000000014007bf50     win32_layer.obj
 0002:00007f80       ??_C@_0BK@JPHIGIJG@Result?4GenImageWhiteNoise@ 000000014007bf80     win32_layer.obj
 0002:00007fa0       ??_C@_1DE@MHJIMNGK@?$AAR?$AAe?$AAs?$AAu?$AAl?$AAt?$AA?4?$AAG?$AAe?$AAn?$AAI?$AAm?$AAa?$AAg?$AAe@ 000000014007bfa0     win32_layer.obj
 0002:00007fd8       ??_C@_0BI@IMHAGNMC@Result?4GenImageCellular@ 000000014007bfd8     win32_layer.obj
 0002:00007ff0       ??_C@_1DA@CBCFMLAO@?$AAR?$AAe?$AAs?$AAu?$AAl?$AAt?$AA?4?$AAG?$AAe?$AAn?$AAI?$AAm?$AAa?$AAg?$AAe@ 000000014007bff0     win32_layer.obj
 0002:00008020       ??_C@_0BB@OGNBELIC@Result?4ImageCopy@ 000000014007c020     win32_layer.obj
 0002:00008038       ??_C@_1CC@MOINHPKN@?$AAR?$AAe?$AAs?$AAu?$AAl?$AAt?$AA?4?$AAI?$AAm?$AAa?$AAg?$AAe?$AAC?$AAo?$AAp@ 000000014007c038     win32_layer.obj
 0002:00008060       ??_C@_0BG@BBINPIOC@Result?4ImageFromImage@ 000000014007c060     win32_layer.obj
 0002:00008078       ??_C@_1CM@EKGKMKNA@?$AAR?$AAe?$AAs?$AAu?$AAl?$AAt?$AA?4?$AAI?$AAm?$AAa?$AAg?$AAe?$AAF?$AAr?$AAo@ 000000014007c078     win32_layer.obj
 0002:000080a8       ??_C@_0BB@OABBMPIB@Result?4ImageText@ 000000014007c0a8     win32_layer.obj
 0002:000080c0       ??_C@_1CC@IEAGKDEE@?$AAR?$AAe?$AAs?$AAu?$AAl?$AAt?$AA?4?$AAI?$AAm?$AAa?$AAg?$AAe?$AAT?$AAe?$AAx@ 000000014007c0c0     win32_layer.obj
 0002:000080e8       ??_C@_0BD@LIPECKOP@Result?4ImageTextEx@ 000000014007c0e8     win32_layer.obj
 0002:00008100       ??_C@_1CG@ICNJNPEA@?$AAR?$AAe?$AAs?$AAu?$AAl?$AAt?$AA?4?$AAI?$AAm?$AAa?$AAg?$AAe?$AAT?$AAe?$AAx@ 000000014007c100     win32_layer.obj
 0002:00008128       ??_C@_0BD@BNHOCFOK@Result?4ImageFormat@ 000000014007c128     win32_layer.obj
 0002:00008140       ??_C@_1CG@ENAPINLB@?$AAR?$AAe?$AAs?$AAu?$AAl?$AAt?$AA?4?$AAI?$AAm?$AAa?$AAg?$AAe?$AAF?$AAo?$AAr@ 000000014007c140     win32_layer.obj
 0002:00008168       ??_C@_0BC@EDIAKPCI@Result?4ImageToPOT@ 000000014007c168     win32_layer.obj
 0002:00008180       ??_C@_1CE@MMKJHKOE@?$AAR?$AAe?$AAs?$AAu?$AAl?$AAt?$AA?4?$AAI?$AAm?$AAa?$AAg?$AAe?$AAT?$AAo?$AAP@ 000000014007c180     win32_layer.obj
 0002:000081a8       ??_C@_0BB@ICBKJLME@Result?4ImageCrop@ 000000014007c1a8     win32_layer.obj
 0002:000081c0       ??_C@_1CC@KGLLKEJD@?$AAR?$AAe?$AAs?$AAu?$AAl?$AAt?$AA?4?$AAI?$AAm?$AAa?$AAg?$AAe?$AAC?$AAr?$AAo@ 000000014007c1c0     win32_layer.obj
 0002:000081e8       ??_C@_0BG@IOPECPLL@Result?4ImageAlphaCrop@ 000000014007c1e8     win32_layer.obj
 0002:00008200       ??_C@_1CM@EGMHJIHG@?$AAR?$AAe?$AAs?$AAu?$AAl?$AAt?$AA?4?$AAI?$AAm?$AAa?$AAg?$AAe?$AAA?$AAl?$AAp@ 000000014007c200     win32_layer.obj
 0002:00008230       ??_C@_0BH@OMLNIFJP@Result?4ImageAlphaClear@ 000000014007c230     win32_layer.obj
 0002:00008248       ??_C@_1CO@CGKKJHHL@?$AAR?$AAe?$AAs?$AAu?$AAl?$AAt?$AA?4?$AAI?$AAm?$AAa?$AAg?$AAe?$AAA?$AAl?$AAp@ 000000014007c248     win32_layer.obj
 0002:00008278       ??_C@_0BG@MPGCPICF@Result?4ImageAlphaMask@ 000000014007c278     win32_layer.obj
 0002:00008290       ??_C@_1CM@FJDGIMHD@?$AAR?$AAe?$AAs?$AAu?$AAl?$AAt?$AA?4?$AAI?$AAm?$AAa?$AAg?$AAe?$AAA?$AAl?$AAp@ 000000014007c290     win32_layer.obj
 0002:000082c0       ??_C@_0BN@CNKJCCCG@Result?4ImageAlphaPremultiply@ 000000014007c2c0     win32_layer.obj
 0002:000082e0       ??_C@_1DK@CHJCPLCF@?$AAR?$AAe?$AAs?$AAu?$AAl?$AAt?$AA?4?$AAI?$AAm?$AAa?$AAg?$AAe?$AAA?$AAl?$AAp@ 000000014007c2e0     win32_layer.obj
 0002:00008320       ??_C@_0BD@NONMGPDH@Result?4ImageResize@ 000000014007c320     win32_layer.obj
 0002:00008338       ??_C@_1CG@DCBKHBMB@?$AAR?$AAe?$AAs?$AAu?$AAl?$AAt?$AA?4?$AAI?$AAm?$AAa?$AAg?$AAe?$AAR?$AAe?$AAs@ 000000014007c338     win32_layer.obj
 0002:00008360       ??_C@_0BF@FJPEMAGA@Result?4ImageResizeNN@ 000000014007c360     win32_layer.obj
 0002:00008378       ??_C@_1CK@KNKBGEEN@?$AAR?$AAe?$AAs?$AAu?$AAl?$AAt?$AA?4?$AAI?$AAm?$AAa?$AAg?$AAe?$AAR?$AAe?$AAs@ 000000014007c378     win32_layer.obj
 0002:000083a8       ??_C@_0BJ@HKJCMHMH@Result?4ImageResizeCanvas@ 000000014007c3a8     win32_layer.obj
 0002:000083c8       ??_C@_1DC@FFPKGNCN@?$AAR?$AAe?$AAs?$AAu?$AAl?$AAt?$AA?4?$AAI?$AAm?$AAa?$AAg?$AAe?$AAR?$AAe?$AAs@ 000000014007c3c8     win32_layer.obj
 0002:00008400       ??_C@_0BE@DAKLHPMN@Result?4ImageMipmaps@ 000000014007c400     win32_layer.obj
 0002:00008418       ??_C@_1CI@MCOOJOJL@?$AAR?$AAe?$AAs?$AAu?$AAl?$AAt?$AA?4?$AAI?$AAm?$AAa?$AAg?$AAe?$AAM?$AAi?$AAp@ 000000014007c418     win32_layer.obj
 0002:00008440       ??_C@_0BD@LFHFNNBG@Result?4ImageDither@ 000000014007c440     win32_layer.obj
 0002:00008458       ??_C@_1CG@LIFIIPBF@?$AAR?$AAe?$AAs?$AAu?$AAl?$AAt?$AA?4?$AAI?$AAm?$AAa?$AAg?$AAe?$AAD?$AAi?$AAt@ 000000014007c458     win32_layer.obj
 0002:00008480       ??_C@_0BJ@CFBADOCN@Result?4ImageFlipVertical@ 000000014007c480     win32_layer.obj
 0002:000084a0       ??_C@_1DC@JNKKIHOJ@?$AAR?$AAe?$AAs?$AAu?$AAl?$AAt?$AA?4?$AAI?$AAm?$AAa?$AAg?$AAe?$AAF?$AAl?$AAi@ 000000014007c4a0     win32_layer.obj
 0002:000084d8       ??_C@_0BL@FLADBCJP@Result?4ImageFlipHorizontal@ 000000014007c4d8     win32_layer.obj
 0002:000084f8       ??_C@_1DG@LMLCODHE@?$AAR?$AAe?$AAs?$AAu?$AAl?$AAt?$AA?4?$AAI?$AAm?$AAa?$AAg?$AAe?$AAF?$AAl?$AAi@ 000000014007c4f8     win32_layer.obj
 0002:00008530       ??_C@_0BF@MNCIOEGB@Result?4ImageRotateCW@ 000000014007c530     win32_layer.obj
 0002:00008548       ??_C@_1CK@LFJFDJCH@?$AAR?$AAe?$AAs?$AAu?$AAl?$AAt?$AA?4?$AAI?$AAm?$AAa?$AAg?$AAe?$AAR?$AAo?$AAt@ 000000014007c548     win32_layer.obj
 0002:00008578       ??_C@_0BG@NEKNLJBF@Result?4ImageRotateCCW@ 000000014007c578     win32_layer.obj
 0002:00008590       ??_C@_1CM@ELFNPIGO@?$AAR?$AAe?$AAs?$AAu?$AAl?$AAt?$AA?4?$AAI?$AAm?$AAa?$AAg?$AAe?$AAR?$AAo?$AAt@ 000000014007c590     win32_layer.obj
 0002:000085c0       ??_C@_0BG@OIALJNKD@Result?4ImageColorTint@ 000000014007c5c0     win32_layer.obj
 0002:000085d8       ??_C@_1CM@JJFMLIBM@?$AAR?$AAe?$AAs?$AAu?$AAl?$AAt?$AA?4?$AAI?$AAm?$AAa?$AAg?$AAe?$AAC?$AAo?$AAl@ 000000014007c5d8     win32_layer.obj
 0002:00008608       ??_C@_0BI@LEILMJBL@Result?4ImageColorInvert@ 000000014007c608     win32_layer.obj
 0002:00008620       ??_C@_1DA@MNFALACH@?$AAR?$AAe?$AAs?$AAu?$AAl?$AAt?$AA?4?$AAI?$AAm?$AAa?$AAg?$AAe?$AAC?$AAo?$AAl@ 000000014007c620     win32_layer.obj
 0002:00008650       ??_C@_0BL@DBFNJACD@Result?4ImageColorGrayscale@ 000000014007c650     win32_layer.obj
 0002:00008670       ??_C@_1DG@BFHHIMDP@?$AAR?$AAe?$AAs?$AAu?$AAl?$AAt?$AA?4?$AAI?$AAm?$AAa?$AAg?$AAe?$AAC?$AAo?$AAl@ 000000014007c670     win32_layer.obj
 0002:000086a8       ??_C@_0BK@PEJCEBME@Result?4ImageColorContrast@ 000000014007c6a8     win32_layer.obj
 0002:000086c8       ??_C@_1DE@IENOCKPC@?$AAR?$AAe?$AAs?$AAu?$AAl?$AAt?$AA?4?$AAI?$AAm?$AAa?$AAg?$AAe?$AAC?$AAo?$AAl@ 000000014007c6c8     win32_layer.obj
 0002:00008700       ??_C@_0BM@JJADNGBK@Result?4ImageColorBrightness@ 000000014007c700     win32_layer.obj
 0002:00008720       ??_C@_1DI@DFOGMMBJ@?$AAR?$AAe?$AAs?$AAu?$AAl?$AAt?$AA?4?$AAI?$AAm?$AAa?$AAg?$AAe?$AAC?$AAo?$AAl@ 000000014007c720     win32_layer.obj
 0002:00008758       ??_C@_0BJ@DBABGIKI@Result?4ImageColorReplace@ 000000014007c758     win32_layer.obj
 0002:00008778       ??_C@_1DC@BBFHGPIH@?$AAR?$AAe?$AAs?$AAu?$AAl?$AAt?$AA?4?$AAI?$AAm?$AAa?$AAg?$AAe?$AAC?$AAo?$AAl@ 000000014007c778     win32_layer.obj
 0002:000087b0       ??_C@_0BH@PEMFJOJC@Result?4LoadImageColors@ 000000014007c7b0     win32_layer.obj
 0002:000087c8       ??_C@_1CO@OJFFOLFH@?$AAR?$AAe?$AAs?$AAu?$AAl?$AAt?$AA?4?$AAL?$AAo?$AAa?$AAd?$AAI?$AAm?$AAa?$AAg@ 000000014007c7c8     win32_layer.obj
 0002:000087f8       ??_C@_0BI@MOOALEHJ@Result?4LoadImagePalette@ 000000014007c7f8     win32_layer.obj
 0002:00008810       ??_C@_1DA@GOGGIBN@?$AAR?$AAe?$AAs?$AAu?$AAl?$AAt?$AA?4?$AAL?$AAo?$AAa?$AAd?$AAI?$AAm?$AAa?$AAg@ 000000014007c810     win32_layer.obj
 0002:00008840       ??_C@_0BJ@LPPJCBCM@Result?4UnloadImageColors@ 000000014007c840     win32_layer.obj
 0002:00008860       ??_C@_1DC@LKEIJEEG@?$AAR?$AAe?$AAs?$AAu?$AAl?$AAt?$AA?4?$AAU?$AAn?$AAl?$AAo?$AAa?$AAd?$AAI?$AAm@ 000000014007c860     win32_layer.obj
 0002:00008898       ??_C@_0BK@OCHCBGEN@Result?4UnloadImagePalette@ 000000014007c898     win32_layer.obj
 0002:000088b8       ??_C@_1DE@JFIFHELN@?$AAR?$AAe?$AAs?$AAu?$AAl?$AAt?$AA?4?$AAU?$AAn?$AAl?$AAo?$AAa?$AAd?$AAI?$AAm@ 000000014007c8b8     win32_layer.obj
 0002:000088f0       ??_C@_0BL@GDHLEBBI@Result?4GetImageAlphaBorder@ 000000014007c8f0     win32_layer.obj
 0002:00008910       ??_C@_1DG@DFKDKMJP@?$AAR?$AAe?$AAs?$AAu?$AAl?$AAt?$AA?4?$AAG?$AAe?$AAt?$AAI?$AAm?$AAa?$AAg?$AAe@ 000000014007c910     win32_layer.obj
 0002:00008948       ??_C@_0BF@PDDOEONK@Result?4GetImageColor@ 000000014007c948     win32_layer.obj
 0002:00008960       ??_C@_1CK@GDFFILIE@?$AAR?$AAe?$AAs?$AAu?$AAl?$AAt?$AA?4?$AAG?$AAe?$AAt?$AAI?$AAm?$AAa?$AAg?$AAe@ 000000014007c960     win32_layer.obj
 0002:00008990       ??_C@_0BM@IOMDLDMH@Result?4ImageClearBackground@ 000000014007c990     win32_layer.obj
 0002:000089b0       ??_C@_1DI@LFDEMJDB@?$AAR?$AAe?$AAs?$AAu?$AAl?$AAt?$AA?4?$AAI?$AAm?$AAa?$AAg?$AAe?$AAC?$AAl?$AAe@ 000000014007c9b0     win32_layer.obj
 0002:000089e8       ??_C@_0BG@ONFCHLMM@Result?4ImageDrawPixel@ 000000014007c9e8     win32_layer.obj
 0002:00008a00       ??_C@_1CM@NPMNBPJG@?$AAR?$AAe?$AAs?$AAu?$AAl?$AAt?$AA?4?$AAI?$AAm?$AAa?$AAg?$AAe?$AAD?$AAr?$AAa@ 000000014007ca00     win32_layer.obj
 0002:00008a30       ??_C@_0BH@HONOCGDC@Result?4ImageDrawPixelV@ 000000014007ca30     win32_layer.obj
 0002:00008a48       ??_C@_1CO@EEHFKPNK@?$AAR?$AAe?$AAs?$AAu?$AAl?$AAt?$AA?4?$AAI?$AAm?$AAa?$AAg?$AAe?$AAD?$AAr?$AAa@ 000000014007ca48     win32_layer.obj
 0002:00008a78       ??_C@_0BF@BDEHGELC@Result?4ImageDrawLine@ 000000014007ca78     win32_layer.obj
 0002:00008a90       ??_C@_1CK@LGIIEOCB@?$AAR?$AAe?$AAs?$AAu?$AAl?$AAt?$AA?4?$AAI?$AAm?$AAa?$AAg?$AAe?$AAD?$AAr?$AAa@ 000000014007ca90     win32_layer.obj
 0002:00008ac0       ??_C@_0BG@MJJNGPBG@Result?4ImageDrawLineV@ 000000014007cac0     win32_layer.obj
 0002:00008ad8       ??_C@_1CM@PDJNJPIC@?$AAR?$AAe?$AAs?$AAu?$AAl?$AAt?$AA?4?$AAI?$AAm?$AAa?$AAg?$AAe?$AAD?$AAr?$AAa@ 000000014007cad8     win32_layer.obj
 0002:00008b08       ??_C@_0BH@LDFIICCM@Result?4ImageDrawCircle@ 000000014007cb08     win32_layer.obj
 0002:00008b20       ??_C@_1CO@GNHFHIGM@?$AAR?$AAe?$AAs?$AAu?$AAl?$AAt?$AA?4?$AAI?$AAm?$AAa?$AAg?$AAe?$AAD?$AAr?$AAa@ 000000014007cb20     win32_layer.obj
 0002:00008b50       ??_C@_0BI@NOIKMOLD@Result?4ImageDrawCircleV@ 000000014007cb50     win32_layer.obj
 0002:00008b68       ??_C@_1DA@HJPAOAKO@?$AAR?$AAe?$AAs?$AAu?$AAl?$AAt?$AA?4?$AAI?$AAm?$AAa?$AAg?$AAe?$AAD?$AAr?$AAa@ 000000014007cb68     win32_layer.obj
 0002:00008b98       ??_C@_0BK@FFJKFGNM@Result?4ImageDrawRectangle@ 000000014007cb98     win32_layer.obj
 0002:00008bb8       ??_C@_1DE@LHLNCHJD@?$AAR?$AAe?$AAs?$AAu?$AAl?$AAt?$AA?4?$AAI?$AAm?$AAa?$AAg?$AAe?$AAD?$AAr?$AAa@ 000000014007cbb8     win32_layer.obj
 0002:00008bf0       ??_C@_0BL@GDNBPOHL@Result?4ImageDrawRectangleV@ 000000014007cbf0     win32_layer.obj
 0002:00008c10       ??_C@_1DG@BBAAILHB@?$AAR?$AAe?$AAs?$AAu?$AAl?$AAt?$AA?4?$AAI?$AAm?$AAa?$AAg?$AAe?$AAD?$AAr?$AAa@ 000000014007cc10     win32_layer.obj
 0002:00008c48       ??_C@_0BN@BJGALKAP@Result?4ImageDrawRectangleRec@ 000000014007cc48     win32_layer.obj
 0002:00008c68       ??_C@_1DK@KBLDNLJE@?$AAR?$AAe?$AAs?$AAu?$AAl?$AAt?$AA?4?$AAI?$AAm?$AAa?$AAg?$AAe?$AAD?$AAr?$AAa@ 000000014007cc68     win32_layer.obj
 0002:00008ca8       ??_C@_0BP@OIGECKPE@Result?4ImageDrawRectangleLines@ 000000014007cca8     win32_layer.obj
 0002:00008cc8       ??_C@_1DO@JIGEJIAB@?$AAR?$AAe?$AAs?$AAu?$AAl?$AAt?$AA?4?$AAI?$AAm?$AAa?$AAg?$AAe?$AAD?$AAr?$AAa@ 000000014007ccc8     win32_layer.obj
 0002:00008d08       ??_C@_0BB@HFOFPMBJ@Result?4ImageDraw@ 000000014007cd08     win32_layer.obj
 0002:00008d20       ??_C@_1CC@ODLKOGCD@?$AAR?$AAe?$AAs?$AAu?$AAl?$AAt?$AA?4?$AAI?$AAm?$AAa?$AAg?$AAe?$AAD?$AAr?$AAa@ 000000014007cd20     win32_layer.obj
 0002:00008d48       ??_C@_0BF@ECHDPLJL@Result?4ImageDrawText@ 000000014007cd48     win32_layer.obj
 0002:00008d60       ??_C@_1CK@OIHEELAO@?$AAR?$AAe?$AAs?$AAu?$AAl?$AAt?$AA?4?$AAI?$AAm?$AAa?$AAg?$AAe?$AAD?$AAr?$AAa@ 000000014007cd60     win32_layer.obj
 0002:00008d90       ??_C@_0BH@CJGNIGOD@Result?4ImageDrawTextEx@ 000000014007cd90     win32_layer.obj
 0002:00008da8       ??_C@_1CO@IIIMNAAG@?$AAR?$AAe?$AAs?$AAu?$AAl?$AAt?$AA?4?$AAI?$AAm?$AAa?$AAg?$AAe?$AAD?$AAr?$AAa@ 000000014007cda8     win32_layer.obj
 0002:00008dd8       ??_C@_0BD@BKIJCBNG@Result?4LoadTexture@ 000000014007cdd8     win32_layer.obj
 0002:00008df0       ??_C@_1CG@DIKIPFDP@?$AAR?$AAe?$AAs?$AAu?$AAl?$AAt?$AA?4?$AAL?$AAo?$AAa?$AAd?$AAT?$AAe?$AAx?$AAt@ 000000014007cdf0     win32_layer.obj
 0002:00008e18       ??_C@_0BM@NMCEONFI@Result?4LoadTextureFromImage@ 000000014007ce18     win32_layer.obj
 0002:00008e38       ??_C@_1DI@OJIDIAFH@?$AAR?$AAe?$AAs?$AAu?$AAl?$AAt?$AA?4?$AAL?$AAo?$AAa?$AAd?$AAT?$AAe?$AAx?$AAt@ 000000014007ce38     win32_layer.obj
 0002:00008e70       ??_C@_0BK@CFHLBOCF@Result?4LoadTextureCubemap@ 000000014007ce70     win32_layer.obj
 0002:00008e90       ??_C@_1DE@GPAEBJPH@?$AAR?$AAe?$AAs?$AAu?$AAl?$AAt?$AA?4?$AAL?$AAo?$AAa?$AAd?$AAT?$AAe?$AAx?$AAt@ 000000014007ce90     win32_layer.obj
 0002:00008ec8       ??_C@_0BJ@EDENOKGI@Result?4LoadRenderTexture@ 000000014007cec8     win32_layer.obj
 0002:00008ee8       ??_C@_1DC@BGNMFLCC@?$AAR?$AAe?$AAs?$AAu?$AAl?$AAt?$AA?4?$AAL?$AAo?$AAa?$AAd?$AAR?$AAe?$AAn?$AAd@ 000000014007cee8     win32_layer.obj
 0002:00008f20       ??_C@_0BF@OJBONLCM@Result?4UnloadTexture@ 000000014007cf20     win32_layer.obj
 0002:00008f38       ??_C@_1CK@MPIMPKIB@?$AAR?$AAe?$AAs?$AAu?$AAl?$AAt?$AA?4?$AAU?$AAn?$AAl?$AAo?$AAa?$AAd?$AAT?$AAe@ 000000014007cf38     win32_layer.obj
 0002:00008f68       ??_C@_0BL@GCNFIMHP@Result?4UnloadRenderTexture@ 000000014007cf68     win32_layer.obj
 0002:00008f88       ??_C@_1DG@KMNKCIOH@?$AAR?$AAe?$AAs?$AAu?$AAl?$AAt?$AA?4?$AAU?$AAn?$AAl?$AAo?$AAa?$AAd?$AAR?$AAe@ 000000014007cf88     win32_layer.obj
 0002:00008fc0       ??_C@_0BF@CFHJHCFB@Result?4UpdateTexture@ 000000014007cfc0     win32_layer.obj
 0002:00008fd8       ??_C@_1CK@DCIINMBB@?$AAR?$AAe?$AAs?$AAu?$AAl?$AAt?$AA?4?$AAU?$AAp?$AAd?$AAa?$AAt?$AAe?$AAT?$AAe@ 000000014007cfd8     win32_layer.obj
 0002:00009008       ??_C@_0BI@DIGGGAMI@Result?4UpdateTextureRec@ 000000014007d008     win32_layer.obj
 0002:00009020       ??_C@_1DA@ONCENOPD@?$AAR?$AAe?$AAs?$AAu?$AAl?$AAt?$AA?4?$AAU?$AAp?$AAd?$AAa?$AAt?$AAe?$AAT?$AAe@ 000000014007d020     win32_layer.obj
 0002:00009050       ??_C@_0BJ@JCNPJFEA@Result?4GenTextureMipmaps@ 000000014007d050     win32_layer.obj
 0002:00009070       ??_C@_1DC@GNINAIOJ@?$AAR?$AAe?$AAs?$AAu?$AAl?$AAt?$AA?4?$AAG?$AAe?$AAn?$AAT?$AAe?$AAx?$AAt?$AAu@ 000000014007d070     win32_layer.obj
 0002:000090a8       ??_C@_0BI@DMBKFLJD@Result?4SetTextureFilter@ 000000014007d0a8     win32_layer.obj
 0002:000090c0       ??_C@_1DA@EKEDEADL@?$AAR?$AAe?$AAs?$AAu?$AAl?$AAt?$AA?4?$AAS?$AAe?$AAt?$AAT?$AAe?$AAx?$AAt?$AAu@ 000000014007d0c0     win32_layer.obj
 0002:000090f0       ??_C@_0BG@FIIAPIMI@Result?4SetTextureWrap@ 000000014007d0f0     win32_layer.obj
 0002:00009108       ??_C@_1CM@CHKKHDGB@?$AAR?$AAe?$AAs?$AAu?$AAl?$AAt?$AA?4?$AAS?$AAe?$AAt?$AAT?$AAe?$AAx?$AAt?$AAu@ 000000014007d108     win32_layer.obj
 0002:00009138       ??_C@_0BJ@EOMILDN@Result?4DrawRenderTexture@ 000000014007d138     win32_layer.obj
 0002:00009158       ??_C@_1DC@DOGPHAKK@?$AAR?$AAe?$AAs?$AAu?$AAl?$AAt?$AA?4?$AAD?$AAr?$AAa?$AAw?$AAR?$AAe?$AAn?$AAd@ 000000014007d158     win32_layer.obj
 0002:00009190       ??_C@_0BD@OMKKKAFA@Result?4DrawTexture@ 000000014007d190     win32_layer.obj
 0002:000091a8       ??_C@_1CG@HFLNNDHK@?$AAR?$AAe?$AAs?$AAu?$AAl?$AAt?$AA?4?$AAD?$AAr?$AAa?$AAw?$AAT?$AAe?$AAx?$AAt@ 000000014007d1a8     win32_layer.obj
 0002:000091d0       ??_C@_0BE@IHGGABIG@Result?4DrawTextureV@ 000000014007d1d0     win32_layer.obj
 0002:000091e8       ??_C@_1CI@CEGMDHNB@?$AAR?$AAe?$AAs?$AAu?$AAl?$AAt?$AA?4?$AAD?$AAr?$AAa?$AAw?$AAT?$AAe?$AAx?$AAt@ 000000014007d1e8     win32_layer.obj
 0002:00009210       ??_C@_0BF@PNNKKOMD@Result?4DrawTextureEx@ 000000014007d210     win32_layer.obj
 0002:00009228       ??_C@_1CK@LFHINHL@?$AAR?$AAe?$AAs?$AAu?$AAl?$AAt?$AA?4?$AAD?$AAr?$AAa?$AAw?$AAT?$AAe?$AAx?$AAt@ 000000014007d228     win32_layer.obj
 0002:00009258       ??_C@_0CA@KNAFAPMK@Result?4DrawTextureRotatedScaled@ 000000014007d258     win32_layer.obj
 0002:00009280       ??_C@_1EA@KHHPMLKC@?$AAR?$AAe?$AAs?$AAu?$AAl?$AAt?$AA?4?$AAD?$AAr?$AAa?$AAw?$AAT?$AAe?$AAx?$AAt@ 000000014007d280     win32_layer.obj
 0002:000092c0       ??_C@_0BG@JFHACOMF@Result?4DrawTextureRec@ 000000014007d2c0     win32_layer.obj
 0002:000092d8       ??_C@_1CM@LPGHCFGN@?$AAR?$AAe?$AAs?$AAu?$AAl?$AAt?$AA?4?$AAD?$AAr?$AAa?$AAw?$AAT?$AAe?$AAx?$AAt@ 000000014007d2d8     win32_layer.obj
 0002:00009308       ??_C@_0BH@PODHBBJD@Result?4DrawTextureQuad@ 000000014007d308     win32_layer.obj
 0002:00009320       ??_C@_1CO@PFFHDFLN@?$AAR?$AAe?$AAs?$AAu?$AAl?$AAt?$AA?4?$AAD?$AAr?$AAa?$AAw?$AAT?$AAe?$AAx?$AAt@ 000000014007d320     win32_layer.obj
 0002:00009350       ??_C@_0BI@GOBMACJG@Result?4DrawTextureTiled@ 000000014007d350     win32_layer.obj
 0002:00009368       ??_C@_1DA@EGPEFBNH@?$AAR?$AAe?$AAs?$AAu?$AAl?$AAt?$AA?4?$AAD?$AAr?$AAa?$AAw?$AAT?$AAe?$AAx?$AAt@ 000000014007d368     win32_layer.obj
 0002:00009398       ??_C@_0BG@IKKFBMLH@Result?4DrawTexturePro@ 000000014007d398     win32_layer.obj
 0002:000093b0       ??_C@_1CM@KJEHKPIL@?$AAR?$AAe?$AAs?$AAu?$AAl?$AAt?$AA?4?$AAD?$AAr?$AAa?$AAw?$AAT?$AAe?$AAx?$AAt@ 000000014007d3b0     win32_layer.obj
 0002:000093e0       ??_C@_0BJ@EBIHLMPH@Result?4DrawTextureNPatch@ 000000014007d3e0     win32_layer.obj
 0002:00009400       ??_C@_1DC@EJGIMLHN@?$AAR?$AAe?$AAs?$AAu?$AAl?$AAt?$AA?4?$AAD?$AAr?$AAa?$AAw?$AAT?$AAe?$AAx?$AAt@ 000000014007d400     win32_layer.obj
 0002:00009438       ??_C@_0BH@LEHHAJH@Result?4DrawTexturePoly@ 000000014007d438     win32_layer.obj
 0002:00009450       ??_C@_1CO@OJADOPPM@?$AAR?$AAe?$AAs?$AAu?$AAl?$AAt?$AA?4?$AAD?$AAr?$AAa?$AAw?$AAT?$AAe?$AAx?$AAt@ 000000014007d450     win32_layer.obj
 0002:00009480       ??_C@_0M@HDBLJLGD@Result?4Fade@ 000000014007d480     win32_layer.obj
 0002:00009490       ??_C@_1BI@BEMLCOIJ@?$AAR?$AAe?$AAs?$AAu?$AAl?$AAt?$AA?4?$AAF?$AAa?$AAd?$AAe@ 000000014007d490     win32_layer.obj
 0002:000094a8       ??_C@_0BC@KEBDGJFD@Result?4ColorToInt@ 000000014007d4a8     win32_layer.obj
 0002:000094c0       ??_C@_1CE@BNIFHGEN@?$AAR?$AAe?$AAs?$AAu?$AAl?$AAt?$AA?4?$AAC?$AAo?$AAl?$AAo?$AAr?$AAT?$AAo?$AAI@ 000000014007d4c0     win32_layer.obj
 0002:000094e8       ??_C@_0BG@PPDCPBJO@Result?4ColorNormalize@ 000000014007d4e8     win32_layer.obj
 0002:00009500       ??_C@_1CM@LNNJEIPP@?$AAR?$AAe?$AAs?$AAu?$AAl?$AAt?$AA?4?$AAC?$AAo?$AAl?$AAo?$AAr?$AAN?$AAo?$AAr@ 000000014007d500     win32_layer.obj
 0002:00009530       ??_C@_0BL@PLCBFPDJ@Result?4ColorFromNormalized@ 000000014007d530     win32_layer.obj
 0002:00009550       ??_C@_1DG@DMAGIBJI@?$AAR?$AAe?$AAs?$AAu?$AAl?$AAt?$AA?4?$AAC?$AAo?$AAl?$AAo?$AAr?$AAF?$AAr?$AAo@ 000000014007d550     win32_layer.obj
 0002:00009588       ??_C@_0BC@JHKODONF@Result?4ColorToHSV@ 000000014007d588     win32_layer.obj
 0002:000095a0       ??_C@_1CE@GDPAAFBF@?$AAR?$AAe?$AAs?$AAu?$AAl?$AAt?$AA?4?$AAC?$AAo?$AAl?$AAo?$AAr?$AAT?$AAo?$AAH@ 000000014007d5a0     win32_layer.obj
 0002:000095c8       ??_C@_0BE@DDNMAJPJ@Result?4ColorFromHSV@ 000000014007d5c8     win32_layer.obj
 0002:000095e0       ??_C@_1CI@GBKGKBB@?$AAR?$AAe?$AAs?$AAu?$AAl?$AAt?$AA?4?$AAC?$AAo?$AAl?$AAo?$AAr?$AAF?$AAr?$AAo@ 000000014007d5e0     win32_layer.obj
 0002:00009608       ??_C@_0BC@OLDKNCG@Result?4ColorAlpha@ 000000014007d608     win32_layer.obj
 0002:00009620       ??_C@_1CE@EJBFFLEE@?$AAR?$AAe?$AAs?$AAu?$AAl?$AAt?$AA?4?$AAC?$AAo?$AAl?$AAo?$AAr?$AAA?$AAl?$AAp@ 000000014007d620     win32_layer.obj
 0002:00009648       ??_C@_0BH@PJGJAICI@Result?4ColorAlphaBlend@ 000000014007d648     win32_layer.obj
 0002:00009660       ??_C@_1CO@ILKMBKKE@?$AAR?$AAe?$AAs?$AAu?$AAl?$AAt?$AA?4?$AAC?$AAo?$AAl?$AAo?$AAr?$AAA?$AAl?$AAp@ 000000014007d660     win32_layer.obj
 0002:00009690       ??_C@_0BA@KJOFLLPC@Result?4GetColor@ 000000014007d690     win32_layer.obj
 0002:000096a0       ??_C@_1CA@IFIIEIG@?$AAR?$AAe?$AAs?$AAu?$AAl?$AAt?$AA?4?$AAG?$AAe?$AAt?$AAC?$AAo?$AAl?$AAo?$AAr@ 000000014007d6a0     win32_layer.obj
 0002:000096c0       ??_C@_0BF@PILAKCGK@Result?4GetPixelColor@ 000000014007d6c0     win32_layer.obj
 0002:000096d8       ??_C@_1CK@NFHCPGIK@?$AAR?$AAe?$AAs?$AAu?$AAl?$AAt?$AA?4?$AAG?$AAe?$AAt?$AAP?$AAi?$AAx?$AAe?$AAl@ 000000014007d6d8     win32_layer.obj
 0002:00009708       ??_C@_0BF@IHKOBBBN@Result?4SetPixelColor@ 000000014007d708     win32_layer.obj
 0002:00009720       ??_C@_1CK@MIPKNDCO@?$AAR?$AAe?$AAs?$AAu?$AAl?$AAt?$AA?4?$AAS?$AAe?$AAt?$AAP?$AAi?$AAx?$AAe?$AAl@ 000000014007d720     win32_layer.obj
 0002:00009750       ??_C@_0BI@PGKDCDJC@Result?4GetPixelDataSize@ 000000014007d750     win32_layer.obj
 0002:00009768       ??_C@_1DA@IGCHPKOM@?$AAR?$AAe?$AAs?$AAu?$AAl?$AAt?$AA?4?$AAG?$AAe?$AAt?$AAP?$AAi?$AAx?$AAe?$AAl@ 000000014007d768     win32_layer.obj
 0002:00009798       ??_C@_0BG@MCKHIGJ@Result?4GetFontDefault@ 000000014007d798     win32_layer.obj
 0002:000097b0       ??_C@_1CM@IECGEGMA@?$AAR?$AAe?$AAs?$AAu?$AAl?$AAt?$AA?4?$AAG?$AAe?$AAt?$AAF?$AAo?$AAn?$AAt?$AAD@ 000000014007d7b0     win32_layer.obj
 0002:000097e0       ??_C@_0BA@BMMDJACK@Result?4LoadFont@ 000000014007d7e0     win32_layer.obj
 0002:000097f0       ??_C@_1CA@FMHEIODC@?$AAR?$AAe?$AAs?$AAu?$AAl?$AAt?$AA?4?$AAL?$AAo?$AAa?$AAd?$AAF?$AAo?$AAn?$AAt@ 000000014007d7f0     win32_layer.obj
 0002:00009810       ??_C@_0BC@ONDPPHK@Result?4LoadFontEx@ 000000014007d810     win32_layer.obj
 0002:00009828       ??_C@_1CE@GJBJLECB@?$AAR?$AAe?$AAs?$AAu?$AAl?$AAt?$AA?4?$AAL?$AAo?$AAa?$AAd?$AAF?$AAo?$AAn?$AAt@ 000000014007d828     win32_layer.obj
 0002:00009850       ??_C@_0BJ@IAJIMCMF@Result?4LoadFontFromImage@ 000000014007d850     win32_layer.obj
 0002:00009870       ??_C@_1DC@DANCEDAN@?$AAR?$AAe?$AAs?$AAu?$AAl?$AAt?$AA?4?$AAL?$AAo?$AAa?$AAd?$AAF?$AAo?$AAn?$AAt@ 000000014007d870     win32_layer.obj
 0002:000098a8       ??_C@_0BK@BEECLKCH@Result?4LoadFontFromMemory@ 000000014007d8a8     win32_layer.obj
 0002:000098c8       ??_C@_1DE@IEOGIBFO@?$AAR?$AAe?$AAs?$AAu?$AAl?$AAt?$AA?4?$AAL?$AAo?$AAa?$AAd?$AAF?$AAo?$AAn?$AAt@ 000000014007d8c8     win32_layer.obj
 0002:00009900       ??_C@_0BE@MHLNNLON@Result?4LoadFontData@ 000000014007d900     win32_layer.obj
 0002:00009918       ??_C@_1CI@OKKIHAPM@?$AAR?$AAe?$AAs?$AAu?$AAl?$AAt?$AA?4?$AAL?$AAo?$AAa?$AAd?$AAF?$AAo?$AAn?$AAt@ 000000014007d918     win32_layer.obj
 0002:00009940       ??_C@_0BJ@DHJGDBMG@Result?4GenImageFontAtlas@ 000000014007d940     win32_layer.obj
 0002:00009960       ??_C@_1DC@DNOKKDML@?$AAR?$AAe?$AAs?$AAu?$AAl?$AAt?$AA?4?$AAG?$AAe?$AAn?$AAI?$AAm?$AAa?$AAg?$AAe@ 000000014007d960     win32_layer.obj
 0002:00009998       ??_C@_0BG@JKCGFHBF@Result?4UnloadFontData@ 000000014007d998     win32_layer.obj
 0002:000099b0       ??_C@_1CM@FBBJHP@?$AAR?$AAe?$AAs?$AAu?$AAl?$AAt?$AA?4?$AAU?$AAn?$AAl?$AAo?$AAa?$AAd?$AAF?$AAo@ 000000014007d9b0     win32_layer.obj
 0002:000099e0       ??_C@_0BC@BGFGDAIM@Result?4UnloadFont@ 000000014007d9e0     win32_layer.obj
 0002:000099f8       ??_C@_1CE@CBEPDBLC@?$AAR?$AAe?$AAs?$AAu?$AAl?$AAt?$AA?4?$AAU?$AAn?$AAl?$AAo?$AAa?$AAd?$AAF?$AAo@ 000000014007d9f8     win32_layer.obj
 0002:00009a20       ??_C@_0BI@NMLDAEKN@Result?4ExportFontAsCode@ 000000014007da20     win32_layer.obj
 0002:00009a38       ??_C@_1DA@IGEJPML@?$AAR?$AAe?$AAs?$AAu?$AAl?$AAt?$AA?4?$AAE?$AAx?$AAp?$AAo?$AAr?$AAt?$AAF?$AAo@ 000000014007da38     win32_layer.obj
 0002:00009a68       ??_C@_0P@EPOKBMIO@Result?4DrawFPS@ 000000014007da68     win32_layer.obj
 0002:00009a78       ??_C@_1BO@OBGCMPBO@?$AAR?$AAe?$AAs?$AAu?$AAl?$AAt?$AA?4?$AAD?$AAr?$AAa?$AAw?$AAF?$AAP?$AAS@ 000000014007da78     win32_layer.obj
 0002:00009a98       ??_C@_0BD@OBIDOFIA@Result?4RL_DrawText@ 000000014007da98     win32_layer.obj
 0002:00009ab0       ??_C@_1CG@HPNOPAIC@?$AAR?$AAe?$AAs?$AAu?$AAl?$AAt?$AA?4?$AAR?$AAL?$AA_?$AAD?$AAr?$AAa?$AAw?$AAT@ 000000014007dab0     win32_layer.obj
 0002:00009ad8       ??_C@_0BF@HKFENDOK@Result?4RL_DrawTextEx@ 000000014007dad8     win32_layer.obj
 0002:00009af0       ??_C@_1CK@NMILJKPA@?$AAR?$AAe?$AAs?$AAu?$AAl?$AAt?$AA?4?$AAR?$AAL?$AA_?$AAD?$AAr?$AAa?$AAw?$AAT@ 000000014007daf0     win32_layer.obj
 0002:00009b20       ??_C@_0BD@IBKJBHNG@Result?4DrawTextPro@ 000000014007db20     win32_layer.obj
 0002:00009b38       ??_C@_1CG@KLJGFPCM@?$AAR?$AAe?$AAs?$AAu?$AAl?$AAt?$AA?4?$AAD?$AAr?$AAa?$AAw?$AAT?$AAe?$AAx?$AAt@ 000000014007db38     win32_layer.obj
 0002:00009b60       ??_C@_0BJ@IMLFHMEN@Result?4DrawTextCodepoint@ 000000014007db60     win32_layer.obj
 0002:00009b80       ??_C@_1DC@IBFKNIJJ@?$AAR?$AAe?$AAs?$AAu?$AAl?$AAt?$AA?4?$AAD?$AAr?$AAa?$AAw?$AAT?$AAe?$AAx?$AAt@ 000000014007db80     win32_layer.obj
 0002:00009bb8       ??_C@_0BK@MPDKCGE@Result?4DrawTextCodepoints@ 000000014007dbb8     win32_layer.obj
 0002:00009bd8       ??_C@_1DE@FBABOFJN@?$AAR?$AAe?$AAs?$AAu?$AAl?$AAt?$AA?4?$AAD?$AAr?$AAa?$AAw?$AAT?$AAe?$AAx?$AAt@ 000000014007dbd8     win32_layer.obj
 0002:00009c10       ??_C@_0BD@EMFJBFBF@Result?4MeasureText@ 000000014007dc10     win32_layer.obj
 0002:00009c28       ??_C@_1CG@LDFEJINB@?$AAR?$AAe?$AAs?$AAu?$AAl?$AAt?$AA?4?$AAM?$AAe?$AAa?$AAs?$AAu?$AAr?$AAe?$AAT@ 000000014007dc28     win32_layer.obj
 0002:00009c50       ??_C@_0BF@MLNPPCHD@Result?4MeasureTextEx@ 000000014007dc50     win32_layer.obj
 0002:00009c68       ??_C@_1CK@BAEJFOHO@?$AAR?$AAe?$AAs?$AAu?$AAl?$AAt?$AA?4?$AAM?$AAe?$AAa?$AAs?$AAu?$AAr?$AAe?$AAT@ 000000014007dc68     win32_layer.obj
 0002:00009c98       ??_C@_0BF@OAAMPIBM@Result?4GetGlyphIndex@ 000000014007dc98     win32_layer.obj
 0002:00009cb0       ??_C@_1CK@EAGANDAO@?$AAR?$AAe?$AAs?$AAu?$AAl?$AAt?$AA?4?$AAG?$AAe?$AAt?$AAG?$AAl?$AAy?$AAp?$AAh@ 000000014007dcb0     win32_layer.obj
 0002:00009ce0       ??_C@_0BE@HOKEMHOA@Result?4GetGlyphInfo@ 000000014007dce0     win32_layer.obj
 0002:00009cf8       ??_C@_1CI@MNJKEOKC@?$AAR?$AAe?$AAs?$AAu?$AAl?$AAt?$AA?4?$AAG?$AAe?$AAt?$AAG?$AAl?$AAy?$AAp?$AAh@ 000000014007dcf8     win32_layer.obj
 0002:00009d20       ??_C@_0BI@CICKDJHH@Result?4GetGlyphAtlasRec@ 000000014007dd20     win32_layer.obj
 0002:00009d38       ??_C@_1DA@BEDANIIF@?$AAR?$AAe?$AAs?$AAu?$AAl?$AAt?$AA?4?$AAG?$AAe?$AAt?$AAG?$AAl?$AAy?$AAp?$AAh@ 000000014007dd38     win32_layer.obj
 0002:00009d68       ??_C@_0BG@FPGGBPME@Result?4LoadCodepoints@ 000000014007dd68     win32_layer.obj
 0002:00009d80       ??_C@_1CM@BGABCBGI@?$AAR?$AAe?$AAs?$AAu?$AAl?$AAt?$AA?4?$AAL?$AAo?$AAa?$AAd?$AAC?$AAo?$AAd?$AAe@ 000000014007dd80     win32_layer.obj
 0002:00009db0       ??_C@_0BI@GHANOGOB@Result?4UnloadCodepoints@ 000000014007ddb0     win32_layer.obj
 0002:00009dc8       ??_C@_1DA@CLEKJJIA@?$AAR?$AAe?$AAs?$AAu?$AAl?$AAt?$AA?4?$AAU?$AAn?$AAl?$AAo?$AAa?$AAd?$AAC?$AAo@ 000000014007ddc8     win32_layer.obj
 0002:00009df8       ??_C@_0BJ@HOHANGCN@Result?4GetCodepointCount@ 000000014007ddf8     win32_layer.obj
 0002:00009e18       ??_C@_1DC@JOEONCBJ@?$AAR?$AAe?$AAs?$AAu?$AAl?$AAt?$AA?4?$AAG?$AAe?$AAt?$AAC?$AAo?$AAd?$AAe?$AAp@ 000000014007de18     win32_layer.obj
 0002:00009e50       ??_C@_0BE@HGMDEAF@Result?4GetCodepoint@ 000000014007de50     win32_layer.obj
 0002:00009e68       ??_C@_1CI@ENFEOFCA@?$AAR?$AAe?$AAs?$AAu?$AAl?$AAt?$AA?4?$AAG?$AAe?$AAt?$AAC?$AAo?$AAd?$AAe?$AAp@ 000000014007de68     win32_layer.obj
 0002:00009e90       ??_C@_0BH@OEBOOAJL@Result?4CodepointToUTF8@ 000000014007de90     win32_layer.obj
 0002:00009ea8       ??_C@_1CO@BPDJPIJE@?$AAR?$AAe?$AAs?$AAu?$AAl?$AAt?$AA?4?$AAC?$AAo?$AAd?$AAe?$AAp?$AAo?$AAi?$AAn@ 000000014007dea8     win32_layer.obj
 0002:00009ed8       ??_C@_0BM@DCOJDJCE@Result?4TextCodepointsToUTF8@ 000000014007ded8     win32_layer.obj
 0002:00009ef8       ??_C@_1DI@NEMGEMHI@?$AAR?$AAe?$AAs?$AAu?$AAl?$AAt?$AA?4?$AAT?$AAe?$AAx?$AAt?$AAC?$AAo?$AAd?$AAe@ 000000014007def8     win32_layer.obj
 0002:00009f30       ??_C@_0BA@HNMIEK@Result?4TextCopy@ 000000014007df30     win32_layer.obj
 0002:00009f40       ??_C@_1CA@HIFGJIKI@?$AAR?$AAe?$AAs?$AAu?$AAl?$AAt?$AA?4?$AAT?$AAe?$AAx?$AAt?$AAC?$AAo?$AAp?$AAy@ 000000014007df40     win32_layer.obj
 0002:00009f60       ??_C@_0BD@NJFPLKGO@Result?4TextIsEqual@ 000000014007df60     win32_layer.obj
 0002:00009f78       ??_C@_1CG@NBPMILPJ@?$AAR?$AAe?$AAs?$AAu?$AAl?$AAt?$AA?4?$AAT?$AAe?$AAx?$AAt?$AAI?$AAs?$AAE?$AAq@ 000000014007df78     win32_layer.obj
 0002:00009fa0       ??_C@_0BC@FJDAJGJD@Result?4TextLength@ 000000014007dfa0     win32_layer.obj
 0002:00009fb8       ??_C@_1CE@ELDEIFJA@?$AAR?$AAe?$AAs?$AAu?$AAl?$AAt?$AA?4?$AAT?$AAe?$AAx?$AAt?$AAL?$AAe?$AAn?$AAg@ 000000014007dfb8     win32_layer.obj
 0002:00009fe0       ??_C@_0BD@EEEIEPHA@Result?4TextSubtext@ 000000014007dfe0     win32_layer.obj
 0002:00009ff8       ??_C@_1CG@HMOFKAMG@?$AAR?$AAe?$AAs?$AAu?$AAl?$AAt?$AA?4?$AAT?$AAe?$AAx?$AAt?$AAS?$AAu?$AAb?$AAt@ 000000014007dff8     win32_layer.obj
 0002:0000a020       ??_C@_0BD@DNHKFECF@Result?4TextReplace@ 000000014007e020     win32_layer.obj
 0002:0000a038       ??_C@_1CG@GFJLHDBM@?$AAR?$AAe?$AAs?$AAu?$AAl?$AAt?$AA?4?$AAT?$AAe?$AAx?$AAt?$AAR?$AAe?$AAp?$AAl@ 000000014007e038     win32_layer.obj
 0002:0000a060       ??_C@_0BC@LBEMPDKA@Result?4TextInsert@ 000000014007e060     win32_layer.obj
 0002:0000a078       ??_C@_1CE@OCOGEJOM@?$AAR?$AAe?$AAs?$AAu?$AAl?$AAt?$AA?4?$AAT?$AAe?$AAx?$AAt?$AAI?$AAn?$AAs?$AAe@ 000000014007e078     win32_layer.obj
 0002:0000a0a0       ??_C@_0BA@BLBJLGFC@Result?4TextJoin@ 000000014007e0a0     win32_layer.obj
 0002:0000a0b0       ??_C@_1CA@GNFEIPBH@?$AAR?$AAe?$AAs?$AAu?$AAl?$AAt?$AA?4?$AAT?$AAe?$AAx?$AAt?$AAJ?$AAo?$AAi?$AAn@ 000000014007e0b0     win32_layer.obj
 0002:0000a0d0       ??_C@_0BB@DKNFCACL@Result?4TextSplit@ 000000014007e0d0     win32_layer.obj
 0002:0000a0e8       ??_C@_1CC@IOCIHDGM@?$AAR?$AAe?$AAs?$AAu?$AAl?$AAt?$AA?4?$AAT?$AAe?$AAx?$AAt?$AAS?$AAp?$AAl?$AAi@ 000000014007e0e8     win32_layer.obj
 0002:0000a110       ??_C@_0BC@KDCBOMLJ@Result?4TextAppend@ 000000014007e110     win32_layer.obj
 0002:0000a128       ??_C@_1CE@PLKMEHEE@?$AAR?$AAe?$AAs?$AAu?$AAl?$AAt?$AA?4?$AAT?$AAe?$AAx?$AAt?$AAA?$AAp?$AAp?$AAe@ 000000014007e128     win32_layer.obj
 0002:0000a150       ??_C@_0BF@BEHDBJDC@Result?4TextFindIndex@ 000000014007e150     win32_layer.obj
 0002:0000a168       ??_C@_1CK@HFOACHOP@?$AAR?$AAe?$AAs?$AAu?$AAl?$AAt?$AA?4?$AAT?$AAe?$AAx?$AAt?$AAF?$AAi?$AAn?$AAd@ 000000014007e168     win32_layer.obj
 0002:0000a198       ??_C@_0BD@EELPCEDE@Result?4TextToUpper@ 000000014007e198     win32_layer.obj
 0002:0000a1b0       ??_C@_1CG@PCLLLAGD@?$AAR?$AAe?$AAs?$AAu?$AAl?$AAt?$AA?4?$AAT?$AAe?$AAx?$AAt?$AAT?$AAo?$AAU?$AAp@ 000000014007e1b0     win32_layer.obj
 0002:0000a1d8       ??_C@_0BD@BPABEPIN@Result?4TextToLower@ 000000014007e1d8     win32_layer.obj
 0002:0000a1f0       ??_C@_1CG@LPGKLEHC@?$AAR?$AAe?$AAs?$AAu?$AAl?$AAt?$AA?4?$AAT?$AAe?$AAx?$AAt?$AAT?$AAo?$AAL?$AAo@ 000000014007e1f0     win32_layer.obj
 0002:0000a218       ??_C@_0BE@OKBKJIG@Result?4TextToPascal@ 000000014007e218     win32_layer.obj
 0002:0000a230       ??_C@_1CI@EPEFDMKH@?$AAR?$AAe?$AAs?$AAu?$AAl?$AAt?$AA?4?$AAT?$AAe?$AAx?$AAt?$AAT?$AAo?$AAP?$AAa@ 000000014007e230     win32_layer.obj
 0002:0000a258       ??_C@_0BF@DEJPGHGK@Result?4TextToInteger@ 000000014007e258     win32_layer.obj
 0002:0000a270       ??_C@_1CK@PKDBDEMK@?$AAR?$AAe?$AAs?$AAu?$AAl?$AAt?$AA?4?$AAT?$AAe?$AAx?$AAt?$AAT?$AAo?$AAI?$AAn@ 000000014007e270     win32_layer.obj
 0002:0000a2a0       ??_C@_0BC@CNHHMDBL@Result?4DrawLine3D@ 000000014007e2a0     win32_layer.obj
 0002:0000a2b8       ??_C@_1CE@KDLPFCMO@?$AAR?$AAe?$AAs?$AAu?$AAl?$AAt?$AA?4?$AAD?$AAr?$AAa?$AAw?$AAL?$AAi?$AAn?$AAe@ 000000014007e2b8     win32_layer.obj
 0002:0000a2e0       ??_C@_0BD@GLDBDKII@Result?4DrawPoint3D@ 000000014007e2e0     win32_layer.obj
 0002:0000a2f8       ??_C@_1CG@MEKKOENI@?$AAR?$AAe?$AAs?$AAu?$AAl?$AAt?$AA?4?$AAD?$AAr?$AAa?$AAw?$AAP?$AAo?$AAi?$AAn@ 000000014007e2f8     win32_layer.obj
 0002:0000a320       ??_C@_0BE@BCDAOOBI@Result?4DrawCircle3D@ 000000014007e320     win32_layer.obj
 0002:0000a338       ??_C@_1CI@GLHGIKGD@?$AAR?$AAe?$AAs?$AAu?$AAl?$AAt?$AA?4?$AAD?$AAr?$AAa?$AAw?$AAC?$AAi?$AAr?$AAc@ 000000014007e338     win32_layer.obj
 0002:0000a360       ??_C@_0BG@DLDIMEDL@Result?4DrawTriangle3D@ 000000014007e360     win32_layer.obj
 0002:0000a378       ??_C@_1CM@MKHELBAE@?$AAR?$AAe?$AAs?$AAu?$AAl?$AAt?$AA?4?$AAD?$AAr?$AAa?$AAw?$AAT?$AAr?$AAi?$AAa@ 000000014007e378     win32_layer.obj
 0002:0000a3a8       ??_C@_0BL@EKFDGGJN@Result?4DrawTriangleStrip3D@ 000000014007e3a8     win32_layer.obj
 0002:0000a3c8       ??_C@_1DG@FLFPPJBA@?$AAR?$AAe?$AAs?$AAu?$AAl?$AAt?$AA?4?$AAD?$AAr?$AAa?$AAw?$AAT?$AAr?$AAi?$AAa@ 000000014007e3c8     win32_layer.obj
 0002:0000a400       ??_C@_0BA@GIGAIEAC@Result?4DrawCube@ 000000014007e400     win32_layer.obj
 0002:0000a410       ??_C@_1CA@ELPLHFND@?$AAR?$AAe?$AAs?$AAu?$AAl?$AAt?$AA?4?$AAD?$AAr?$AAa?$AAw?$AAC?$AAu?$AAb?$AAe@ 000000014007e410     win32_layer.obj
 0002:0000a430       ??_C@_0BB@CIHPLHK@Result?4DrawCubeV@ 000000014007e430     win32_layer.obj
 0002:0000a448       ??_C@_1CC@GEBMAIOK@?$AAR?$AAe?$AAs?$AAu?$AAl?$AAt?$AA?4?$AAD?$AAr?$AAa?$AAw?$AAC?$AAu?$AAb?$AAe@ 000000014007e448     win32_layer.obj
 0002:0000a470       ??_C@_0BF@PDJJDOBJ@Result?4DrawCubeWires@ 000000014007e470     win32_layer.obj
 0002:0000a488       ??_C@_1CK@EAMIAAAA@?$AAR?$AAe?$AAs?$AAu?$AAl?$AAt?$AA?4?$AAD?$AAr?$AAa?$AAw?$AAC?$AAu?$AAb?$AAe@ 000000014007e488     win32_layer.obj
 0002:0000a4b8       ??_C@_0BG@IIHJMLCM@Result?4DrawCubeWiresV@ 000000014007e4b8     win32_layer.obj
 0002:0000a4d0       ??_C@_1CM@OOGGBALG@?$AAR?$AAe?$AAs?$AAu?$AAl?$AAt?$AA?4?$AAD?$AAr?$AAa?$AAw?$AAC?$AAu?$AAb?$AAe@ 000000014007e4d0     win32_layer.obj
 0002:0000a500       ??_C@_0BH@IFMBMLOJ@Result?4DrawCubeTexture@ 000000014007e500     win32_layer.obj
 0002:0000a518       ??_C@_1CO@NIOEJJMC@?$AAR?$AAe?$AAs?$AAu?$AAl?$AAt?$AA?4?$AAD?$AAr?$AAa?$AAw?$AAC?$AAu?$AAb?$AAe@ 000000014007e518     win32_layer.obj
 0002:0000a548       ??_C@_0BK@DJGOBIP@Result?4DrawCubeTextureRec@ 000000014007e548     win32_layer.obj
 0002:0000a568       ??_C@_1DE@DMBIHKIG@?$AAR?$AAe?$AAs?$AAu?$AAl?$AAt?$AA?4?$AAD?$AAr?$AAa?$AAw?$AAC?$AAu?$AAb?$AAe@ 000000014007e568     win32_layer.obj
 0002:0000a5a0       ??_C@_0BC@OKLPHLNL@Result?4DrawSphere@ 000000014007e5a0     win32_layer.obj
 0002:0000a5b8       ??_C@_1CE@NDLMGMOM@?$AAR?$AAe?$AAs?$AAu?$AAl?$AAt?$AA?4?$AAD?$AAr?$AAa?$AAw?$AAS?$AAp?$AAh?$AAe@ 000000014007e5b8     win32_layer.obj
 0002:0000a5e0       ??_C@_0BE@DEKMOCAK@Result?4DrawSphereEx@ 000000014007e5e0     win32_layer.obj
 0002:0000a5f8       ??_C@_1CI@HLNALNLC@?$AAR?$AAe?$AAs?$AAu?$AAl?$AAt?$AA?4?$AAD?$AAr?$AAa?$AAw?$AAS?$AAp?$AAh?$AAe@ 000000014007e5f8     win32_layer.obj
 0002:0000a620       ??_C@_0BH@CGBJKNAE@Result?4DrawSphereWires@ 000000014007e620     win32_layer.obj
 0002:0000a638       ??_C@_1CO@CGCMNODA@?$AAR?$AAe?$AAs?$AAu?$AAl?$AAt?$AA?4?$AAD?$AAr?$AAa?$AAw?$AAS?$AAp?$AAh?$AAe@ 000000014007e638     win32_layer.obj
 0002:0000a668       ??_C@_0BE@NLKAOMLE@Result?4DrawCylinder@ 000000014007e668     win32_layer.obj
 0002:0000a680       ??_C@_1CI@NIHKJEE@?$AAR?$AAe?$AAs?$AAu?$AAl?$AAt?$AA?4?$AAD?$AAr?$AAa?$AAw?$AAC?$AAy?$AAl?$AAi@ 000000014007e680     win32_layer.obj
 0002:0000a6a8       ??_C@_0BG@LIKCKCJK@Result?4DrawCylinderEx@ 000000014007e6a8     win32_layer.obj
 0002:0000a6c0       ??_C@_1CM@DJLCMIBI@?$AAR?$AAe?$AAs?$AAu?$AAl?$AAt?$AA?4?$AAD?$AAr?$AAa?$AAw?$AAC?$AAy?$AAl?$AAi@ 000000014007e6c0     win32_layer.obj
 0002:0000a6f0       ??_C@_0BJ@MMMLHHHK@Result?4DrawCylinderWires@ 000000014007e6f0     win32_layer.obj
 0002:0000a710       ??_C@_1DC@ENKIOFCB@?$AAR?$AAe?$AAs?$AAu?$AAl?$AAt?$AA?4?$AAD?$AAr?$AAa?$AAw?$AAC?$AAy?$AAl?$AAi@ 000000014007e710     win32_layer.obj
 0002:0000a748       ??_C@_0BL@IKAGAFPN@Result?4DrawCylinderWiresEx@ 000000014007e748     win32_layer.obj
 0002:0000a768       ??_C@_1DG@CIAKMCHA@?$AAR?$AAe?$AAs?$AAu?$AAl?$AAt?$AA?4?$AAD?$AAr?$AAa?$AAw?$AAC?$AAy?$AAl?$AAi@ 000000014007e768     win32_layer.obj
 0002:0000a7a0       ??_C@_0BB@LOFLID@Result?4DrawPlane@ 000000014007e7a0     win32_layer.obj
 0002:0000a7b8       ??_C@_1CC@MCPHDNKL@?$AAR?$AAe?$AAs?$AAu?$AAl?$AAt?$AA?4?$AAD?$AAr?$AAa?$AAw?$AAP?$AAl?$AAa?$AAn@ 000000014007e7b8     win32_layer.obj
 0002:0000a7e0       ??_C@_0P@NKFDJPMJ@Result?4DrawRay@ 000000014007e7e0     win32_layer.obj
 0002:0000a7f0       ??_C@_1BO@BJDKGLJN@?$AAR?$AAe?$AAs?$AAu?$AAl?$AAt?$AA?4?$AAD?$AAr?$AAa?$AAw?$AAR?$AAa?$AAy@ 000000014007e7f0     win32_layer.obj
 0002:0000a810       ??_C@_0BA@BFHJMENL@Result?4DrawGrid@ 000000014007e810     win32_layer.obj
 0002:0000a820       ??_C@_1CA@JKKOELBG@?$AAR?$AAe?$AAs?$AAu?$AAl?$AAt?$AA?4?$AAD?$AAr?$AAa?$AAw?$AAG?$AAr?$AAi?$AAd@ 000000014007e820     win32_layer.obj
 0002:0000a840       ??_C@_0BB@KHBPHAN@Result?4LoadModel@ 000000014007e840     win32_layer.obj
 0002:0000a858       ??_C@_1CC@LOFIIHGB@?$AAR?$AAe?$AAs?$AAu?$AAl?$AAt?$AA?4?$AAL?$AAo?$AAa?$AAd?$AAM?$AAo?$AAd?$AAe@ 000000014007e858     win32_layer.obj
 0002:0000a880       ??_C@_0BJ@GNHDLHME@Result?4LoadModelFromMesh@ 000000014007e880     win32_layer.obj
 0002:0000a8a0       ??_C@_1DC@LOAHMHO@?$AAR?$AAe?$AAs?$AAu?$AAl?$AAt?$AA?4?$AAL?$AAo?$AAa?$AAd?$AAM?$AAo?$AAd?$AAe@ 000000014007e8a0     win32_layer.obj
 0002:0000a8d8       ??_C@_0BD@DFMOGEHA@Result?4UnloadModel@ 000000014007e8d8     win32_layer.obj
 0002:0000a8f0       ??_C@_1CG@NOAFMMAM@?$AAR?$AAe?$AAs?$AAu?$AAl?$AAt?$AA?4?$AAU?$AAn?$AAl?$AAo?$AAa?$AAd?$AAM?$AAo@ 000000014007e8f0     win32_layer.obj
 0002:0000a918       ??_C@_0BN@GNLJGCHJ@Result?4UnloadModelKeepMeshes@ 000000014007e918     win32_layer.obj
 0002:0000a938       ??_C@_1DK@FKHOKNHD@?$AAR?$AAe?$AAs?$AAu?$AAl?$AAt?$AA?4?$AAU?$AAn?$AAl?$AAo?$AAa?$AAd?$AAM?$AAo@ 000000014007e938     win32_layer.obj
 0002:0000a978       ??_C@_0BL@CNMHAAKO@Result?4GetModelBoundingBox@ 000000014007e978     win32_layer.obj
 0002:0000a998       ??_C@_1DG@PEFLKDKK@?$AAR?$AAe?$AAs?$AAu?$AAl?$AAt?$AA?4?$AAG?$AAe?$AAt?$AAM?$AAo?$AAd?$AAe?$AAl@ 000000014007e998     win32_layer.obj
 0002:0000a9d0       ??_C@_0BB@BCBPJEIM@Result?4DrawModel@ 000000014007e9d0     win32_layer.obj
 0002:0000a9e8       ??_C@_1CC@OEFINLJH@?$AAR?$AAe?$AAs?$AAu?$AAl?$AAt?$AA?4?$AAD?$AAr?$AAa?$AAw?$AAM?$AAo?$AAd?$AAe@ 000000014007e9e8     win32_layer.obj
 0002:0000aa10       ??_C@_0BD@PBODCONA@Result?4DrawModelEx@ 000000014007ea10     win32_layer.obj
 0002:0000aa28       ??_C@_1CG@IFFAOBFN@?$AAR?$AAe?$AAs?$AAu?$AAl?$AAt?$AA?4?$AAD?$AAr?$AAa?$AAw?$AAM?$AAo?$AAd?$AAe@ 000000014007ea28     win32_layer.obj
 0002:0000aa50       ??_C@_0BG@CHCLNJGE@Result?4DrawModelWires@ 000000014007ea50     win32_layer.obj
 0002:0000aa68       ??_C@_1CM@GONOLNEM@?$AAR?$AAe?$AAs?$AAu?$AAl?$AAt?$AA?4?$AAD?$AAr?$AAa?$AAw?$AAM?$AAo?$AAd?$AAe@ 000000014007ea68     win32_layer.obj
 0002:0000aa98       ??_C@_0BI@GPCJFPCN@Result?4DrawModelWiresEx@ 000000014007ea98     win32_layer.obj
 0002:0000aab0       ??_C@_1DA@FIOLDNKE@?$AAR?$AAe?$AAs?$AAu?$AAl?$AAt?$AA?4?$AAD?$AAr?$AAa?$AAw?$AAM?$AAo?$AAd?$AAe@ 000000014007eab0     win32_layer.obj
 0002:0000aae0       ??_C@_0BH@CDNGLGHP@Result?4DrawBoundingBox@ 000000014007eae0     win32_layer.obj
 0002:0000aaf8       ??_C@_1CO@PNBCEFKG@?$AAR?$AAe?$AAs?$AAu?$AAl?$AAt?$AA?4?$AAD?$AAr?$AAa?$AAw?$AAB?$AAo?$AAu?$AAn@ 000000014007eaf8     win32_layer.obj
 0002:0000ab28       ??_C@_0BF@FDAMBJAP@Result?4DrawBillboard@ 000000014007eb28     win32_layer.obj
 0002:0000ab40       ??_C@_1CK@DJJMENCB@?$AAR?$AAe?$AAs?$AAu?$AAl?$AAt?$AA?4?$AAD?$AAr?$AAa?$AAw?$AAB?$AAi?$AAl?$AAl@ 000000014007eb40     win32_layer.obj
 0002:0000ab70       ??_C@_0BI@PICCFENL@Result?4DrawBillboardRec@ 000000014007eb70     win32_layer.obj
 0002:0000ab88       ??_C@_1DA@NGBGPINH@?$AAR?$AAe?$AAs?$AAu?$AAl?$AAt?$AA?4?$AAD?$AAr?$AAa?$AAw?$AAB?$AAi?$AAl?$AAl@ 000000014007eb88     win32_layer.obj
 0002:0000abb8       ??_C@_0BI@OHPHGGKJ@Result?4DrawBillboardPro@ 000000014007ebb8     win32_layer.obj
 0002:0000abd0       ??_C@_1DA@MADGHCDB@?$AAR?$AAe?$AAs?$AAu?$AAl?$AAt?$AA?4?$AAD?$AAr?$AAa?$AAw?$AAB?$AAi?$AAl?$AAl@ 000000014007ebd0     win32_layer.obj
 0002:0000ac00       ??_C@_0BC@MFNFDNNM@Result?4UploadMesh@ 000000014007ec00     win32_layer.obj
 0002:0000ac18       ??_C@_1CE@BENGMPKN@?$AAR?$AAe?$AAs?$AAu?$AAl?$AAt?$AA?4?$AAU?$AAp?$AAl?$AAo?$AAa?$AAd?$AAM?$AAe@ 000000014007ec18     win32_layer.obj
 0002:0000ac40       ??_C@_0BI@FPGNLNGN@Result?4UpdateMeshBuffer@ 000000014007ec40     win32_layer.obj
 0002:0000ac58       ??_C@_1DA@OOPMJJMP@?$AAR?$AAe?$AAs?$AAu?$AAl?$AAt?$AA?4?$AAU?$AAp?$AAd?$AAa?$AAt?$AAe?$AAM?$AAe@ 000000014007ec58     win32_layer.obj
 0002:0000ac88       ??_C@_0BC@PMLCIMIH@Result?4UnloadMesh@ 000000014007ec88     win32_layer.obj
 0002:0000aca0       ??_C@_1CE@ONOICPOP@?$AAR?$AAe?$AAs?$AAu?$AAl?$AAt?$AA?4?$AAU?$AAn?$AAl?$AAo?$AAa?$AAd?$AAM?$AAe@ 000000014007eca0     win32_layer.obj
 0002:0000acc8       ??_C@_0BA@CPADNKPG@Result?4DrawMesh@ 000000014007ecc8     win32_layer.obj
 0002:0000acd8       ??_C@_1CA@BDGJHNKI@?$AAR?$AAe?$AAs?$AAu?$AAl?$AAt?$AA?4?$AAD?$AAr?$AAa?$AAw?$AAM?$AAe?$AAs?$AAh@ 000000014007ecd8     win32_layer.obj
 0002:0000acf8       ??_C@_0BJ@PKGBIDPL@Result?4DrawMeshInstanced@ 000000014007ecf8     win32_layer.obj
 0002:0000ad18       ??_C@_1DC@NLFMAKHM@?$AAR?$AAe?$AAs?$AAu?$AAl?$AAt?$AA?4?$AAD?$AAr?$AAa?$AAw?$AAM?$AAe?$AAs?$AAh@ 000000014007ed18     win32_layer.obj
 0002:0000ad50       ??_C@_0BC@GHOAIMEO@Result?4ExportMesh@ 000000014007ed50     win32_layer.obj
 0002:0000ad68       ??_C@_1CE@EGLICAH@?$AAR?$AAe?$AAs?$AAu?$AAl?$AAt?$AA?4?$AAE?$AAx?$AAp?$AAo?$AAr?$AAt?$AAM?$AAe@ 000000014007ed68     win32_layer.obj
 0002:0000ad90       ??_C@_0BK@FIIEHHGG@Result?4GetMeshBoundingBox@ 000000014007ed90     win32_layer.obj
 0002:0000adb0       ??_C@_1DE@NNHIBHHB@?$AAR?$AAe?$AAs?$AAu?$AAl?$AAt?$AA?4?$AAG?$AAe?$AAt?$AAM?$AAe?$AAs?$AAh?$AAB@ 000000014007edb0     win32_layer.obj
 0002:0000ade8       ??_C@_0BH@NGCODONG@Result?4GenMeshTangents@ 000000014007ede8     win32_layer.obj
 0002:0000ae00       ??_C@_1CO@LPKMGLNL@?$AAR?$AAe?$AAs?$AAu?$AAl?$AAt?$AA?4?$AAG?$AAe?$AAn?$AAM?$AAe?$AAs?$AAh?$AAT@ 000000014007ee00     win32_layer.obj
 0002:0000ae30       ??_C@_0BD@ODHIKHLN@Result?4GenMeshPoly@ 000000014007ee30     win32_layer.obj
 0002:0000ae48       ??_C@_1CG@LJLEBEAE@?$AAR?$AAe?$AAs?$AAu?$AAl?$AAt?$AA?4?$AAG?$AAe?$AAn?$AAM?$AAe?$AAs?$AAh?$AAP@ 000000014007ee48     win32_layer.obj
 0002:0000ae70       ??_C@_0BE@BBKDPIM@Result?4GenMeshPlane@ 000000014007ee70     win32_layer.obj
 0002:0000ae88       ??_C@_1CI@BMKPDDAN@?$AAR?$AAe?$AAs?$AAu?$AAl?$AAt?$AA?4?$AAG?$AAe?$AAn?$AAM?$AAe?$AAs?$AAh?$AAP@ 000000014007ee88     win32_layer.obj
 0002:0000aeb0       ??_C@_0BD@BHHFINED@Result?4GenMeshCube@ 000000014007eeb0     win32_layer.obj
 0002:0000aec8       ??_C@_1CG@LIJDIKFL@?$AAR?$AAe?$AAs?$AAu?$AAl?$AAt?$AA?4?$AAG?$AAe?$AAn?$AAM?$AAe?$AAs?$AAh?$AAC@ 000000014007eec8     win32_layer.obj
 0002:0000aef0       ??_C@_0BF@HKABMCCO@Result?4GenMeshSphere@ 000000014007eef0     win32_layer.obj
 0002:0000af08       ??_C@_1CK@MMFJIENM@?$AAR?$AAe?$AAs?$AAu?$AAl?$AAt?$AA?4?$AAG?$AAe?$AAn?$AAM?$AAe?$AAs?$AAh?$AAS@ 000000014007ef08     win32_layer.obj
 0002:0000af38       ??_C@_0BJ@PKPBNDAC@Result?4GenMeshHemiSphere@ 000000014007ef38     win32_layer.obj
 0002:0000af58       ??_C@_1DC@FPCOLLKB@?$AAR?$AAe?$AAs?$AAu?$AAl?$AAt?$AA?4?$AAG?$AAe?$AAn?$AAM?$AAe?$AAs?$AAh?$AAH@ 000000014007ef58     win32_layer.obj
 0002:0000af90       ??_C@_0BH@NGGCNK@Result?4GenMeshCylinder@ 000000014007ef90     win32_layer.obj
 0002:0000afa8       ??_C@_1CO@PEFMNKKB@?$AAR?$AAe?$AAs?$AAu?$AAl?$AAt?$AA?4?$AAG?$AAe?$AAn?$AAM?$AAe?$AAs?$AAh?$AAC@ 000000014007efa8     win32_layer.obj
 0002:0000afd8       ??_C@_0BD@CBMLMDNM@Result?4GenMeshCone@ 000000014007efd8     win32_layer.obj
 0002:0000aff0       ??_C@_1CG@CCCKGHMD@?$AAR?$AAe?$AAs?$AAu?$AAl?$AAt?$AA?4?$AAG?$AAe?$AAn?$AAM?$AAe?$AAs?$AAh?$AAC@ 000000014007eff0     win32_layer.obj
 0002:0000b018       ??_C@_0BE@JDGMAGHN@Result?4GenMeshTorus@ 000000014007f018     win32_layer.obj
 0002:0000b030       ??_C@_1CI@BKMJHPKC@?$AAR?$AAe?$AAs?$AAu?$AAl?$AAt?$AA?4?$AAG?$AAe?$AAn?$AAM?$AAe?$AAs?$AAh?$AAT@ 000000014007f030     win32_layer.obj
 0002:0000b058       ??_C@_0BD@PLBMKGFP@Result?4GenMeshKnot@ 000000014007f058     win32_layer.obj
 0002:0000b070       ??_C@_1CG@NOKOMEPG@?$AAR?$AAe?$AAs?$AAu?$AAl?$AAt?$AA?4?$AAG?$AAe?$AAn?$AAM?$AAe?$AAs?$AAh?$AAK@ 000000014007f070     win32_layer.obj
 0002:0000b098       ??_C@_0BI@IOJPOKKM@Result?4GenMeshHeightmap@ 000000014007f098     win32_layer.obj
 0002:0000b0b0       ??_C@_1DA@JFPLJLNG@?$AAR?$AAe?$AAs?$AAu?$AAl?$AAt?$AA?4?$AAG?$AAe?$AAn?$AAM?$AAe?$AAs?$AAh?$AAH@ 000000014007f0b0     win32_layer.obj
 0002:0000b0e0       ??_C@_0BH@LHOBENKN@Result?4GenMeshCubicmap@ 000000014007f0e0     win32_layer.obj
 0002:0000b0f8       ??_C@_1CO@EDMMEGOP@?$AAR?$AAe?$AAs?$AAu?$AAl?$AAt?$AA?4?$AAG?$AAe?$AAn?$AAM?$AAe?$AAs?$AAh?$AAC@ 000000014007f0f8     win32_layer.obj
 0002:0000b128       ??_C@_0BF@ELNCAIFI@Result?4LoadMaterials@ 000000014007f128     win32_layer.obj
 0002:0000b140       ??_C@_1CK@DDPGBFIP@?$AAR?$AAe?$AAs?$AAu?$AAl?$AAt?$AA?4?$AAL?$AAo?$AAa?$AAd?$AAM?$AAa?$AAt?$AAe@ 000000014007f140     win32_layer.obj
 0002:0000b170       ??_C@_0BL@FKDJIHOM@Result?4LoadMaterialDefault@ 000000014007f170     win32_layer.obj
 0002:0000b190       ??_C@_1DG@EFBCAFLL@?$AAR?$AAe?$AAs?$AAu?$AAl?$AAt?$AA?4?$AAL?$AAo?$AAa?$AAd?$AAM?$AAa?$AAt?$AAe@ 000000014007f190     win32_layer.obj
 0002:0000b1c8       ??_C@_0BG@ECELLDFL@Result?4UnloadMaterial@ 000000014007f1c8     win32_layer.obj
 0002:0000b1e0       ??_C@_1CM@OJEFHJOB@?$AAR?$AAe?$AAs?$AAu?$AAl?$AAt?$AA?4?$AAU?$AAn?$AAl?$AAo?$AAa?$AAd?$AAM?$AAa@ 000000014007f1e0     win32_layer.obj
 0002:0000b210       ??_C@_0BK@MANALCPK@Result?4SetMaterialTexture@ 000000014007f210     win32_layer.obj
 0002:0000b230       ??_C@_1DE@GAIBOJLD@?$AAR?$AAe?$AAs?$AAu?$AAl?$AAt?$AA?4?$AAS?$AAe?$AAt?$AAM?$AAa?$AAt?$AAe?$AAr@ 000000014007f230     win32_layer.obj
 0002:0000b268       ??_C@_0BM@GNJGMOCA@Result?4SetModelMeshMaterial@ 000000014007f268     win32_layer.obj
 0002:0000b288       ??_C@_1DI@OECHJEKM@?$AAR?$AAe?$AAs?$AAu?$AAl?$AAt?$AA?4?$AAS?$AAe?$AAt?$AAM?$AAo?$AAd?$AAe?$AAl@ 000000014007f288     win32_layer.obj
 0002:0000b2c0       ??_C@_0BL@KMGLKNCK@Result?4LoadModelAnimations@ 000000014007f2c0     win32_layer.obj
 0002:0000b2e0       ??_C@_1DG@EGODEJPC@?$AAR?$AAe?$AAs?$AAu?$AAl?$AAt?$AA?4?$AAL?$AAo?$AAa?$AAd?$AAM?$AAo?$AAd?$AAe@ 000000014007f2e0     win32_layer.obj
 0002:0000b318       ??_C@_0BM@DJIPFMCC@Result?4UpdateModelAnimation@ 000000014007f318     win32_layer.obj
 0002:0000b338       ??_C@_1DI@FONKIGBH@?$AAR?$AAe?$AAs?$AAu?$AAl?$AAt?$AA?4?$AAU?$AAp?$AAd?$AAa?$AAt?$AAe?$AAM?$AAo@ 000000014007f338     win32_layer.obj
 0002:0000b370       ??_C@_0BM@JNKKFHAM@Result?4UnloadModelAnimation@ 000000014007f370     win32_layer.obj
 0002:0000b390       ??_C@_1DI@OJNBNAKF@?$AAR?$AAe?$AAs?$AAu?$AAl?$AAt?$AA?4?$AAU?$AAn?$AAl?$AAo?$AAa?$AAd?$AAM?$AAo@ 000000014007f390     win32_layer.obj
 0002:0000b3c8       ??_C@_0BN@NDJMMEJ@Result?4UnloadModelAnimations@ 000000014007f3c8     win32_layer.obj
 0002:0000b3e8       ??_C@_1DK@CMCJHMNL@?$AAR?$AAe?$AAs?$AAu?$AAl?$AAt?$AA?4?$AAU?$AAn?$AAl?$AAo?$AAa?$AAd?$AAM?$AAo@ 000000014007f3e8     win32_layer.obj
 0002:0000b428       ??_C@_0BN@NLAHLGDF@Result?4IsModelAnimationValid@ 000000014007f428     win32_layer.obj
 0002:0000b448       ??_C@_1DK@LLCIDHBK@?$AAR?$AAe?$AAs?$AAu?$AAl?$AAt?$AA?4?$AAI?$AAs?$AAM?$AAo?$AAd?$AAe?$AAl?$AAA@ 000000014007f448     win32_layer.obj
 0002:0000b488       ??_C@_0BN@ILJOLPNG@Result?4CheckCollisionSpheres@ 000000014007f488     win32_layer.obj
 0002:0000b4a8       ??_C@_1DK@MKNEFEKO@?$AAR?$AAe?$AAs?$AAu?$AAl?$AAt?$AA?4?$AAC?$AAh?$AAe?$AAc?$AAk?$AAC?$AAo?$AAl@ 000000014007f4a8     win32_layer.obj
 0002:0000b4e8       ??_C@_0BL@DGFJMLGC@Result?4CheckCollisionBoxes@ 000000014007f4e8     win32_layer.obj
 0002:0000b508       ??_C@_1DG@KNHDMOMD@?$AAR?$AAe?$AAs?$AAu?$AAl?$AAt?$AA?4?$AAC?$AAh?$AAe?$AAc?$AAk?$AAC?$AAo?$AAl@ 000000014007f508     win32_layer.obj
 0002:0000b540       ??_C@_0BP@PHEMPAK@Result?4CheckCollisionBoxSphere@ 000000014007f540     win32_layer.obj
 0002:0000b560       ??_C@_1DO@FJKJBMBI@?$AAR?$AAe?$AAs?$AAu?$AAl?$AAt?$AA?4?$AAC?$AAh?$AAe?$AAc?$AAk?$AAC?$AAo?$AAl@ 000000014007f560     win32_layer.obj
 0002:0000b5a0       ??_C@_0BN@DCNLIMBG@Result?4GetRayCollisionSphere@ 000000014007f5a0     win32_layer.obj
 0002:0000b5c0       ??_C@_1DK@CANNFEJ@?$AAR?$AAe?$AAs?$AAu?$AAl?$AAt?$AA?4?$AAG?$AAe?$AAt?$AAR?$AAa?$AAy?$AAC?$AAo@ 000000014007f5c0     win32_layer.obj
 0002:0000b600       ??_C@_0BK@CMCBJHHG@Result?4GetRayCollisionBox@ 000000014007f600     win32_layer.obj
 0002:0000b620       ??_C@_1DE@DEPGMIFJ@?$AAR?$AAe?$AAs?$AAu?$AAl?$AAt?$AA?4?$AAG?$AAe?$AAt?$AAR?$AAa?$AAy?$AAC?$AAo@ 000000014007f620     win32_layer.obj
 0002:0000b658       ??_C@_0BL@PFNGIMGF@Result?4GetRayCollisionMesh@ 000000014007f658     win32_layer.obj
 0002:0000b678       ??_C@_1DG@KFIPAAD@?$AAR?$AAe?$AAs?$AAu?$AAl?$AAt?$AA?4?$AAG?$AAe?$AAt?$AAR?$AAa?$AAy?$AAC?$AAo@ 000000014007f678     win32_layer.obj
 0002:0000b6b0       ??_C@_0BP@LFGKHELP@Result?4GetRayCollisionTriangle@ 000000014007f6b0     win32_layer.obj
 0002:0000b6d0       ??_C@_1DO@MCAAKEAI@?$AAR?$AAe?$AAs?$AAu?$AAl?$AAt?$AA?4?$AAG?$AAe?$AAt?$AAR?$AAa?$AAy?$AAC?$AAo@ 000000014007f6d0     win32_layer.obj
 0002:0000b710       ??_C@_0BL@LDMIJJGL@Result?4GetRayCollisionQuad@ 000000014007f710     win32_layer.obj
 0002:0000b730       ??_C@_1DG@EPLJLMGG@?$AAR?$AAe?$AAs?$AAu?$AAl?$AAt?$AA?4?$AAG?$AAe?$AAt?$AAR?$AAa?$AAy?$AAC?$AAo@ 000000014007f730     win32_layer.obj
 0002:0000b768       ??_C@_0BH@HHFAMOGJ@Result?4InitAudioDevice@ 000000014007f768     win32_layer.obj
 0002:0000b780       ??_C@_1CO@DCNEAPHA@?$AAR?$AAe?$AAs?$AAu?$AAl?$AAt?$AA?4?$AAI?$AAn?$AAi?$AAt?$AAA?$AAu?$AAd?$AAi@ 000000014007f780     win32_layer.obj
 0002:0000b7b0       ??_C@_0BI@JCEIPHGJ@Result?4CloseAudioDevice@ 000000014007f7b0     win32_layer.obj
 0002:0000b7c8       ??_C@_1DA@MKMLGGF@?$AAR?$AAe?$AAs?$AAu?$AAl?$AAt?$AA?4?$AAC?$AAl?$AAo?$AAs?$AAe?$AAA?$AAu?$AAd@ 000000014007f7c8     win32_layer.obj
 0002:0000b7f8       ??_C@_0BK@DCGMCFII@Result?4IsAudioDeviceReady@ 000000014007f7f8     win32_layer.obj
 0002:0000b818       ??_C@_1DE@DKCPFBEM@?$AAR?$AAe?$AAs?$AAu?$AAl?$AAt?$AA?4?$AAI?$AAs?$AAA?$AAu?$AAd?$AAi?$AAo?$AAD@ 000000014007f818     win32_layer.obj
 0002:0000b850       ??_C@_0BH@FHOPOEOH@Result?4SetMasterVolume@ 000000014007f850     win32_layer.obj
 0002:0000b868       ??_C@_1CO@NNKGHNPF@?$AAR?$AAe?$AAs?$AAu?$AAl?$AAt?$AA?4?$AAS?$AAe?$AAt?$AAM?$AAa?$AAs?$AAt?$AAe@ 000000014007f868     win32_layer.obj
 0002:0000b898       ??_C@_0BA@OAHAIIPD@Result?4LoadWave@ 000000014007f898     win32_layer.obj
 0002:0000b8a8       ??_C@_1CA@IGLCMGNK@?$AAR?$AAe?$AAs?$AAu?$AAl?$AAt?$AA?4?$AAL?$AAo?$AAa?$AAd?$AAW?$AAa?$AAv?$AAe@ 000000014007f8a8     win32_layer.obj
 0002:0000b8c8       ??_C@_0BK@FLPJHPCE@Result?4LoadWaveFromMemory@ 000000014007f8c8     win32_layer.obj
 0002:0000b8e8       ??_C@_1DE@MBEMNECM@?$AAR?$AAe?$AAs?$AAu?$AAl?$AAt?$AA?4?$AAL?$AAo?$AAa?$AAd?$AAW?$AAa?$AAv?$AAe@ 000000014007f8e8     win32_layer.obj
 0002:0000b920       ??_C@_0BB@BPIEMBPF@Result?4LoadSound@ 000000014007f920     win32_layer.obj
 0002:0000b938       ??_C@_1CC@EEBDFABK@?$AAR?$AAe?$AAs?$AAu?$AAl?$AAt?$AA?4?$AAL?$AAo?$AAa?$AAd?$AAS?$AAo?$AAu?$AAn@ 000000014007f938     win32_layer.obj
 0002:0000b960       ??_C@_0BJ@HBEGBMNJ@Result?4LoadSoundFromWave@ 000000014007f960     win32_layer.obj
 0002:0000b980       ??_C@_1DC@ONGDFKFF@?$AAR?$AAe?$AAs?$AAu?$AAl?$AAt?$AA?4?$AAL?$AAo?$AAa?$AAd?$AAS?$AAo?$AAu?$AAn@ 000000014007f980     win32_layer.obj
 0002:0000b9b8       ??_C@_0BD@JFICBCNI@Result?4UpdateSound@ 000000014007f9b8     win32_layer.obj
 0002:0000b9d0       ??_C@_1CG@MDIMOLHD@?$AAR?$AAe?$AAs?$AAu?$AAl?$AAt?$AA?4?$AAU?$AAp?$AAd?$AAa?$AAt?$AAe?$AAS?$AAo@ 000000014007f9d0     win32_layer.obj
 0002:0000b9f8       ??_C@_0BC@OKOFCIFF@Result?4UnloadWave@ 000000014007f9f8     win32_layer.obj
 0002:0000ba10       ??_C@_1CE@PLIJHJFK@?$AAR?$AAe?$AAs?$AAu?$AAl?$AAt?$AA?4?$AAU?$AAn?$AAl?$AAo?$AAa?$AAd?$AAW?$AAa@ 000000014007fa10     win32_layer.obj
 0002:0000ba38       ??_C@_0BD@CADLFCII@Result?4UnloadSound@ 000000014007fa38     win32_layer.obj
 0002:0000ba50       ??_C@_1CG@CEEOBLHH@?$AAR?$AAe?$AAs?$AAu?$AAl?$AAt?$AA?4?$AAU?$AAn?$AAl?$AAo?$AAa?$AAd?$AAS?$AAo@ 000000014007fa50     win32_layer.obj
 0002:0000ba78       ??_C@_0BC@HBLHCIJM@Result?4ExportWave@ 000000014007fa78     win32_layer.obj
 0002:0000ba90       ??_C@_1CE@BCAKNELC@?$AAR?$AAe?$AAs?$AAu?$AAl?$AAt?$AA?4?$AAE?$AAx?$AAp?$AAo?$AAr?$AAt?$AAW?$AAa@ 000000014007fa90     win32_layer.obj
 0002:0000bab8       ??_C@_0BI@KALPOMJ@Result?4ExportWaveAsCode@ 000000014007fab8     win32_layer.obj
 0002:0000bad0       ??_C@_1DA@NOPOKHDG@?$AAR?$AAe?$AAs?$AAu?$AAl?$AAt?$AA?4?$AAE?$AAx?$AAp?$AAo?$AAr?$AAt?$AAW?$AAa@ 000000014007fad0     win32_layer.obj
 0002:0000bb00       ??_C@_0BE@ECNOLLCI@Result?4RL_PlaySound@ 000000014007fb00     win32_layer.obj
 0002:0000bb18       ??_C@_1CI@IIAABFI@?$AAR?$AAe?$AAs?$AAu?$AAl?$AAt?$AA?4?$AAR?$AAL?$AA_?$AAP?$AAl?$AAa?$AAy?$AAS@ 000000014007fb18     win32_layer.obj
 0002:0000bb40       ??_C@_0BB@GBKPGNND@Result?4StopSound@ 000000014007fb40     win32_layer.obj
 0002:0000bb58       ??_C@_1CC@FEKCOBLE@?$AAR?$AAe?$AAs?$AAu?$AAl?$AAt?$AA?4?$AAS?$AAt?$AAo?$AAp?$AAS?$AAo?$AAu?$AAn@ 000000014007fb58     win32_layer.obj
 0002:0000bb80       ??_C@_0BC@OJPKOMNE@Result?4PauseSound@ 000000014007fb80     win32_layer.obj
 0002:0000bb98       ??_C@_1CE@PGMLBNAG@?$AAR?$AAe?$AAs?$AAu?$AAl?$AAt?$AA?4?$AAP?$AAa?$AAu?$AAs?$AAe?$AAS?$AAo?$AAu@ 000000014007fb98     win32_layer.obj
 0002:0000bbc0       ??_C@_0BD@GJBBDADC@Result?4ResumeSound@ 000000014007fbc0     win32_layer.obj
 0002:0000bbd8       ??_C@_1CG@PDPNHGN@?$AAR?$AAe?$AAs?$AAu?$AAl?$AAt?$AA?4?$AAR?$AAe?$AAs?$AAu?$AAm?$AAe?$AAS?$AAo@ 000000014007fbd8     win32_layer.obj
 0002:0000bc00       ??_C@_0BG@JOMBDKDK@Result?4PlaySoundMulti@ 000000014007fc00     win32_layer.obj
 0002:0000bc18       ??_C@_1CM@BBFJJMGC@?$AAR?$AAe?$AAs?$AAu?$AAl?$AAt?$AA?4?$AAP?$AAl?$AAa?$AAy?$AAS?$AAo?$AAu?$AAn@ 000000014007fc18     win32_layer.obj
 0002:0000bc48       ??_C@_0BG@LNBIEEDI@Result?4StopSoundMulti@ 000000014007fc48     win32_layer.obj
 0002:0000bc60       ??_C@_1CM@HKNHCJNG@?$AAR?$AAe?$AAs?$AAu?$AAl?$AAt?$AA?4?$AAS?$AAt?$AAo?$AAp?$AAS?$AAo?$AAu?$AAn@ 000000014007fc60     win32_layer.obj
 0002:0000bc90       ??_C@_0BI@HBBAGNBA@Result?4GetSoundsPlaying@ 000000014007fc90     win32_layer.obj
 0002:0000bca8       ??_C@_1DA@GOIILJDF@?$AAR?$AAe?$AAs?$AAu?$AAl?$AAt?$AA?4?$AAG?$AAe?$AAt?$AAS?$AAo?$AAu?$AAn?$AAd@ 000000014007fca8     win32_layer.obj
 0002:0000bcd8       ??_C@_0BG@IMHNIOBO@Result?4IsSoundPlaying@ 000000014007fcd8     win32_layer.obj
 0002:0000bcf0       ??_C@_1CM@DJIPIABG@?$AAR?$AAe?$AAs?$AAu?$AAl?$AAt?$AA?4?$AAI?$AAs?$AAS?$AAo?$AAu?$AAn?$AAd?$AAP@ 000000014007fcf0     win32_layer.obj
 0002:0000bd20       ??_C@_0BG@FNFGKLJO@Result?4SetSoundVolume@ 000000014007fd20     win32_layer.obj
 0002:0000bd38       ??_C@_1CM@PHLFJDAB@?$AAR?$AAe?$AAs?$AAu?$AAl?$AAt?$AA?4?$AAS?$AAe?$AAt?$AAS?$AAo?$AAu?$AAn?$AAd@ 000000014007fd38     win32_layer.obj
 0002:0000bd68       ??_C@_0BF@KKAAELGH@Result?4SetSoundPitch@ 000000014007fd68     win32_layer.obj
 0002:0000bd80       ??_C@_1CK@HOCIALIO@?$AAR?$AAe?$AAs?$AAu?$AAl?$AAt?$AA?4?$AAS?$AAe?$AAt?$AAS?$AAo?$AAu?$AAn?$AAd@ 000000014007fd80     win32_layer.obj
 0002:0000bdb0       ??_C@_0BD@GNBDNCGH@Result?4SetSoundPan@ 000000014007fdb0     win32_layer.obj
 0002:0000bdc8       ??_C@_1CG@IAGNPLPN@?$AAR?$AAe?$AAs?$AAu?$AAl?$AAt?$AA?4?$AAS?$AAe?$AAt?$AAS?$AAo?$AAu?$AAn?$AAd@ 000000014007fdc8     win32_layer.obj
 0002:0000bdf0       ??_C@_0BA@CFAPFABG@Result?4WaveCopy@ 000000014007fdf0     win32_layer.obj
 0002:0000be00       ??_C@_1CA@BKMHPNFO@?$AAR?$AAe?$AAs?$AAu?$AAl?$AAt?$AA?4?$AAW?$AAa?$AAv?$AAe?$AAC?$AAo?$AAp?$AAy@ 000000014007fe00     win32_layer.obj
 0002:0000be20       ??_C@_0BA@EBMEIAFA@Result?4WaveCrop@ 000000014007fe20     win32_layer.obj
 0002:0000be30       ??_C@_1CA@HCPBCGGA@?$AAR?$AAe?$AAs?$AAu?$AAl?$AAt?$AA?4?$AAW?$AAa?$AAv?$AAe?$AAC?$AAr?$AAo?$AAp@ 000000014007fe30     win32_layer.obj
 0002:0000be50       ??_C@_0BC@ICDGGAMG@Result?4WaveFormat@ 000000014007fe50     win32_layer.obj
 0002:0000be68       ??_C@_1CE@LAEFEKFE@?$AAR?$AAe?$AAs?$AAu?$AAl?$AAt?$AA?4?$AAW?$AAa?$AAv?$AAe?$AAF?$AAo?$AAr?$AAm@ 000000014007fe68     win32_layer.obj
 0002:0000be90       ??_C@_0BH@IPGDDHM@Result?4LoadWaveSamples@ 000000014007fe90     win32_layer.obj
 0002:0000bea8       ??_C@_1CO@NKMMHDPK@?$AAR?$AAe?$AAs?$AAu?$AAl?$AAt?$AA?4?$AAL?$AAo?$AAa?$AAd?$AAW?$AAa?$AAv?$AAe@ 000000014007fea8     win32_layer.obj
 0002:0000bed8       ??_C@_0BJ@EDMKIMMC@Result?4UnloadWaveSamples@ 000000014007fed8     win32_layer.obj
 0002:0000bef8       ??_C@_1DC@IJNBAMOL@?$AAR?$AAe?$AAs?$AAu?$AAl?$AAt?$AA?4?$AAU?$AAn?$AAl?$AAo?$AAa?$AAd?$AAW?$AAa@ 000000014007fef8     win32_layer.obj
 0002:0000bf30       ??_C@_0BH@LKIDIGEE@Result?4LoadMusicStream@ 000000014007ff30     win32_layer.obj
 0002:0000bf48       ??_C@_1CO@HGEIDHBJ@?$AAR?$AAe?$AAs?$AAu?$AAl?$AAt?$AA?4?$AAL?$AAo?$AAa?$AAd?$AAM?$AAu?$AAs?$AAi@ 000000014007ff48     win32_layer.obj
 0002:0000bf78       ??_C@_0CB@JFAJBKG@Result?4LoadMusicStreamFromMemor@ 000000014007ff78     win32_layer.obj
 0002:0000bfa0       ??_C@_1EC@KOGPDCDP@?$AAR?$AAe?$AAs?$AAu?$AAl?$AAt?$AA?4?$AAL?$AAo?$AAa?$AAd?$AAM?$AAu?$AAs?$AAi@ 000000014007ffa0     win32_layer.obj
 0002:0000bfe8       ??_C@_0BJ@PBLPDJPK@Result?4UnloadMusicStream@ 000000014007ffe8     win32_layer.obj
 0002:0000c008       ??_C@_1DC@CFFFEIAI@?$AAR?$AAe?$AAs?$AAu?$AAl?$AAt?$AA?4?$AAU?$AAn?$AAl?$AAo?$AAa?$AAd?$AAM?$AAu@ 0000000140080008     win32_layer.obj
 0002:0000c040       ??_C@_0BH@BJNAMHMP@Result?4PlayMusicStream@ 0000000140080040     win32_layer.obj
 0002:0000c058       ??_C@_1CO@IPNMBEBL@?$AAR?$AAe?$AAs?$AAu?$AAl?$AAt?$AA?4?$AAP?$AAl?$AAa?$AAy?$AAM?$AAu?$AAs?$AAi@ 0000000140080058     win32_layer.obj
 0002:0000c088       ??_C@_0BM@IBFPMHPL@Result?4IsMusicStreamPlaying@ 0000000140080088     win32_layer.obj
 0002:0000c0a8       ??_C@_1DI@IHMBBFHD@?$AAR?$AAe?$AAs?$AAu?$AAl?$AAt?$AA?4?$AAI?$AAs?$AAM?$AAu?$AAs?$AAi?$AAc?$AAS@ 00000001400800a8     win32_layer.obj
 0002:0000c0e0       ??_C@_0BJ@GCNFEKP@Result?4UpdateMusicStream@ 00000001400800e0     win32_layer.obj
 0002:0000c100       ??_C@_1DC@ININCGKF@?$AAR?$AAe?$AAs?$AAu?$AAl?$AAt?$AA?4?$AAU?$AAp?$AAd?$AAa?$AAt?$AAe?$AAM?$AAu@ 0000000140080100     win32_layer.obj
 0002:0000c138       ??_C@_0BH@PHPNHPJN@Result?4StopMusicStream@ 0000000140080138     win32_layer.obj
 0002:0000c150       ??_C@_1CO@LEHOFDCK@?$AAR?$AAe?$AAs?$AAu?$AAl?$AAt?$AA?4?$AAS?$AAt?$AAo?$AAp?$AAM?$AAu?$AAs?$AAi@ 0000000140080150     win32_layer.obj
 0002:0000c180       ??_C@_0BI@HFILGDKP@Result?4PauseMusicStream@ 0000000140080180     win32_layer.obj
 0002:0000c198       ??_C@_1DA@EINCOECK@?$AAR?$AAe?$AAs?$AAu?$AAl?$AAt?$AA?4?$AAP?$AAa?$AAu?$AAs?$AAe?$AAM?$AAu?$AAs@ 0000000140080198     win32_layer.obj
 0002:0000c1c8       ??_C@_0BJ@BJNINENB@Result?4ResumeMusicStream@ 00000001400801c8     win32_layer.obj
 0002:0000c1e8       ??_C@_1DC@HBOGABPK@?$AAR?$AAe?$AAs?$AAu?$AAl?$AAt?$AA?4?$AAR?$AAe?$AAs?$AAu?$AAm?$AAe?$AAM?$AAu@ 00000001400801e8     win32_layer.obj
 0002:0000c220       ??_C@_0BH@ILJNPINI@Result?4SeekMusicStream@ 0000000140080220     win32_layer.obj
 0002:0000c238       ??_C@_1CO@PLBKAFMO@?$AAR?$AAe?$AAs?$AAu?$AAl?$AAt?$AA?4?$AAS?$AAe?$AAe?$AAk?$AAM?$AAu?$AAs?$AAi@ 0000000140080238     win32_layer.obj
 0002:0000c268       ??_C@_0BG@JHJMBNKE@Result?4SetMusicVolume@ 0000000140080268     win32_layer.obj
 0002:0000c280       ??_C@_1CM@EMPOEINH@?$AAR?$AAe?$AAs?$AAu?$AAl?$AAt?$AA?4?$AAS?$AAe?$AAt?$AAM?$AAu?$AAs?$AAi?$AAc@ 0000000140080280     win32_layer.obj
 0002:0000c2b0       ??_C@_0BF@NKHEPLJG@Result?4SetMusicPitch@ 00000001400802b0     win32_layer.obj
 0002:0000c2c8       ??_C@_1CK@DNPGNIGE@?$AAR?$AAe?$AAs?$AAu?$AAl?$AAt?$AA?4?$AAS?$AAe?$AAt?$AAM?$AAu?$AAs?$AAi?$AAc@ 00000001400802c8     win32_layer.obj
 0002:0000c2f8       ??_C@_0BD@CIJPLPPF@Result?4SetMusicPan@ 00000001400802f8     win32_layer.obj
 0002:0000c310       ??_C@_1CG@MLPBIIJO@?$AAR?$AAe?$AAs?$AAu?$AAl?$AAt?$AA?4?$AAS?$AAe?$AAt?$AAM?$AAu?$AAs?$AAi?$AAc@ 0000000140080310     win32_layer.obj
 0002:0000c338       ??_C@_0BK@LGBFLCBL@Result?4GetMusicTimeLength@ 0000000140080338     win32_layer.obj
 0002:0000c358       ??_C@_1DE@KPOJMPMC@?$AAR?$AAe?$AAs?$AAu?$AAl?$AAt?$AA?4?$AAG?$AAe?$AAt?$AAM?$AAu?$AAs?$AAi?$AAc@ 0000000140080358     win32_layer.obj
 0002:0000c390       ??_C@_0BK@LCKDCEFP@Result?4GetMusicTimePlayed@ 0000000140080390     win32_layer.obj
 0002:0000c3b0       ??_C@_1DE@GEGBEOAA@?$AAR?$AAe?$AAs?$AAu?$AAl?$AAt?$AA?4?$AAG?$AAe?$AAt?$AAM?$AAu?$AAs?$AAi?$AAc@ 00000001400803b0     win32_layer.obj
 0002:0000c3e8       ??_C@_0BH@CNFEEEBL@Result?4LoadAudioStream@ 00000001400803e8     win32_layer.obj
 0002:0000c400       ??_C@_1CO@GLODELIG@?$AAR?$AAe?$AAs?$AAu?$AAl?$AAt?$AA?4?$AAL?$AAo?$AAa?$AAd?$AAA?$AAu?$AAd?$AAi@ 0000000140080400     win32_layer.obj
 0002:0000c430       ??_C@_0BJ@GGGIPLKF@Result?4UnloadAudioStream@ 0000000140080430     win32_layer.obj
 0002:0000c450       ??_C@_1DC@DIPODEJH@?$AAR?$AAe?$AAs?$AAu?$AAl?$AAt?$AA?4?$AAU?$AAn?$AAl?$AAo?$AAa?$AAd?$AAA?$AAu@ 0000000140080450     win32_layer.obj
 0002:0000c488       ??_C@_0BJ@JBPKJGPA@Result?4UpdateAudioStream@ 0000000140080488     win32_layer.obj
 0002:0000c4a8       ??_C@_1DC@JACGFKDK@?$AAR?$AAe?$AAs?$AAu?$AAl?$AAt?$AA?4?$AAU?$AAp?$AAd?$AAa?$AAt?$AAe?$AAA?$AAu@ 00000001400804a8     win32_layer.obj
 0002:0000c4e0       ??_C@_0BO@MEEFIHFO@Result?4IsAudioStreamProcessed@ 00000001400804e0     win32_layer.obj
 0002:0000c500       ??_C@_1DM@IMGLKOLJ@?$AAR?$AAe?$AAs?$AAu?$AAl?$AAt?$AA?4?$AAI?$AAs?$AAA?$AAu?$AAd?$AAi?$AAo?$AAS@ 0000000140080500     win32_layer.obj
 0002:0000c540       ??_C@_0BH@IOAHAFJA@Result?4PlayAudioStream@ 0000000140080540     win32_layer.obj
 0002:0000c558       ??_C@_1CO@JCHHGIIE@?$AAR?$AAe?$AAs?$AAu?$AAl?$AAt?$AA?4?$AAP?$AAl?$AAa?$AAy?$AAA?$AAu?$AAd?$AAi@ 0000000140080558     win32_layer.obj
 0002:0000c588       ??_C@_0BI@OCFMKBPA@Result?4PauseAudioStream@ 0000000140080588     win32_layer.obj
 0002:0000c5a0       ??_C@_1DA@FFHJJILF@?$AAR?$AAe?$AAs?$AAu?$AAl?$AAt?$AA?4?$AAP?$AAa?$AAu?$AAs?$AAe?$AAA?$AAu?$AAd@ 00000001400805a0     win32_layer.obj
 0002:0000c5d0       ??_C@_0BJ@IOAPBGIO@Result?4ResumeAudioStream@ 00000001400805d0     win32_layer.obj
 0002:0000c5f0       ??_C@_1DC@GMENHNGF@?$AAR?$AAe?$AAs?$AAu?$AAl?$AAt?$AA?4?$AAR?$AAe?$AAs?$AAu?$AAm?$AAe?$AAA?$AAu@ 00000001400805f0     win32_layer.obj
 0002:0000c628       ??_C@_0BM@BDKAJLEO@Result?4IsAudioStreamPlaying@ 0000000140080628     win32_layer.obj
 0002:0000c648       ??_C@_1DI@HINMCOKO@?$AAR?$AAe?$AAs?$AAu?$AAl?$AAt?$AA?4?$AAI?$AAs?$AAA?$AAu?$AAd?$AAi?$AAo?$AAS@ 0000000140080648     win32_layer.obj
 0002:0000c680       ??_C@_0BH@GACKLNMC@Result?4StopAudioStream@ 0000000140080680     win32_layer.obj
 0002:0000c698       ??_C@_1CO@KJNFCPLF@?$AAR?$AAe?$AAs?$AAu?$AAl?$AAt?$AA?4?$AAS?$AAt?$AAo?$AAp?$AAA?$AAu?$AAd?$AAi@ 0000000140080698     win32_layer.obj
 0002:0000c6c8       ??_C@_0BM@FHLOMOHK@Result?4SetAudioStreamVolume@ 00000001400806c8     win32_layer.obj
 0002:0000c6e8       ??_C@_1DI@FDKGFDAH@?$AAR?$AAe?$AAs?$AAu?$AAl?$AAt?$AA?4?$AAS?$AAe?$AAt?$AAA?$AAu?$AAd?$AAi?$AAo@ 00000001400806e8     win32_layer.obj
 0002:0000c720       ??_C@_0BL@ECMLIIOJ@Result?4SetAudioStreamPitch@ 0000000140080720     win32_layer.obj
 0002:0000c740       ??_C@_1DG@KNLMMKDC@?$AAR?$AAe?$AAs?$AAu?$AAl?$AAt?$AA?4?$AAS?$AAe?$AAt?$AAA?$AAu?$AAd?$AAi?$AAo@ 0000000140080740     win32_layer.obj
 0002:0000c778       ??_C@_0BJ@KGLIBGOA@Result?4SetAudioStreamPan@ 0000000140080778     win32_layer.obj
 0002:0000c798       ??_C@_1DC@CFEEIEBM@?$AAR?$AAe?$AAs?$AAu?$AAl?$AAt?$AA?4?$AAS?$AAe?$AAt?$AAA?$AAu?$AAd?$AAi?$AAo@ 0000000140080798     win32_layer.obj
 0002:0000c7d0       ??_C@_0CH@DBHDNLCN@Result?4SetAudioStreamBufferSize@ 00000001400807d0     win32_layer.obj
 0002:0000c800       ??_C@_1EO@HBMHMOIL@?$AAR?$AAe?$AAs?$AAu?$AAl?$AAt?$AA?4?$AAS?$AAe?$AAt?$AAA?$AAu?$AAd?$AAi?$AAo@ 0000000140080800     win32_layer.obj
 0002:0000c850       ??_C@_0BO@LPKCKILJ@Result?4SetAudioStreamCallback@ 0000000140080850     win32_layer.obj
 0002:0000c870       ??_C@_1DM@JFHOPHMJ@?$AAR?$AAe?$AAs?$AAu?$AAl?$AAt?$AA?4?$AAS?$AAe?$AAt?$AAA?$AAu?$AAd?$AAi?$AAo@ 0000000140080870     win32_layer.obj
 0002:0000c8b0       ??_C@_0CC@LEANHFIG@Result?4AttachAudioStreamProcess@ 00000001400808b0     win32_layer.obj
 0002:0000c8e0       ??_C@_1EE@MNALKMGC@?$AAR?$AAe?$AAs?$AAu?$AAl?$AAt?$AA?4?$AAA?$AAt?$AAt?$AAa?$AAc?$AAh?$AAA?$AAu@ 00000001400808e0     win32_layer.obj
 0002:0000c928       ??_C@_0CC@PGIPPIGN@Result?4DetachAudioStreamProcess@ 0000000140080928     win32_layer.obj
 0002:0000c950       ??_C@_1EE@IJIOIAJE@?$AAR?$AAe?$AAs?$AAu?$AAl?$AAt?$AA?4?$AAD?$AAe?$AAt?$AAa?$AAc?$AAh?$AAA?$AAu@ 0000000140080950     win32_layer.obj
 0002:0000c9a0       ??_7?$basic_streambuf@DU?$char_traits@D@std@@@std@@6B@ 00000001400809a0     win32_layer.obj
 0002:0000ca20       ??_7?$basic_filebuf@DU?$char_traits@D@std@@@std@@6B@ 0000000140080a20     win32_layer.obj
 0002:0000caa0       ??_7?$basic_ofstream@DU?$char_traits@D@std@@@std@@6B@ 0000000140080aa0     win32_layer.obj
 0002:0000caa8       ??_8?$basic_ofstream@DU?$char_traits@D@std@@@std@@7B@ 0000000140080aa8     win32_layer.obj
 0002:0000cab0       ??_C@_04EPNAICGL@logs@     0000000140080ab0     win32_layer.obj
 0002:0000cab8       ??_C@_0CN@LFJMJADM@failed?5to?5allocate?5size?5of?5memo@ 0000000140080ab8     win32_layer.obj
 0002:0000cae8       ??_C@_0BD@IEGOJGFP@raylib_wrapper?4dll@ 0000000140080ae8     win32_layer.obj
 0002:0000cb00       ??_C@_0P@BMCBIDJA@game_layer?4dll@ 0000000140080b00     win32_layer.obj
 0002:0000cb10       ??_C@_0BE@LEHDBJBI@game_layer_temp?4dll@ 0000000140080b10     win32_layer.obj
 0002:0000cb28       ??_C@_08IHJLAFDM@lock?4tmp@ 0000000140080b28     win32_layer.obj
 0002:0000cb40       ??_7?$codecvt@DDU_Mbstatet@@@std@@6B@ 0000000140080b40     win32_layer.obj
 0002:0000cb98       ??_7?$num_put@DV?$ostreambuf_iterator@DU?$char_traits@D@std@@@std@@@std@@6B@ 0000000140080b98     win32_layer.obj
 0002:0000cbf0       ??_C@_0BO@LFGPDMIB@string?5subscript?5out?5of?5range@ 0000000140080bf0     win32_layer.obj
 0002:0000cc10       ??_C@_0GI@DEIBJNCC@C?3?2Program?5Files?5?$CIx86?$CJ?2Microsof@ 0000000140080c10     win32_layer.obj
 0002:0000cc80       ??_C@_1NA@CHJCONEK@?$AAC?$AA?3?$AA?2?$AAP?$AAr?$AAo?$AAg?$AAr?$AAa?$AAm?$AA?5?$AAF?$AAi?$AAl?$AAe@ 0000000140080c80     win32_layer.obj
 0002:0000cd50       ??_C@_1EA@OADAPGGK@?$AA?$CC?$AAs?$AAt?$AAr?$AAi?$AAn?$AAg?$AA?5?$AAs?$AAu?$AAb?$AAs?$AAc?$AAr?$AAi@ 0000000140080d50     win32_layer.obj
 0002:0000cd90       ??_C@_1LO@NPPEKPAI@?$AAs?$AAt?$AAd?$AA?3?$AA?3?$AAb?$AAa?$AAs?$AAi?$AAc?$AA_?$AAs?$AAt?$AAr?$AAi@ 0000000140080d90     win32_layer.obj
 0002:0000ce50       ??_C@_02BBAHNLBA@?$CFp@    0000000140080e50     win32_layer.obj
 0002:0000ce60       ??_7?$numpunct@D@std@@6B@  0000000140080e60     win32_layer.obj
 0002:0000cea0       ??_C@_0BP@PFIPNLNI@front?$CI?$CJ?5called?5on?5empty?5string@ 0000000140080ea0     win32_layer.obj
 0002:0000cec0       ??_C@_1LC@BJDDPGPA@?$AAs?$AAt?$AAd?$AA?3?$AA?3?$AAb?$AAa?$AAs?$AAi?$AAc?$AA_?$AAs?$AAt?$AAr?$AAi@ 0000000140080ec0     win32_layer.obj
 0002:0000cf80       ??_C@_1EC@DINNLDHA@?$AA?$CC?$AAf?$AAr?$AAo?$AAn?$AAt?$AA?$CI?$AA?$CJ?$AA?5?$AAc?$AAa?$AAl?$AAl?$AAe?$AAd@ 0000000140080f80     win32_layer.obj
 0002:0000cfc4       ??_C@_02MDKMJEGG@eE@       0000000140080fc4     win32_layer.obj
 0002:0000cfc8       ??_C@_02OOPEBDOJ@pP@       0000000140080fc8     win32_layer.obj
 0002:0000cfd0       ??_C@_0BI@CFPLBAOH@invalid?5string?5position@ 0000000140080fd0     win32_layer.obj
 0002:0000cfe8       ??_C@_0BJ@HAJGEHKO@transposed?5pointer?5range@ 0000000140080fe8     win32_layer.obj
 0002:0000d010       ??_C@_0GJ@MPIAFDPJ@C?3?2Program?5Files?5?$CIx86?$CJ?2Microsof@ 0000000140081010     win32_layer.obj
 0002:0000d080       ??_C@_1NC@IFKPGDLA@?$AAC?$AA?3?$AA?2?$AAP?$AAr?$AAo?$AAg?$AAr?$AAa?$AAm?$AA?5?$AAF?$AAi?$AAl?$AAe@ 0000000140081080     win32_layer.obj
 0002:0000d158       ??_C@_1CG@LJCPDKEJ@?$AAs?$AAt?$AAd?$AA?3?$AA?3?$AA_?$AAV?$AAe?$AAr?$AAi?$AAf?$AAy?$AA_?$AAr?$AAa@ 0000000140081158     win32_layer.obj
 0002:0000d180       ??_C@_1DG@FJIKMGFD@?$AA?$CC?$AAt?$AAr?$AAa?$AAn?$AAs?$AAp?$AAo?$AAs?$AAe?$AAd?$AA?5?$AAp?$AAo?$AAi@ 0000000140081180     win32_layer.obj
 0002:0000d1c0       ??_C@_1EO@GFNCMDLA@?$AAs?$AAt?$AAd?$AA?3?$AA?3?$AA_?$AAA?$AAl?$AAl?$AAo?$AAc?$AAa?$AAt?$AAe?$AA_@ 00000001400811c0     win32_layer.obj
 0002:0000d210       __real@4202a05f20000000    0000000140081210     win32_layer.obj
 0002:0000d220       __xmm@7fffffffffffffff7fffffffffffffff 0000000140081220     win32_layer.obj
 0002:0000d230       ??_C@_0P@GHFPNOJB@bad?5allocation@ 0000000140081230     libcpmtd:xthrow.obj
 0002:0000d248       ??_7logic_error@std@@6B@   0000000140081248     libcpmtd:xthrow.obj
 0002:0000d260       ??_7length_error@std@@6B@  0000000140081260     libcpmtd:xthrow.obj
 0002:0000d278       ??_7out_of_range@std@@6B@  0000000140081278     libcpmtd:xthrow.obj
 0002:0000d9f0       ??_C@_0BN@LKKBCCDB@address?5family?5not?5supported@ 00000001400819f0     libcpmtd:syserror.obj
 0002:0000da10       ??_C@_0P@LDMLAFHI@address?5in?5use@ 0000000140081a10     libcpmtd:syserror.obj
 0002:0000da20       ??_C@_0BG@DHPCNBJB@address?5not?5available@ 0000000140081a20     libcpmtd:syserror.obj
 0002:0000da38       ??_C@_0BC@DFIBIBIL@already?5connected@ 0000000140081a38     libcpmtd:syserror.obj
 0002:0000da50       ??_C@_0BH@CAKOHOMI@argument?5list?5too?5long@ 0000000140081a50     libcpmtd:syserror.obj
 0002:0000da68       ??_C@_0BH@CGIMPKIM@argument?5out?5of?5domain@ 0000000140081a68     libcpmtd:syserror.obj
 0002:0000da80       ??_C@_0M@KGHGGJGL@bad?5address@ 0000000140081a80     libcpmtd:syserror.obj
 0002:0000da90       ??_C@_0BE@MPJPGCEO@bad?5file?5descriptor@ 0000000140081a90     libcpmtd:syserror.obj
 0002:0000daa8       ??_C@_0M@PMMIEFCP@bad?5message@ 0000000140081aa8     libcpmtd:syserror.obj
 0002:0000dab8       ??_C@_0M@KPHOFDBE@broken?5pipe@ 0000000140081ab8     libcpmtd:syserror.obj
 0002:0000dac8       ??_C@_0BD@MGNDDEGM@connection?5aborted@ 0000000140081ac8     libcpmtd:syserror.obj
 0002:0000dae0       ??_C@_0BP@KAIHPOGN@connection?5already?5in?5progress@ 0000000140081ae0     libcpmtd:syserror.obj
 0002:0000db00       ??_C@_0BD@PJLIIJEL@connection?5refused@ 0000000140081b00     libcpmtd:syserror.obj
 0002:0000db18       ??_C@_0BB@IECNJNOI@connection?5reset@ 0000000140081b18     libcpmtd:syserror.obj
 0002:0000db30       ??_C@_0BC@PPHBOELF@cross?5device?5link@ 0000000140081b30     libcpmtd:syserror.obj
 0002:0000db48       ??_C@_0BN@KDMIFEIP@destination?5address?5required@ 0000000140081b48     libcpmtd:syserror.obj
 0002:0000db68       ??_C@_0BI@NGCEHDD@device?5or?5resource?5busy@ 0000000140081b68     libcpmtd:syserror.obj
 0002:0000db80       ??_C@_0BE@JIDOCPHM@directory?5not?5empty@ 0000000140081b80     libcpmtd:syserror.obj
 0002:0000db98       ??_C@_0BI@BNCLIGPB@executable?5format?5error@ 0000000140081b98     libcpmtd:syserror.obj
 0002:0000dbb0       ??_C@_0M@MIDIAGJP@file?5exists@ 0000000140081bb0     libcpmtd:syserror.obj
 0002:0000dbc0       ??_C@_0P@DNAJLBJK@file?5too?5large@ 0000000140081bc0     libcpmtd:syserror.obj
 0002:0000dbd0       ??_C@_0BC@EJHOMAAK@filename?5too?5long@ 0000000140081bd0     libcpmtd:syserror.obj
 0002:0000dbe8       ??_C@_0BH@KEFGLDAF@function?5not?5supported@ 0000000140081be8     libcpmtd:syserror.obj
 0002:0000dc00       ??_C@_0BB@DHFDFGDM@host?5unreachable@ 0000000140081c00     libcpmtd:syserror.obj
 0002:0000dc18       ??_C@_0BD@JPHBMONG@identifier?5removed@ 0000000140081c18     libcpmtd:syserror.obj
 0002:0000dc30       ??_C@_0BG@CDNPAGJK@illegal?5byte?5sequence@ 0000000140081c30     libcpmtd:syserror.obj
 0002:0000dc48       ??_C@_0CD@BNPLBMNA@inappropriate?5io?5control?5operat@ 0000000140081c48     libcpmtd:syserror.obj
 0002:0000dc70       ??_C@_0M@EGEKIIMP@interrupted@ 0000000140081c70     libcpmtd:syserror.obj
 0002:0000dc80       ??_C@_0N@OHAFKDEK@invalid?5seek@ 0000000140081c80     libcpmtd:syserror.obj
 0002:0000dc90       ??_C@_08GLNPIFBN@io?5error@ 0000000140081c90     libcpmtd:syserror.obj
 0002:0000dca0       ??_C@_0P@FLLDBIDK@is?5a?5directory@ 0000000140081ca0     libcpmtd:syserror.obj
 0002:0000dcb0       ??_C@_0N@IFLPBIOP@message?5size@ 0000000140081cb0     libcpmtd:syserror.obj
 0002:0000dcc0       ??_C@_0N@KIIEAAIO@network?5down@ 0000000140081cc0     libcpmtd:syserror.obj
 0002:0000dcd0       ??_C@_0O@FNPDBHEE@network?5reset@ 0000000140081cd0     libcpmtd:syserror.obj
 0002:0000dce0       ??_C@_0BE@IFNCKGE@network?5unreachable@ 0000000140081ce0     libcpmtd:syserror.obj
 0002:0000dcf8       ??_C@_0BA@PFFCAOFK@no?5buffer?5space@ 0000000140081cf8     libcpmtd:syserror.obj
 0002:0000dd08       ??_C@_0BB@IEPBLJHK@no?5child?5process@ 0000000140081d08     libcpmtd:syserror.obj
 0002:0000dd20       ??_C@_07PLECNNKG@no?5link@ 0000000140081d20     libcpmtd:syserror.obj
 0002:0000dd28       ??_C@_0BC@NJECKMKE@no?5lock?5available@ 0000000140081d28     libcpmtd:syserror.obj
 0002:0000dd40       ??_C@_0BF@PBGGPKKE@no?5message?5available@ 0000000140081d40     libcpmtd:syserror.obj
 0002:0000dd58       ??_C@_0L@EDOLMPAK@no?5message@ 0000000140081d58     libcpmtd:syserror.obj
 0002:0000dd68       ??_C@_0BD@EAMBFIDF@no?5protocol?5option@ 0000000140081d68     libcpmtd:syserror.obj
 0002:0000dd80       ??_C@_0BD@IJDJKDEA@no?5space?5on?5device@ 0000000140081d80     libcpmtd:syserror.obj
 0002:0000dd98       ??_C@_0BE@MKFDAFMP@no?5stream?5resources@ 0000000140081d98     libcpmtd:syserror.obj
 0002:0000ddb0       ??_C@_0BK@IMCPHCBI@no?5such?5device?5or?5address@ 0000000140081db0     libcpmtd:syserror.obj
 0002:0000ddd0       ??_C@_0P@FDINDDOK@no?5such?5device@ 0000000140081dd0     libcpmtd:syserror.obj
 0002:0000dde0       ??_C@_0BK@NDOCBPGE@no?5such?5file?5or?5directory@ 0000000140081de0     libcpmtd:syserror.obj
 0002:0000de00       ??_C@_0BA@ENLPPKBN@no?5such?5process@ 0000000140081e00     libcpmtd:syserror.obj
 0002:0000de10       ??_C@_0BA@DOCPFFJG@not?5a?5directory@ 0000000140081e10     libcpmtd:syserror.obj
 0002:0000de20       ??_C@_0N@POEIPGGF@not?5a?5socket@ 0000000140081e20     libcpmtd:syserror.obj
 0002:0000de30       ??_C@_0N@LGAPMMPI@not?5a?5stream@ 0000000140081e30     libcpmtd:syserror.obj
 0002:0000de40       ??_C@_0O@GLMIBBEG@not?5connected@ 0000000140081e40     libcpmtd:syserror.obj
 0002:0000de50       ??_C@_0BC@ENOOLCNF@not?5enough?5memory@ 0000000140081e50     libcpmtd:syserror.obj
 0002:0000de68       ??_C@_0O@NHEDABJP@not?5supported@ 0000000140081e68     libcpmtd:syserror.obj
 0002:0000de78       ??_C@_0BD@MOLBPMEA@operation?5canceled@ 0000000140081e78     libcpmtd:syserror.obj
 0002:0000de90       ??_C@_0BG@KDKHOPCO@operation?5in?5progress@ 0000000140081e90     libcpmtd:syserror.obj
 0002:0000dea8       ??_C@_0BI@OHIEJAAB@operation?5not?5permitted@ 0000000140081ea8     libcpmtd:syserror.obj
 0002:0000dec0       ??_C@_0BI@LNEGIFLN@operation?5not?5supported@ 0000000140081ec0     libcpmtd:syserror.obj
 0002:0000ded8       ??_C@_0BG@OEMDKMEE@operation?5would?5block@ 0000000140081ed8     libcpmtd:syserror.obj
 0002:0000def0       ??_C@_0L@BLPOFLNJ@owner?5dead@ 0000000140081ef0     libcpmtd:syserror.obj
 0002:0000df00       ??_C@_0BC@CIJDGCDI@permission?5denied@ 0000000140081f00     libcpmtd:syserror.obj
 0002:0000df18       ??_C@_0P@FNPOCJBE@protocol?5error@ 0000000140081f18     libcpmtd:syserror.obj
 0002:0000df28       ??_C@_0BH@JPPPLHJB@protocol?5not?5supported@ 0000000140081f28     libcpmtd:syserror.obj
 0002:0000df40       ??_C@_0BG@EICBIHDP@read?5only?5file?5system@ 0000000140081f40     libcpmtd:syserror.obj
 0002:0000df58       ??_C@_0BO@BJBOMOEJ@resource?5deadlock?5would?5occur@ 0000000140081f58     libcpmtd:syserror.obj
 0002:0000df78       ??_C@_0BP@LKNGHENJ@resource?5unavailable?5try?5again@ 0000000140081f78     libcpmtd:syserror.obj
 0002:0000df98       ??_C@_0BE@GOIPJJHG@result?5out?5of?5range@ 0000000140081f98     libcpmtd:syserror.obj
 0002:0000dfb0       ??_C@_0BG@MPLKFPAE@state?5not?5recoverable@ 0000000140081fb0     libcpmtd:syserror.obj
 0002:0000dfc8       ??_C@_0P@DIIFGFCG@stream?5timeout@ 0000000140081fc8     libcpmtd:syserror.obj
 0002:0000dfd8       ??_C@_0P@IPFDMIFL@text?5file?5busy@ 0000000140081fd8     libcpmtd:syserror.obj
 0002:0000dfe8       ??_C@_09KJPPMAOI@timed?5out@ 0000000140081fe8     libcpmtd:syserror.obj
 0002:0000dff8       ??_C@_0BO@HACHBEKI@too?5many?5files?5open?5in?5system@ 0000000140081ff8     libcpmtd:syserror.obj
 0002:0000e018       ??_C@_0BE@GHAFMPAH@too?5many?5files?5open@ 0000000140082018     libcpmtd:syserror.obj
 0002:0000e030       ??_C@_0P@HCOMKFCC@too?5many?5links@ 0000000140082030     libcpmtd:syserror.obj
 0002:0000e040       ??_C@_0BO@EFGOJEF@too?5many?5symbolic?5link?5levels@ 0000000140082040     libcpmtd:syserror.obj
 0002:0000e060       ??_C@_0BA@KGKGOOJA@value?5too?5large@ 0000000140082060     libcpmtd:syserror.obj
 0002:0000e070       ??_C@_0BE@MIEJDDNH@wrong?5protocol?5type@ 0000000140082070     libcpmtd:syserror.obj
 0002:0000e088       ??_C@_0O@BFJCFAAK@unknown?5error@ 0000000140082088     libcpmtd:syserror.obj
 0002:0000e098       ??_C@_0DM@CBONNKBG@d?3?2a01?2_work?26?2s?2src?2vctools?2cr@ 0000000140082098     libcpmtd:locale0.obj
 0002:0000e0e0       ??_7_Locimp@locale@std@@6B@ 00000001400820e0     libcpmtd:locale0.obj
 0002:0000e0f8       ??_C@_01NBENCBCI@?$CK@     00000001400820f8     libcpmtd:locale0.obj
 0002:0000e0fc       ??_C@_01GFHCPBMG@C@        00000001400820fc     libcpmtd:locale0.obj
 0002:0000e100       ??_C@_0DJ@HENMAIEA@d?3?2a01?2_work?26?2s?2src?2vctools?2cr@ 0000000140082100     libcpmtd:locale0.obj
 0002:0000e140       ??_C@_0DN@MGKJAJP@d?3?2a01?2_work?26?2s?2src?2vctools?2cr@ 0000000140082140     libcpmtd:_tolower.obj
 0002:0000e180       ?_BADOFF@std@@3_JB         0000000140082180     libcpmtd:ios.obj
 0002:0000e208       ??_C@_01KDCPPGHE@r@        0000000140082208     libcpmtd:fiopen.obj
 0002:0000e20c       ??_C@_01NOFIACDB@w@        000000014008220c     libcpmtd:fiopen.obj
 0002:0000e210       ??_C@_01MCMALHOG@a@        0000000140082210     libcpmtd:fiopen.obj
 0002:0000e214       ??_C@_02JDPG@rb@           0000000140082214     libcpmtd:fiopen.obj
 0002:0000e218       ??_C@_02GMLFBBN@wb@        0000000140082218     libcpmtd:fiopen.obj
 0002:0000e21c       ??_C@_02BOGAIONP@ab@       000000014008221c     libcpmtd:fiopen.obj
 0002:0000e220       ??_C@_02CBLLGHLK@r?$CL@    0000000140082220     libcpmtd:fiopen.obj
 0002:0000e224       ??_C@_02CHHAKFFB@w?$CL@    0000000140082224     libcpmtd:fiopen.obj
 0002:0000e228       ??_C@_02DPNLHKJD@a?$CL@    0000000140082228     libcpmtd:fiopen.obj
 0002:0000e22c       ??_C@_03HMFOOINA@r?$CLb@   000000014008222c     libcpmtd:fiopen.obj
 0002:0000e230       ??_C@_03ELIABIOC@w?$CLb@   0000000140082230     libcpmtd:fiopen.obj
 0002:0000e234       ??_C@_03DOPCBAKB@a?$CLb@   0000000140082234     libcpmtd:fiopen.obj
 0002:0000e340       ?nothrow@std@@3Unothrow_t@1@B 0000000140082340     libcpmtd:nothrow.obj
 0002:0000e348       ??_C@_17CNPHIMPH@?$AA?$CF?$AAl?$AAs@ 0000000140082348     libcpmtd:StlLCMapStringA.obj
 0002:0000e350       ??_C@_1FE@KNPCCODH@?$AA?$CI?$AA?$CC?$AAC?$AAo?$AAr?$AAr?$AAu?$AAp?$AAt?$AAe?$AAd?$AA?5?$AAp?$AAo?$AAi@ 0000000140082350     libcpmtd:StlLCMapStringA.obj
 0002:0000e3b0       ??_C@_1IC@BADOEGOD@?$AAd?$AA?3?$AA?2?$AAa?$AA0?$AA1?$AA?2?$AA_?$AAw?$AAo?$AAr?$AAk?$AA?2?$AA6?$AA?2@ 00000001400823b0     libcpmtd:StlLCMapStringA.obj
 0002:0000e440       ??_C@_0EE@LCICOIND@d?3?2a01?2_work?26?2s?2src?2vctools?2cr@ 0000000140082440     libcpmtd:StlLCMapStringA.obj
 0002:0000e484       ??_C@_11LOCGONAA@@         0000000140082484     libcpmtd:wlocale.obj
 0002:0000e488       ??_C@_13IMODFHAA@?$AA?9@   0000000140082488     libcpmtd:wlocale.obj
 0002:0000e48c       ??_C@_01JOAMLHOP@?9@       000000014008248c     libcpmtd:wlocale.obj
 0002:0000e490       __xmm@80000000000000008000000000000000 0000000140082490     libcpmtd:wlocale.obj
 0002:0000e548       ??_7type_info@@6B@         0000000140082548     LIBCMTD:std_type_info_static.obj
 0002:0000e560       ??_C@_1FK@OACNEHHA@?$AAt?$AAo?$AA?9?$AA?$DO?$AA_?$AAW?$AAh?$AAa?$AAt?$AA?5?$AA?$DN?$AA?$DN?$AA?5?$AAn?$AAu@ 0000000140082560     libvcruntimed:std_exception.obj
 0002:0000e5c0       ??_C@_1II@HDIONFLJ@?$AAd?$AA?3?$AA?2?$AAa?$AA0?$AA1?$AA?2?$AA_?$AAw?$AAo?$AAr?$AAk?$AA?2?$AA6?$AA?2@ 00000001400825c0     libvcruntimed:std_exception.obj
 0002:0000e648       ?s_negLengthTab@FH4@@3QBCB 0000000140082648     libvcruntimed:risctrnsctrl.obj
 0002:0000e658       ?s_shiftTab@FH4@@3QBEB     0000000140082658     libvcruntimed:risctrnsctrl.obj
 0002:0000e7a8       _pDestructExceptionObject  00000001400827a8     libvcruntimed:ehhelpers.obj
 0002:0000e7b0       ??_C@_0EM@PIKBDMFF@d?3?2a01?2_work?26?2s?2src?2vctools?2cr@ 00000001400827b0     libvcruntimed:per_thread_data.obj
 0002:0000e808       ??_7bad_exception@std@@6B@ 0000000140082808     libvcruntimed:frame.obj
 0002:0000e818       ??_C@_0O@DPKOEFFH@bad?5exception@ 0000000140082818     libvcruntimed:frame.obj
 0002:0000ef30       ??_C@_08EHJDFFNH@__based?$CI@ 0000000140082f30     libvcruntimed:undname.obj
 0002:0000ef40       ??_C@_07KOLFKCDI@__cdecl@  0000000140082f40     libvcruntimed:undname.obj
 0002:0000ef48       ??_C@_08GHMPAG@__pascal@   0000000140082f48     libvcruntimed:undname.obj
 0002:0000ef58       ??_C@_09IFJBGAPI@__stdcall@ 0000000140082f58     libvcruntimed:undname.obj
 0002:0000ef68       ??_C@_0L@NPHFGOKO@__thiscall@ 0000000140082f68     libvcruntimed:undname.obj
 0002:0000ef78       ??_C@_0L@JMKHOMEK@__fastcall@ 0000000140082f78     libvcruntimed:undname.obj
 0002:0000ef88       ??_C@_0N@BCKKPABJ@__vectorcall@ 0000000140082f88     libvcruntimed:undname.obj
 0002:0000ef98       ??_C@_09HIJEGCPM@__clrcall@ 0000000140082f98     libvcruntimed:undname.obj
 0002:0000efa4       ??_C@_06GHPCKEAG@__eabi@   0000000140082fa4     libvcruntimed:undname.obj
 0002:0000efb0       ??_C@_09IOPIDJLG@__swift_1@ 0000000140082fb0     libvcruntimed:undname.obj
 0002:0000efc0       ??_C@_09KFNFGKHF@__swift_2@ 0000000140082fc0     libvcruntimed:undname.obj
 0002:0000efd0       ??_C@_07JOMMBBKO@__ptr64@  0000000140082fd0     libvcruntimed:undname.obj
 0002:0000efd8       ??_C@_0L@PILCLIHE@__restrict@ 0000000140082fd8     libvcruntimed:undname.obj
 0002:0000efe8       ??_C@_0M@GFIIJFMG@__unaligned@ 0000000140082fe8     libvcruntimed:undname.obj
 0002:0000eff8       ??_C@_09DHDLOLLB@restrict?$CI@ 0000000140082ff8     libvcruntimed:undname.obj
 0002:0000f004       ??_C@_04NIHEBCM@?5new@     0000000140083004     libvcruntimed:undname.obj
 0002:0000f010       ??_C@_07FPCDHGMM@?5delete@ 0000000140083010     libvcruntimed:undname.obj
 0002:0000f018       ??_C@_01NEMOKFLO@?$DN@     0000000140083018     libvcruntimed:undname.obj
 0002:0000f01c       ??_C@_02GPIOPFAK@?$DO?$DO@ 000000014008301c     libvcruntimed:undname.obj
 0002:0000f020       ??_C@_02FODMEDOG@?$DM?$DM@ 0000000140083020     libvcruntimed:undname.obj
 0002:0000f024       ??_C@_01DCLJPIOD@?$CB@     0000000140083024     libvcruntimed:undname.obj
 0002:0000f028       ??_C@_02EGOFBIJA@?$DN?$DN@ 0000000140083028     libvcruntimed:undname.obj
 0002:0000f02c       ??_C@_02FDNJECIE@?$CB?$DN@ 000000014008302c     libvcruntimed:undname.obj
 0002:0000f030       ??_C@_02GPECMEKF@?$FL?$FN@ 0000000140083030     libvcruntimed:undname.obj
 0002:0000f038       ??_C@_08LHJFAFGD@operator@ 0000000140083038     libvcruntimed:undname.obj
 0002:0000f044       ??_C@_02HBOOOICD@?9?$DO@   0000000140083044     libvcruntimed:undname.obj
 0002:0000f048       ??_C@_02ECNGHCIF@?$CL?$CL@ 0000000140083048     libvcruntimed:undname.obj
 0002:0000f04c       ??_C@_02BAABKJLB@?9?9@     000000014008304c     libvcruntimed:undname.obj
 0002:0000f050       ??_C@_01MIFGBAGJ@?$CL@     0000000140083050     libvcruntimed:undname.obj
 0002:0000f054       ??_C@_01HNPIGOCE@?$CG@     0000000140083054     libvcruntimed:undname.obj
 0002:0000f058       ??_C@_03MNHNFDLC@?9?$DO?$CK@ 0000000140083058     libvcruntimed:undname.obj
 0002:0000f05c       ??_C@_01KMDKNFGN@?1@       000000014008305c     libvcruntimed:undname.obj
 0002:0000f060       ??_C@_01FGNFDNOH@?$CF@     0000000140083060     libvcruntimed:undname.obj
 0002:0000f064       ??_C@_01MNNFJEPP@?$DM@     0000000140083064     libvcruntimed:undname.obj
 0002:0000f068       ??_C@_02EHCHHCKH@?$DM?$DN@ 0000000140083068     libvcruntimed:undname.obj
 0002:0000f06c       ??_C@_01PPODPGHN@?$DO@     000000014008306c     libvcruntimed:undname.obj
 0002:0000f070       ??_C@_02EEKDKGMJ@?$DO?$DN@ 0000000140083070     libvcruntimed:undname.obj
 0002:0000f074       ??_C@_01IHBHIGKO@?0@       0000000140083074     libvcruntimed:undname.obj
 0002:0000f078       ??_C@_02HCKGKOFO@?$CI?$CJ@ 0000000140083078     libvcruntimed:undname.obj
 0002:0000f07c       ??_C@_01PJKLJHI@?$HO@      000000014008307c     libvcruntimed:undname.obj
 0002:0000f080       ??_C@_01JKBOJNNK@?$FO@     0000000140083080     libvcruntimed:undname.obj
 0002:0000f084       ??_C@_01DNKMNLPK@?$HM@     0000000140083084     libvcruntimed:undname.obj
 0002:0000f088       ??_C@_02PPKAJPJL@?$CG?$CG@ 0000000140083088     libvcruntimed:undname.obj
 0002:0000f08c       ??_C@_02NONPIBCD@?$HM?$HM@ 000000014008308c     libvcruntimed:undname.obj
 0002:0000f090       ??_C@_02FPIMKNGF@?$CK?$DN@ 0000000140083090     libvcruntimed:undname.obj
 0002:0000f094       ??_C@_02FOEOMHFC@?$CL?$DN@ 0000000140083094     libvcruntimed:undname.obj
 0002:0000f098       ??_C@_02FKMDLLOA@?9?$DN@   0000000140083098     libvcruntimed:undname.obj
 0002:0000f09c       ??_C@_02FJEHGPIO@?1?$DN@   000000014008309c     libvcruntimed:undname.obj
 0002:0000f0a0       ??_C@_02FENAOKFI@?$CF?$DN@ 00000001400830a0     libvcruntimed:undname.obj
 0002:0000f0a4       ??_C@_03IKFCCPFF@?$DO?$DO?$DN@ 00000001400830a4     libvcruntimed:undname.obj
 0002:0000f0a8       ??_C@_03CDNPDDLA@?$DM?$DM?$DN@ 00000001400830a8     libvcruntimed:undname.obj
 0002:0000f0ac       ??_C@_02FGJGFEAB@?$CG?$DN@ 00000001400830ac     libvcruntimed:undname.obj
 0002:0000f0b0       ??_C@_02DHLNPPGH@?$HM?$DN@ 00000001400830b0     libvcruntimed:undname.obj
 0002:0000f0b4       ??_C@_02MHEGNOJ@?$FO?$DN@  00000001400830b4     libvcruntimed:undname.obj
 0002:0000f0b8       ??_C@_09IFPLHPGF@?$GAvftable?8@ 00000001400830b8     libvcruntimed:undname.obj
 0002:0000f0c8       ??_C@_09BLBHBJP@?$GAvbtable?8@ 00000001400830c8     libvcruntimed:undname.obj
 0002:0000f0d8       ??_C@_07FEEIOKP@?$GAvcall?8@ 00000001400830d8     libvcruntimed:undname.obj
 0002:0000f0e0       ??_C@_08LLFFHHDJ@?$GAtypeof?8@ 00000001400830e0     libvcruntimed:undname.obj
 0002:0000f0f0       ??_C@_0BF@KDPPACIK@?$GAlocal?5static?5guard?8@ 00000001400830f0     libvcruntimed:undname.obj
 0002:0000f108       ??_C@_08OBABFOLI@?$GAstring?8@ 0000000140083108     libvcruntimed:undname.obj
 0002:0000f118       ??_C@_0BD@JDLKDPAB@?$GAvbase?5destructor?8@ 0000000140083118     libvcruntimed:undname.obj
 0002:0000f130       ??_C@_0BN@DEGPLNFK@?$GAvector?5deleting?5destructor?8@ 0000000140083130     libvcruntimed:undname.obj
 0002:0000f150       ??_C@_0BO@OBMKPJIG@?$GAdefault?5constructor?5closure?8@ 0000000140083150     libvcruntimed:undname.obj
 0002:0000f170       ??_C@_0BN@IMDCHIKM@?$GAscalar?5deleting?5destructor?8@ 0000000140083170     libvcruntimed:undname.obj
 0002:0000f190       ??_C@_0BO@PFGOCPJJ@?$GAvector?5constructor?5iterator?8@ 0000000140083190     libvcruntimed:undname.obj
 0002:0000f1b0       ??_C@_0BN@LFPFMEDL@?$GAvector?5destructor?5iterator?8@ 00000001400831b0     libvcruntimed:undname.obj
 0002:0000f1d0       ??_C@_0CE@IKBNEHA@?$GAvector?5vbase?5constructor?5itera@ 00000001400831d0     libvcruntimed:undname.obj
 0002:0000f1f8       ??_C@_0BL@NILFHHPC@?$GAvirtual?5displacement?5map?8@ 00000001400831f8     libvcruntimed:undname.obj
 0002:0000f218       ??_C@_0CB@JONCMFFK@?$GAeh?5vector?5constructor?5iterator@ 0000000140083218     libvcruntimed:undname.obj
 0002:0000f240       ??_C@_0CA@GCEOPDGL@?$GAeh?5vector?5destructor?5iterator?8@ 0000000140083240     libvcruntimed:undname.obj
 0002:0000f260       ??_C@_0CH@OOJPLCPH@?$GAeh?5vector?5vbase?5constructor?5it@ 0000000140083260     libvcruntimed:undname.obj
 0002:0000f288       ??_C@_0BL@LLKPOHJI@?$GAcopy?5constructor?5closure?8@ 0000000140083288     libvcruntimed:undname.obj
 0002:0000f2a8       ??_C@_0BA@KBCDOMBN@?$GAudt?5returning?8@ 00000001400832a8     libvcruntimed:undname.obj
 0002:0000f2b8       ??_C@_03KLGMFNMG@?$GAEH@   00000001400832b8     libvcruntimed:undname.obj
 0002:0000f2bc       ??_C@_05KHLCHHI@?$GARTTI@  00000001400832bc     libvcruntimed:undname.obj
 0002:0000f2c8       ??_C@_0BA@KKLDJDLB@?$GAlocal?5vftable?8@ 00000001400832c8     libvcruntimed:undname.obj
 0002:0000f2d8       ??_C@_0CE@IIHCMGGL@?$GAlocal?5vftable?5constructor?5clos@ 00000001400832d8     libvcruntimed:undname.obj
 0002:0000f2fc       ??_C@_06FHBGPFGH@?5new?$FL?$FN@ 00000001400832fc     libvcruntimed:undname.obj
 0002:0000f308       ??_C@_09LBNFPBCA@?5delete?$FL?$FN@ 0000000140083308     libvcruntimed:undname.obj
 0002:0000f318       ??_C@_0P@HJKNJFNN@?$GAomni?5callsig?8@ 0000000140083318     libvcruntimed:undname.obj
 0002:0000f328       ??_C@_0BL@CNOONJFP@?$GAplacement?5delete?5closure?8@ 0000000140083328     libvcruntimed:undname.obj
 0002:0000f348       ??_C@_0BN@CKNJLHMB@?$GAplacement?5delete?$FL?$FN?5closure?8@ 0000000140083348     libvcruntimed:undname.obj
 0002:0000f368       ??_C@_0CG@CFDHKGGD@?$GAmanaged?5vector?5constructor?5ite@ 0000000140083368     libvcruntimed:undname.obj
 0002:0000f390       ??_C@_0CF@IMGKMJNO@?$GAmanaged?5vector?5destructor?5iter@ 0000000140083390     libvcruntimed:undname.obj
 0002:0000f3b8       ??_C@_0CG@HLDDJMAG@?$GAeh?5vector?5copy?5constructor?5ite@ 00000001400833b8     libvcruntimed:undname.obj
 0002:0000f3e0       ??_C@_0CM@FCBBDIGB@?$GAeh?5vector?5vbase?5copy?5construct@ 00000001400833e0     libvcruntimed:undname.obj
 0002:0000f410       ??_C@_0BL@CLIPGLGB@?$GAdynamic?5initializer?5for?5?8@ 0000000140083410     libvcruntimed:undname.obj
 0002:0000f430       ??_C@_0CB@PDBIFEP@?$GAdynamic?5atexit?5destructor?5for?5@ 0000000140083430     libvcruntimed:undname.obj
 0002:0000f458       ??_C@_0CD@CGAJBKEJ@?$GAvector?5copy?5constructor?5iterat@ 0000000140083458     libvcruntimed:undname.obj
 0002:0000f480       ??_C@_0CJ@GJELGAMM@?$GAvector?5vbase?5copy?5constructor?5@ 0000000140083480     libvcruntimed:undname.obj
 0002:0000f4b0       ??_C@_0CL@FGIJHLCE@?$GAmanaged?5vector?5copy?5constructo@ 00000001400834b0     libvcruntimed:undname.obj
 0002:0000f4e0       ??_C@_0BM@PMGGMLDN@?$GAlocal?5static?5thread?5guard?8@ 00000001400834e0     libvcruntimed:undname.obj
 0002:0000f500       ??_C@_0N@BDNMDMOL@operator?5?$CC?$CC?5@ 0000000140083500     libvcruntimed:undname.obj
 0002:0000f510       ??_C@_0BC@GGEBGALA@operator?5co_await@ 0000000140083510     libvcruntimed:undname.obj
 0002:0000f528       ??_C@_0M@GAAIMMOH@operator?$DM?$DN?$DO@ 0000000140083528     libvcruntimed:undname.obj
 0002:0000f538       ??_C@_0BC@DAFEJGAK@?5Type?5Descriptor?8@ 0000000140083538     libvcruntimed:undname.obj
 0002:0000f550       ??_C@_0BM@LDKODKLH@?5Base?5Class?5Descriptor?5at?5?$CI@ 0000000140083550     libvcruntimed:undname.obj
 0002:0000f570       ??_C@_0BD@LGICGFMM@?5Base?5Class?5Array?8@ 0000000140083570     libvcruntimed:undname.obj
 0002:0000f588       ??_C@_0BN@MECKDCOJ@?5Class?5Hierarchy?5Descriptor?8@ 0000000140083588     libvcruntimed:undname.obj
 0002:0000f5a8       ??_C@_0BK@CFCOFLF@?5Complete?5Object?5Locator?8@ 00000001400835a8     libvcruntimed:undname.obj
 0002:0000f5c8       ??_C@_0BG@JNJLAMPM@?$GAanonymous?5namespace?8@ 00000001400835c8     libvcruntimed:undname.obj
 0002:0000f5f8       ??_C@_1DM@KHCHBNEB@?$AAa?$AAp?$AAi?$AA?9?$AAm?$AAs?$AA?9?$AAw?$AAi?$AAn?$AA?9?$AAc?$AAo?$AAr?$AAe@ 00000001400835f8     libvcruntimed:winapi_downlevel.obj
 0002:0000f638       ??_C@_1DK@LPPGFMPP@?$AAa?$AAp?$AAi?$AA?9?$AAm?$AAs?$AA?9?$AAw?$AAi?$AAn?$AA?9?$AAc?$AAo?$AAr?$AAe@ 0000000140083638     libvcruntimed:winapi_downlevel.obj
 0002:0000f678       ??_C@_1BC@GDMECMAK@?$AAk?$AAe?$AAr?$AAn?$AAe?$AAl?$AA3?$AA2@ 0000000140083678     libvcruntimed:winapi_downlevel.obj
 0002:0000f690       ??_C@_1BA@PFFKHIOG@?$AAa?$AAp?$AAi?$AA?9?$AAm?$AAs?$AA?9@ 0000000140083690     libvcruntimed:winapi_downlevel.obj
 0002:0000f6a0       ??_C@_1EM@LBIFGLGH@?$AAc?$AAa?$AAc?$AAh?$AAe?$AAd?$AA_?$AAh?$AAa?$AAn?$AAd?$AAl?$AAe?$AA?5?$AA?$DN@ 00000001400836a0     libvcruntimed:winapi_downlevel.obj
 0002:0000f6f0       ??_C@_1JK@BNLKABDE@?$AAd?$AA?3?$AA?2?$AAa?$AA0?$AA1?$AA?2?$AA_?$AAw?$AAo?$AAr?$AAk?$AA?2?$AA6?$AA?2@ 00000001400836f0     libvcruntimed:winapi_downlevel.obj
 0002:0000f790       ??_C@_1DI@MAHEDLDB@?$AAc?$AAa?$AAc?$AAh?$AAe?$AAd?$AA_?$AAh?$AAa?$AAn?$AAd?$AAl?$AAe?$AA?5?$AA?$DN@ 0000000140083790     libvcruntimed:winapi_downlevel.obj
 0002:0000f7d0       ??_C@_1FC@IBNCGNKL@?$AAc?$AAa?$AAc?$AAh?$AAe?$AAd?$AA_?$AAf?$AAp?$AA?5?$AA?$DN?$AA?$DN?$AA?5?$AAi?$AAn@ 00000001400837d0     libvcruntimed:winapi_downlevel.obj
 0002:0000f828       ??_C@_1CI@GDJBAGLP@?$AAc?$AAa?$AAc?$AAh?$AAe?$AAd?$AA_?$AAf?$AAp?$AA?5?$AA?$DN?$AA?$DN?$AA?5?$AAn?$AAe@ 0000000140083828     libvcruntimed:winapi_downlevel.obj
 0002:0000f858       ??_C@_08KNHFBNJ@FlsAlloc@  0000000140083858     libvcruntimed:winapi_downlevel.obj
 0002:0000f870       ??_C@_07PEJMOBNF@FlsFree@  0000000140083870     libvcruntimed:winapi_downlevel.obj
 0002:0000f880       ??_C@_0M@GDNOONDI@FlsGetValue@ 0000000140083880     libvcruntimed:winapi_downlevel.obj
 0002:0000f898       ??_C@_0M@JCPCPOEF@FlsSetValue@ 0000000140083898     libvcruntimed:winapi_downlevel.obj
 0002:0000f8b0       ??_C@_0BM@HCFOFFN@InitializeCriticalSectionEx@ 00000001400838b0     libvcruntimed:winapi_downlevel.obj
 0002:0000f8f8       ??_C@_04HJMOFLDF@Free@     00000001400838f8     libucrtd:debug_heap.obj
 0002:0000f900       ??_C@_06EFAGIKOH@Normal@   0000000140083900     libucrtd:debug_heap.obj
 0002:0000f908       ??_C@_03OGPFLFLO@CRT@      0000000140083908     libucrtd:debug_heap.obj
 0002:0000f90c       ??_C@_06KMEJCCGM@Ignore@   000000014008390c     libucrtd:debug_heap.obj
 0002:0000f914       ??_C@_06PJIGMIJB@Client@   0000000140083914     libucrtd:debug_heap.obj
 0002:0000f920       ??_C@_1CE@LJFEPPMP@?$AA_?$AAC?$AAr?$AAt?$AAC?$AAh?$AAe?$AAc?$AAk?$AAM?$AAe?$AAm?$AAo?$AAr?$AAy@ 0000000140083920     libucrtd:debug_heap.obj
 0002:0000f950       ??_C@_1GG@OCLHPJPK@?$AAm?$AAi?$AAn?$AAk?$AAe?$AAr?$AAn?$AAe?$AAl?$AA?2?$AAc?$AAr?$AAt?$AAs?$AA?2@ 0000000140083950     libucrtd:debug_heap.obj
 0002:0000f9b8       ??_C@_0DF@BBEGIFEK@Client?5hook?5allocation?5failure?5@ 00000001400839b8     libucrtd:debug_heap.obj
 0002:0000f9f0       ??_C@_0CB@CCLOLAHO@Client?5hook?5allocation?5failure?4@ 00000001400839f0     libucrtd:debug_heap.obj
 0002:0000fa18       ??_C@_0DC@JEMAGEKG@Error?3?5memory?5allocation?3?5bad?5m@ 0000000140083a18     libucrtd:debug_heap.obj
 0002:0000fa50       ??_C@_0DI@KKJPDPGM@Client?5hook?5re?9allocation?5failu@ 0000000140083a50     libucrtd:debug_heap.obj
 0002:0000fa88       ??_C@_0CE@DOFMDOL@Client?5hook?5re?9allocation?5failu@ 0000000140083a88     libucrtd:debug_heap.obj
 0002:0000fab0       ??_C@_0FA@EFEIGJKG@Error?3?5memory?5allocation?3?5bad?5m@ 0000000140083ab0     libucrtd:debug_heap.obj
 0002:0000fb00       ??_C@_0EM@LGFLMAGJ@The?5Block?5at?50x?$CFp?5was?5allocated@ 0000000140083b00     libucrtd:debug_heap.obj
 0002:0000fb50       ??_C@_1DM@DEDLGNML@?$AA_?$AAC?$AAr?$AAt?$AAI?$AAs?$AAV?$AAa?$AAl?$AAi?$AAd?$AAH?$AAe?$AAa?$AAp@ 0000000140083b50     libucrtd:debug_heap.obj
 0002:0000fb90       ??_C@_1PC@MCGKJLN@?$AAo?$AAl?$AAd?$AA_?$AAh?$AAe?$AAa?$AAd?$AA?9?$AA?$DO?$AA_?$AAl?$AAi?$AAn?$AAe@ 0000000140083b90     libucrtd:debug_heap.obj
 0002:0000fc88       ??_C@_0DA@HFBKENN@Error?3?5possible?5heap?5corruption@ 0000000140083c88     libucrtd:debug_heap.obj
 0002:0000fcc0       ??_C@_1JM@MCMEPJEP@?$AAr?$AAe?$AAa?$AAl?$AAl?$AAo?$AAc?$AAa?$AAt?$AAi?$AAo?$AAn?$AA_?$AAi?$AAs@ 0000000140083cc0     libucrtd:debug_heap.obj
 0002:0000fd60       ??_C@_1DM@LNOPKAIJ@?$AA_?$AA_?$AAa?$AAc?$AAr?$AAt?$AA_?$AAl?$AAa?$AAs?$AAt?$AA_?$AAb?$AAl?$AAo@ 0000000140083d60     libucrtd:debug_heap.obj
 0002:0000fda0       ??_C@_1DO@HABCJBHO@?$AA_?$AA_?$AAa?$AAc?$AAr?$AAt?$AA_?$AAf?$AAi?$AAr?$AAs?$AAt?$AA_?$AAb?$AAl@ 0000000140083da0     libucrtd:debug_heap.obj
 0002:0000fde0       ??_C@_1CC@CKEAHJPH@?$AAb?$AAl?$AAo?$AAc?$AAk?$AA?5?$AA?$CB?$AA?$DN?$AA?5?$AAn?$AAu?$AAl?$AAl?$AAp?$AAt@ 0000000140083de0     libucrtd:debug_heap.obj
 0002:0000fe10       ??_C@_0EJ@HEIBCIMJ@The?5Block?5at?50x?$CFp?5was?5allocated@ 0000000140083e10     libucrtd:debug_heap.obj
 0002:0000fe60       ??_C@_0BL@KEIPLFAC@Client?5hook?5free?5failure?4?6@ 0000000140083e60     libucrtd:debug_heap.obj
 0002:0000fe80       ??_C@_1FA@KDNEBILF@?$AAi?$AAs?$AA_?$AAb?$AAl?$AAo?$AAc?$AAk?$AA_?$AAt?$AAy?$AAp?$AAe?$AA_?$AAv@ 0000000140083e80     libucrtd:debug_heap.obj
 0002:0000fed0       ??_C@_0KI@JGFOHMEB@HEAP?5CORRUPTION?5DETECTED?3?5befor@ 0000000140083ed0     libucrtd:debug_heap.obj
 0002:0000ff80       ??_C@_0IK@PJCGLBOB@HEAP?5CORRUPTION?5DETECTED?3?5befor@ 0000000140083f80     libucrtd:debug_heap.obj
 0002:00010010       ??_C@_0KE@MBMNHHHN@HEAP?5CORRUPTION?5DETECTED?3?5after@ 0000000140084010     libucrtd:debug_heap.obj
 0002:000100c0       ??_C@_0IG@LEMBDCJK@HEAP?5CORRUPTION?5DETECTED?3?5after@ 00000001400840c0     libucrtd:debug_heap.obj
 0002:00010150       ??_C@_1OK@GFEOEJAF@?$AAh?$AAe?$AAa?$AAd?$AAe?$AAr?$AA?9?$AA?$DO?$AA_?$AAl?$AAi?$AAn?$AAe?$AA_?$AAn@ 0000000140084150     libucrtd:debug_heap.obj
 0002:00010240       ??_C@_1ME@GFALMLNA@?$AAh?$AAe?$AAa?$AAd?$AAe?$AAr?$AA?9?$AA?$DO?$AA_?$AAb?$AAl?$AAo?$AAc?$AAk?$AA_@ 0000000140084240     libucrtd:debug_heap.obj
 0002:00010308       ??_C@_1DI@ILNOPEPI@?$AA_?$AA_?$AAa?$AAc?$AAr?$AAt?$AA_?$AAl?$AAa?$AAs?$AAt?$AA_?$AAb?$AAl?$AAo@ 0000000140084308     libucrtd:debug_heap.obj
 0002:00010340       ??_C@_1DK@KEHFGDIJ@?$AA_?$AA_?$AAa?$AAc?$AAr?$AAt?$AA_?$AAf?$AAi?$AAr?$AAs?$AAt?$AA_?$AAb?$AAl@ 0000000140084340     libucrtd:debug_heap.obj
 0002:00010380       ??_C@_1BG@MBKOGDLD@?$AA_?$AAm?$AAs?$AAi?$AAz?$AAe?$AA_?$AAd?$AAb?$AAg@ 0000000140084380     libucrtd:debug_heap.obj
 0002:00010398       ??_C@_07OHKEFPKJ@DAMAGED@  0000000140084398     libucrtd:debug_heap.obj
 0002:000103a0       ??_C@_0KA@IHNJJKPL@HEAP?5CORRUPTION?5DETECTED?3?5on?5to@ 00000001400843a0     libucrtd:debug_heap.obj
 0002:00010440       ??_C@_0IC@BBJIOOJH@HEAP?5CORRUPTION?5DETECTED?3?5on?5to@ 0000000140084440     libucrtd:debug_heap.obj
 0002:000104d0       ??_C@_0EG@DGJMPDBH@?$CFhs?5located?5at?50x?$CFp?5is?5?$CFIu?5byte@ 00000001400844d0     libucrtd:debug_heap.obj
 0002:00010518       ??_C@_0CI@JMLBEDHJ@?$CFhs?5located?5at?50x?$CFp?5is?5?$CFIu?5byte@ 0000000140084518     libucrtd:debug_heap.obj
 0002:00010540       ??_C@_0EG@GPFHANHO@Cycle?5in?5block?5list?5detected?5wh@ 0000000140084540     libucrtd:debug_heap.obj
 0002:00010588       ??_C@_0BJ@ELMAOCAJ@Heap?5validation?5failed?4?6@ 0000000140084588     libucrtd:debug_heap.obj
 0002:000105b0       ??_C@_1IE@BBIFDGEB@?$AAn?$AAe?$AAw?$AA_?$AAb?$AAi?$AAt?$AAs?$AA?5?$AA?$DN?$AA?$DN?$AA?5?$AA_?$AAC?$AAR@ 00000001400845b0     libucrtd:debug_heap.obj
 0002:00010638       ??_C@_1BO@GJFDNMNF@?$AA_?$AAC?$AAr?$AAt?$AAS?$AAe?$AAt?$AAD?$AAb?$AAg?$AAF?$AAl?$AAa?$AAg@ 0000000140084638     libucrtd:debug_heap.obj
 0002:00010658       ??_C@_1CC@BBKMONGA@?$AAs?$AAt?$AAa?$AAt?$AAe?$AA?5?$AA?$CB?$AA?$DN?$AA?5?$AAn?$AAu?$AAl?$AAl?$AAp?$AAt@ 0000000140084658     libucrtd:debug_heap.obj
 0002:00010680       ??_C@_1CE@NJJKELF@?$AA_?$AAC?$AAr?$AAt?$AAM?$AAe?$AAm?$AAC?$AAh?$AAe?$AAc?$AAk?$AAp?$AAo?$AAi@ 0000000140084680     libucrtd:debug_heap.obj
 0002:000106a8       ??_C@_0DP@LEFMFBOD@Bad?5memory?5block?5found?5at?50x?$CFp?4@ 00000001400846a8     libucrtd:debug_heap.obj
 0002:000106e8       ??_C@_0CB@EAAIGELO@Bad?5memory?5block?5found?5at?50x?$CFp?4@ 00000001400846e8     libucrtd:debug_heap.obj
 0002:0001070c       ??_C@_05MKKEDADM@?$CF?42X?5@ 000000014008470c     libucrtd:debug_heap.obj
 0002:00010718       ??_C@_1CC@DIJAHFFJ@?$AAp?$AAr?$AAi?$AAn?$AAt?$AA_?$AAb?$AAl?$AAo?$AAc?$AAk?$AA_?$AAd?$AAa?$AAt@ 0000000140084718     libucrtd:debug_heap.obj
 0002:00010740       ??_C@_1BI@KALLJECN@?$AA?$CI?$AA?$CK?$AA_?$AAe?$AAr?$AAr?$AAn?$AAo?$AA?$CI?$AA?$CJ?$AA?$CJ@ 0000000140084740     libucrtd:debug_heap.obj
 0002:00010758       ??_C@_0BA@HJBKCELP@?5Data?3?5?$DM?$CFs?$DO?5?$CFs?6@ 0000000140084758     libucrtd:debug_heap.obj
 0002:00010768       ??_C@_0BE@KCIPKCIA@Dumping?5objects?5?9?$DO?6@ 0000000140084768     libucrtd:debug_heap.obj
 0002:00010780       ??_C@_0BE@OIEFNFL@?$CDFile?5Error?$CD?$CI?$CFd?$CJ?5?3?5@ 0000000140084780     libucrtd:debug_heap.obj
 0002:00010798       ??_C@_0L@JMEFFCCJ@?$CFhs?$CI?$CFd?$CJ?5?3?5@ 0000000140084798     libucrtd:debug_heap.obj
 0002:000107a4       ??_C@_06PKLGBFGM@?$HL?$CFld?$HN?5@ 00000001400847a4     libucrtd:debug_heap.obj
 0002:000107b0       ??_C@_0DD@GHNAAKBB@client?5block?5at?50x?$CFp?0?5subtype?5?$CF@ 00000001400847b0     libucrtd:debug_heap.obj
 0002:000107e8       ??_C@_0CH@FAGDDGPN@normal?5block?5at?50x?$CFp?0?5?$CFIu?5bytes@ 00000001400847e8     libucrtd:debug_heap.obj
 0002:00010810       ??_C@_0DA@MDLBNIBM@crt?5block?5at?50x?$CFp?0?5subtype?5?$CFx?0?5@ 0000000140084810     libucrtd:debug_heap.obj
 0002:00010840       ??_C@_0BH@GFGKJDCO@Object?5dump?5complete?4?6@ 0000000140084840     libucrtd:debug_heap.obj
 0002:00010858       ??_C@_0BI@JBFPOEJA@Detected?5memory?5leaks?$CB?6@ 0000000140084858     libucrtd:debug_heap.obj
 0002:00010888       ??_C@_1BA@GLMCNLEM@?$AAW?$AAa?$AAr?$AAn?$AAi?$AAn?$AAg@ 0000000140084888     libucrtd:dbgrpt.obj
 0002:00010898       ??_C@_1M@ILHOPKA@?$AAE?$AAr?$AAr?$AAo?$AAr@ 0000000140084898     libucrtd:dbgrpt.obj
 0002:000108a8       ??_C@_1CC@CGHMNGDG@?$AAA?$AAs?$AAs?$AAe?$AAr?$AAt?$AAi?$AAo?$AAn?$AA?5?$AAF?$AAa?$AAi?$AAl?$AAe@ 00000001400848a8     libucrtd:dbgrpt.obj
 0002:000108e0       ??_C@_1OG@PMPPFHAF@?$AA?6?$AA?6?$AAF?$AAo?$AAr?$AA?5?$AAi?$AAn?$AAf?$AAo?$AAr?$AAm?$AAa?$AAt?$AAi@ 00000001400848e0     libucrtd:dbgrpt.obj
 0002:000109d0       ??_C@_1MG@LJLILFFD@?$AAD?$AAe?$AAb?$AAu?$AAg?$AA?5?$AA?$CF?$AAl?$AAs?$AA?$CB?$AA?6?$AA?6?$AAP?$AAr?$AAo@ 00000001400849d0     libucrtd:dbgrpt.obj
 0002:00010aa0       ??_C@_1MG@OODCADGL@?$AAD?$AAe?$AAb?$AAu?$AAg?$AA?5?$AA?$CF?$AAl?$AAs?$AA?$CB?$AA?6?$AA?6?$AAP?$AAr?$AAo@ 0000000140084aa0     libucrtd:dbgrpt.obj
 0002:00010b68       ??_C@_0BH@DNAGHKFM@?$DMprogram?5name?5unknown?$DO@ 0000000140084b68     libucrtd:dbgrpt.obj
 0002:00010b80       ??_C@_1CO@EAEJAADC@?$AA?$DM?$AAp?$AAr?$AAo?$AAg?$AAr?$AAa?$AAm?$AA?5?$AAn?$AAa?$AAm?$AAe?$AA?5?$AAu@ 0000000140084b80     libucrtd:dbgrpt.obj
 0002:00010bb0       ??_C@_1FO@GMJDLAJD@?$AAm?$AAi?$AAn?$AAk?$AAe?$AAr?$AAn?$AAe?$AAl?$AA?2?$AAc?$AAr?$AAt?$AAs?$AA?2@ 0000000140084bb0     libucrtd:dbgrpt.obj
 0002:00010c10       ??_C@_1CM@EHMOGBJJ@?$AAc?$AAo?$AAm?$AAm?$AAo?$AAn?$AA_?$AAm?$AAe?$AAs?$AAs?$AAa?$AAg?$AAe?$AA_@ 0000000140084c10     libucrtd:dbgrpt.obj
 0002:00010c40       ??_C@_1PE@ECNALGCA@?$AAt?$AAr?$AAa?$AAi?$AAt?$AAs?$AA?3?$AA?3?$AAt?$AAc?$AAs?$AAc?$AAp?$AAy?$AA_@ 0000000140084c40     libucrtd:dbgrpt.obj
 0002:00010d38       ??_C@_1BK@PEDCIPMA@?$AAE?$AAx?$AAp?$AAr?$AAe?$AAs?$AAs?$AAi?$AAo?$AAn?$AA?3?$AA?5@ 0000000140084d38     libucrtd:dbgrpt.obj
 0002:00010d54       ??_C@_15IABLJNFO@?$AA?6?$AA?6@ 0000000140084d54     libucrtd:dbgrpt.obj
 0002:00010d60       ??_C@_1BA@GLLGCPCK@?$AA?6?$AAL?$AAi?$AAn?$AAe?$AA?3?$AA?5@ 0000000140084d60     libucrtd:dbgrpt.obj
 0002:00010d70       ??_C@_1BA@LNHECFIM@?$AA?6?$AAF?$AAi?$AAl?$AAe?$AA?3?$AA?5@ 0000000140084d70     libucrtd:dbgrpt.obj
 0002:00010d80       ??_C@_17LGKOMLJ@?$AA?4?$AA?4?$AA?4@ 0000000140084d80     libucrtd:dbgrpt.obj
 0002:00010d88       ??_C@_1BE@CGCJKGHI@?$AA?6?$AAM?$AAo?$AAd?$AAu?$AAl?$AAe?$AA?3?$AA?5@ 0000000140084d88     libucrtd:dbgrpt.obj
 0002:00010da0       ??_C@_1JM@IBOIJEOO@?$AAw?$AAc?$AAs?$AAc?$AAp?$AAy?$AA_?$AAs?$AA?$CI?$AAm?$AAe?$AAs?$AAs?$AAa?$AAg@ 0000000140084da0     libucrtd:dbgrpt.obj
 0002:00010e40       ??_C@_1FG@BBOLDHGF@?$AA_?$AAC?$AAr?$AAt?$AAD?$AAb?$AAg?$AAR?$AAe?$AAp?$AAo?$AAr?$AAt?$AA?3?$AA?5@ 0000000140084e40     libucrtd:dbgrpt.obj
 0002:00010ea0       ??_C@_1EK@MBDPDCGA@?$AAM?$AAi?$AAc?$AAr?$AAo?$AAs?$AAo?$AAf?$AAt?$AA?5?$AAV?$AAi?$AAs?$AAu?$AAa@ 0000000140084ea0     libucrtd:dbgrpt.obj
 0002:00010ef0       ??_C@_1BO@KGGHBFPG@?$AAe?$AAx?$AAp?$AAp?$AAt?$AAr?$AA?5?$AA?$CB?$AA?$DN?$AA?5?$AAN?$AAU?$AAL?$AAL@ 0000000140084ef0     libucrtd:frexp.obj
 0002:00010f10       ??_C@_1FI@OJDKKACH@?$AAm?$AAi?$AAn?$AAk?$AAe?$AAr?$AAn?$AAe?$AAl?$AA?2?$AAc?$AAr?$AAt?$AAs?$AA?2@ 0000000140084f10     libucrtd:frexp.obj
 0002:00010f68       ??_C@_1M@KFLMCEDC@?$AAf?$AAr?$AAe?$AAx?$AAp@ 0000000140084f68     libucrtd:frexp.obj
 0002:00010f78       __real@0000000000000000    0000000140084f78     libucrtd:frexp.obj
 0002:00010f80       __real@3ff0000000000000    0000000140084f80     libucrtd:frexp.obj
 0002:00010f88       __real@8000000000000000    0000000140084f88     libucrtd:frexp.obj
 0002:00010f90       ??_C@_1BI@BGOHAHKC@?$AAm?$AAs?$AAc?$AAo?$AAr?$AAe?$AAe?$AA?4?$AAd?$AAl?$AAl@ 0000000140084f90     libucrtd:exit.obj
 0002:00010fa8       ??_C@_0P@MIGLKIOC@CorExitProcess@ 0000000140084fa8     libucrtd:exit.obj
 0002:00010fb8       ??_C@_0CP@GDJHIDC@minkernel?2crts?2ucrt?2src?2appcrt?2@ 0000000140084fb8     libucrtd:_file.obj
 0002:00010fe8       ??_C@_1DC@OGOLMDEL@?$AAp?$AAu?$AAb?$AAl?$AAi?$AAc?$AA_?$AAs?$AAt?$AAr?$AAe?$AAa?$AAm?$AA?5?$AA?$CB@ 0000000140084fe8     libucrtd:_file.obj
 0002:00011020       ??_C@_1FO@IEGKHABE@?$AAm?$AAi?$AAn?$AAk?$AAe?$AAr?$AAn?$AAe?$AAl?$AA?2?$AAc?$AAr?$AAt?$AAs?$AA?2@ 0000000140085020     libucrtd:_file.obj
 0002:00011080       ??_C@_1DI@PJGMCDLC@?$AA_?$AAg?$AAe?$AAt?$AA_?$AAs?$AAt?$AAr?$AAe?$AAa?$AAm?$AA_?$AAb?$AAu?$AAf@ 0000000140085080     libucrtd:_file.obj
 0002:000110b8       ??_C@_1BO@MHPFFFJJ@?$AAs?$AAt?$AAr?$AAe?$AAa?$AAm?$AA?4?$AAv?$AAa?$AAl?$AAi?$AAd?$AA?$CI?$AA?$CJ@ 00000001400850b8     libucrtd:fclose.obj
 0002:000110e0       ??_C@_1GA@DKNOMDCL@?$AAm?$AAi?$AAn?$AAk?$AAe?$AAr?$AAn?$AAe?$AAl?$AA?2?$AAc?$AAr?$AAt?$AAs?$AA?2@ 00000001400850e0     libucrtd:fclose.obj
 0002:00011140       ??_C@_1O@EGMJNCOI@?$AAf?$AAc?$AAl?$AAo?$AAs?$AAe@ 0000000140085140     libucrtd:fclose.obj
 0002:00011150       ??_C@_1BO@JINCABEC@?$AA_?$AAf?$AAc?$AAl?$AAo?$AAs?$AAe?$AA_?$AAn?$AAo?$AAl?$AAo?$AAc?$AAk@ 0000000140085150     libucrtd:fclose.obj
 0002:00011170       ??_C@_1BDG@MKBKGHOH@?$AA?$CI?$AA?5?$AA?$CI?$AA_?$AAS?$AAt?$AAr?$AAe?$AAa?$AAm?$AA?4?$AAi?$AAs?$AA_?$AAs@ 0000000140085170     libucrtd:fgetc.obj
 0002:000112b0       ??_C@_1FO@HEEKIEFN@?$AAm?$AAi?$AAn?$AAk?$AAe?$AAr?$AAn?$AAe?$AAl?$AA?2?$AAc?$AAr?$AAt?$AAs?$AA?2@ 00000001400852b0     libucrtd:fgetc.obj
 0002:00011310       ??_C@_1BM@ODJEACKA@?$AA_?$AAf?$AAg?$AAe?$AAt?$AAc?$AA_?$AAn?$AAo?$AAl?$AAo?$AAc?$AAk@ 0000000140085310     libucrtd:fgetc.obj
 0002:00011330       ??_C@_1M@FBFFFGJE@?$AAf?$AAg?$AAe?$AAt?$AAc@ 0000000140085330     libucrtd:fgetc.obj
 0002:00011340       ??_C@_1CE@JLIJLEKO@?$AAs?$AAt?$AAr?$AAe?$AAa?$AAm?$AA?5?$AA?$CB?$AA?$DN?$AA?5?$AAn?$AAu?$AAl?$AAl?$AAp@ 0000000140085340     libucrtd:fgetpos.obj
 0002:00011370       ??_C@_1GC@KIBACKPA@?$AAm?$AAi?$AAn?$AAk?$AAe?$AAr?$AAn?$AAe?$AAl?$AA?2?$AAc?$AAr?$AAt?$AAs?$AA?2@ 0000000140085370     libucrtd:fgetpos.obj
 0002:000113d8       ??_C@_1BA@PDKPGILH@?$AAf?$AAg?$AAe?$AAt?$AAp?$AAo?$AAs@ 00000001400853d8     libucrtd:fgetpos.obj
 0002:000113e8       ??_C@_1CI@HCABHFJ@?$AAp?$AAo?$AAs?$AAi?$AAt?$AAi?$AAo?$AAn?$AA?5?$AA?$CB?$AA?$DN?$AA?5?$AAn?$AAu?$AAl@ 00000001400853e8     libucrtd:fgetpos.obj
 0002:00011410       ??_C@_1FO@FNOAOMLP@?$AAm?$AAi?$AAn?$AAk?$AAe?$AAr?$AAn?$AAe?$AAl?$AA?2?$AAc?$AAr?$AAt?$AAs?$AA?2@ 0000000140085410     libucrtd:fputc.obj
 0002:00011470       ??_C@_1M@OIJMPNCO@?$AAf?$AAp?$AAu?$AAt?$AAc@ 0000000140085470     libucrtd:fputc.obj
 0002:00011480       ??_C@_1FO@CIJKACCM@?$AAm?$AAi?$AAn?$AAk?$AAe?$AAr?$AAn?$AAe?$AAl?$AA?2?$AAc?$AAr?$AAt?$AAs?$AA?2@ 0000000140085480     libucrtd:fread.obj
 0002:000114e0       ??_C@_1BA@CMLCEIGG@?$AAf?$AAr?$AAe?$AAa?$AAd?$AA_?$AAs@ 00000001400854e0     libucrtd:fread.obj
 0002:000114f0       ??_C@_1CE@MCCHPLBM@?$AAb?$AAu?$AAf?$AAf?$AAe?$AAr?$AA?5?$AA?$CB?$AA?$DN?$AA?5?$AAn?$AAu?$AAl?$AAl?$AAp@ 00000001400854f0     libucrtd:fread.obj
 0002:00011518       ??_C@_1CA@IDPOGFL@?$AA_?$AAf?$AAr?$AAe?$AAa?$AAd?$AA_?$AAn?$AAo?$AAl?$AAo?$AAc?$AAk?$AA_?$AAs@ 0000000140085518     libucrtd:fread.obj
 0002:00011540       ??_C@_1FG@KLKDPCLL@?$AAe?$AAl?$AAe?$AAm?$AAe?$AAn?$AAt?$AA_?$AAc?$AAo?$AAu?$AAn?$AAt?$AA?5?$AA?$DM@ 0000000140085540     libucrtd:fread.obj
 0002:000115a0       ??_C@_1LG@DCNDJCHK@?$AA?$CI?$AA?$CC?$AAI?$AAn?$AAc?$AAo?$AAn?$AAs?$AAi?$AAs?$AAt?$AAe?$AAn?$AAt?$AA?5@ 00000001400855a0     libucrtd:fread.obj
 0002:00011658       ??_C@_1DA@DKEFLDMG@?$AA?$CI?$AA?$CC?$AAb?$AAu?$AAf?$AAf?$AAe?$AAr?$AA?5?$AAt?$AAo?$AAo?$AA?5?$AAs?$AAm@ 0000000140085658     libucrtd:fread.obj
 0002:00011690       ??_C@_1GC@FNEGPDLB@?$AAm?$AAi?$AAn?$AAk?$AAe?$AAr?$AAn?$AAe?$AAl?$AA?2?$AAc?$AAr?$AAt?$AAs?$AA?2@ 0000000140085690     libucrtd:fsetpos.obj
 0002:000116f8       ??_C@_1BA@IMLBNLMA@?$AAf?$AAs?$AAe?$AAt?$AAp?$AAo?$AAs@ 00000001400856f8     libucrtd:fsetpos.obj
 0002:00011710       ??_C@_1FO@KMPAKEKH@?$AAm?$AAi?$AAn?$AAk?$AAe?$AAr?$AAn?$AAe?$AAl?$AA?2?$AAc?$AAr?$AAt?$AAs?$AA?2@ 0000000140085710     libucrtd:fseek.obj
 0002:00011770       ??_C@_1BK@HEPGDNON@?$AAc?$AAo?$AAm?$AAm?$AAo?$AAn?$AA_?$AAf?$AAs?$AAe?$AAe?$AAk@ 0000000140085770     libucrtd:fseek.obj
 0002:00011790       ??_C@_1HO@BJGCGJL@?$AAw?$AAh?$AAe?$AAn?$AAc?$AAe?$AA?5?$AA?$DN?$AA?$DN?$AA?5?$AAS?$AAE?$AAE?$AAK?$AA_@ 0000000140085790     libucrtd:fseek.obj
 0002:00011810       ??_C@_1GA@JFCHAOOC@?$AAm?$AAi?$AAn?$AAk?$AAe?$AAr?$AAn?$AAe?$AAl?$AA?2?$AAc?$AAr?$AAt?$AAs?$AA?2@ 0000000140085810     libucrtd:fwrite.obj
 0002:00011870       ??_C@_1O@KLNKIMAP@?$AAf?$AAw?$AAr?$AAi?$AAt?$AAe@ 0000000140085870     libucrtd:fwrite.obj
 0002:00011880       ??_C@_1BO@JGPKCBCE@?$AA_?$AAf?$AAw?$AAr?$AAi?$AAt?$AAe?$AA_?$AAn?$AAo?$AAl?$AAo?$AAc?$AAk@ 0000000140085880     libucrtd:fwrite.obj
 0002:000118a0       ??_C@_1JG@PCJFJNAC@?$AA?$CI?$AA?$CC?$AAF?$AAl?$AAu?$AAs?$AAh?$AA?5?$AAb?$AAe?$AAt?$AAw?$AAe?$AAe?$AAn@ 00000001400858a0     libucrtd:fwrite.obj
 0002:00011938       ??_C@_0DB@BJFCCEBD@minkernel?2crts?2ucrt?2src?2appcrt?2@ 0000000140085938     libucrtd:setvbuf.obj
 0002:00011970       ??_C@_1GC@NAMEPLDD@?$AAm?$AAi?$AAn?$AAk?$AAe?$AAr?$AAn?$AAe?$AAl?$AA?2?$AAc?$AAr?$AAt?$AAs?$AA?2@ 0000000140085970     libucrtd:setvbuf.obj
 0002:000119d8       ??_C@_1BA@OGODIODK@?$AAs?$AAe?$AAt?$AAv?$AAb?$AAu?$AAf@ 00000001400859d8     libucrtd:setvbuf.obj
 0002:000119f0       ??_C@_1GG@CBGCKJPC@?$AAt?$AAy?$AAp?$AAe?$AA?5?$AA?$DN?$AA?$DN?$AA?5?$AA_?$AAI?$AAO?$AAN?$AAB?$AAF?$AA?5@ 00000001400859f0     libucrtd:setvbuf.obj
 0002:00011a60       ??_C@_1HK@PBPJKDDM@?$AA2?$AA?5?$AA?$DM?$AA?$DN?$AA?5?$AAb?$AAu?$AAf?$AAf?$AAe?$AAr?$AA_?$AAs?$AAi?$AAz@ 0000000140085a60     libucrtd:setvbuf.obj
 0002:00011ae0       ??_C@_1GA@JPJEOEOF@?$AAm?$AAi?$AAn?$AAk?$AAe?$AAr?$AAn?$AAe?$AAl?$AA?2?$AAc?$AAr?$AAt?$AAs?$AA?2@ 0000000140085ae0     libucrtd:ungetc.obj
 0002:00011b40       ??_C@_1O@JDPLECOK@?$AAu?$AAn?$AAg?$AAe?$AAt?$AAc@ 0000000140085b40     libucrtd:ungetc.obj
 0002:00011b50       ??_C@_1BO@OLMLKKEA@?$AA_?$AAu?$AAn?$AAg?$AAe?$AAt?$AAc?$AA_?$AAn?$AAo?$AAl?$AAo?$AAc?$AAk@ 0000000140085b50     libucrtd:ungetc.obj
 0002:00011b70       ?standard_lookup_table_spectre@__crt_stdio_output@@3V?$spectre_mitigated_lookup_table@Ustate_transition_pair@__crt_stdio_output@@$0IA@@1@B 0000000140085b70     libucrtd:output.obj
 0002:00011f70       ?format_validation_lookup_table_spectre@__crt_stdio_output@@3V?$spectre_mitigated_lookup_table@Ustate_transition_pair@__crt_stdio_output@@$0IA@@1@B 0000000140085f70     libucrtd:output.obj
 0002:00012370       ??_C@_1GC@LCDLABEA@?$AAm?$AAi?$AAn?$AAk?$AAe?$AAr?$AAn?$AAe?$AAl?$AA?2?$AAc?$AAr?$AAt?$AAs?$AA?2@ 0000000140086370     libucrtd:output.obj
 0002:000123e0       ??_C@_1GA@MOBAPGIO@?$AAm?$AAi?$AAn?$AAk?$AAe?$AAr?$AAn?$AAe?$AAl?$AA?2?$AAc?$AAr?$AAt?$AAs?$AA?2@ 00000001400863e0     libucrtd:output.obj
 0002:00012440       ??_C@_1CA@GELIJBMC@?$AAc?$AAo?$AAm?$AAm?$AAo?$AAn?$AA_?$AAv?$AAf?$AAp?$AAr?$AAi?$AAn?$AAt?$AAf@ 0000000140086440     libucrtd:output.obj
 0002:00012460       ??_C@_1CE@EAKLPBKK@?$AAf?$AAo?$AAr?$AAm?$AAa?$AAt?$AA?5?$AA?$CB?$AA?$DN?$AA?5?$AAn?$AAu?$AAl?$AAl?$AAp@ 0000000140086460     libucrtd:output.obj
 0002:00012488       ??_C@_1CA@PIMGHCEK@?$AAc?$AAo?$AAm?$AAm?$AAo?$AAn?$AA_?$AAv?$AAs?$AAp?$AAr?$AAi?$AAn?$AAt?$AAf@ 0000000140086488     libucrtd:output.obj
 0002:000124b0       ??_C@_1EO@EGEEFEFM@?$AAb?$AAu?$AAf?$AAf?$AAe?$AAr?$AA_?$AAc?$AAo?$AAu?$AAn?$AAt?$AA?5?$AA?$DN?$AA?$DN@ 00000001400864b0     libucrtd:output.obj
 0002:00012500       ??_C@_1CE@JEILLNB@?$AAc?$AAo?$AAm?$AAm?$AAo?$AAn?$AA_?$AAv?$AAs?$AAp?$AAr?$AAi?$AAn?$AAt?$AAf@ 0000000140086500     libucrtd:output.obj
 0002:00012530       ??_C@_1EM@OAFHAOLH@?$AAb?$AAu?$AAf?$AAf?$AAe?$AAr?$AA?5?$AA?$CB?$AA?$DN?$AA?5?$AAn?$AAu?$AAl?$AAl?$AAp@ 0000000140086530     libucrtd:output.obj
 0002:00012580       ??_C@_1DA@HPBFKMEB@?$AA?$CI?$AA?$CC?$AAB?$AAu?$AAf?$AAf?$AAe?$AAr?$AA?5?$AAt?$AAo?$AAo?$AA?5?$AAs?$AAm@ 0000000140086580     libucrtd:output.obj
 0002:000125b0       ??_C@_1CG@LHFJHFBB@?$AAc?$AAo?$AAm?$AAm?$AAo?$AAn?$AA_?$AAv?$AAs?$AAn?$AAp?$AAr?$AAi?$AAn?$AAt@ 00000001400865b0     libucrtd:output.obj
 0002:000125d8       ??_C@_1CM@JOIJBMEM@?$AA_?$AAf?$AAo?$AAr?$AAm?$AAa?$AAt?$AA_?$AAi?$AAt?$AA?5?$AA?$CB?$AA?$DN?$AA?5?$AAn@ 00000001400865d8     libucrtd:output.obj
 0002:00012610       ??_C@_1HA@DMAAKIJP@?$AAm?$AAi?$AAn?$AAk?$AAe?$AAr?$AAn?$AAe?$AAl?$AA?2?$AAc?$AAr?$AAt?$AAs?$AA?2@ 0000000140086610     libucrtd:output.obj
 0002:00012680       ??_C@_1EE@DMAIGNBG@?$AA?$CI?$AA?$CC?$AAI?$AAn?$AAc?$AAo?$AAr?$AAr?$AAe?$AAc?$AAt?$AA?5?$AAf?$AAo?$AAr@ 0000000140086680     libucrtd:output.obj
 0002:000126d0       ??_C@_1BLI@IKDKMDHI@?$AA_?$AA_?$AAc?$AAr?$AAt?$AA_?$AAs?$AAt?$AAd?$AAi?$AAo?$AA_?$AAo?$AAu?$AAt@ 00000001400866d0     libucrtd:output.obj
 0002:00012890       ??_C@_1BLI@EEAAPJD@?$AA_?$AA_?$AAc?$AAr?$AAt?$AA_?$AAs?$AAt?$AAd?$AAi?$AAo?$AA_?$AAo?$AAu?$AAt@ 0000000140086890     libucrtd:output.obj
 0002:00012a50       ??_C@_1FG@OBJBDPAC@?$AA?$CI?$AA?$CC?$AAN?$AA?5?$AAl?$AAe?$AAn?$AAg?$AAt?$AAh?$AA?5?$AAm?$AAo?$AAd?$AAi@ 0000000140086a50     libucrtd:output.obj
 0002:00012ab0       ??_C@_1EC@GJPNJDCN@?$AA_?$AAl?$AAe?$AAn?$AAg?$AAt?$AAh?$AA?5?$AA?$DN?$AA?$DN?$AA?5?$AAl?$AAe?$AAn?$AAg@ 0000000140086ab0     libucrtd:output.obj
 0002:00012af8       ??_C@_1DG@CEJKFDMO@?$AAs?$AAt?$AAa?$AAt?$AAe?$AA_?$AAc?$AAa?$AAs?$AAe?$AA_?$AAn?$AAo?$AAr?$AAm@ 0000000140086af8     libucrtd:output.obj
 0002:00012b30       ??_C@_1BMI@KBPJOJJI@?$AA_?$AA_?$AAc?$AAr?$AAt?$AA_?$AAs?$AAt?$AAd?$AAi?$AAo?$AA_?$AAo?$AAu?$AAt@ 0000000140086b30     libucrtd:output.obj
 0002:00012d00       ??_C@_1BMM@PGHHMNDM@?$AA_?$AA_?$AAc?$AAr?$AAt?$AA_?$AAs?$AAt?$AAd?$AAi?$AAo?$AA_?$AAo?$AAu?$AAt@ 0000000140086d00     libucrtd:output.obj
 0002:00012ed0       ??_C@_1CI@DDKMNCPP@?$AA_?$AAc?$AAo?$AAn?$AAt?$AAe?$AAx?$AAt?$AA?5?$AA?$CB?$AA?$DN?$AA?5?$AAn?$AAu?$AAl@ 0000000140086ed0     libucrtd:output.obj
 0002:00012f00       ??_C@_1HK@IIPGOADH@?$AA_?$AA_?$AAc?$AAr?$AAt?$AA_?$AAs?$AAt?$AAd?$AAi?$AAo?$AA_?$AAo?$AAu?$AAt@ 0000000140086f00     libucrtd:output.obj
 0002:00012f80       ??_C@_1HE@IACOMEJF@?$AA_?$AA_?$AAc?$AAr?$AAt?$AA_?$AAs?$AAt?$AAd?$AAi?$AAo?$AA_?$AAo?$AAu?$AAt@ 0000000140086f80     libucrtd:output.obj
 0002:00013000       ??_C@_1GC@BNMHNGKM@?$AA_?$AAs?$AAt?$AAa?$AAt?$AAe?$AA?5?$AA?$DN?$AA?$DN?$AA?5?$AAs?$AAt?$AAa?$AAt?$AAe@ 0000000140087000     libucrtd:output.obj
 0002:00013070       ??_C@_1BMI@DNMDMAAN@?$AA_?$AA_?$AAc?$AAr?$AAt?$AA_?$AAs?$AAt?$AAd?$AAi?$AAo?$AA_?$AAo?$AAu?$AAt@ 0000000140087070     libucrtd:output.obj
 0002:00013240       ??_C@_1BMM@JHGFKAND@?$AA_?$AA_?$AAc?$AAr?$AAt?$AA_?$AAs?$AAt?$AAd?$AAi?$AAo?$AA_?$AAo?$AAu?$AAt@ 0000000140087240     libucrtd:output.obj
 0002:00013410       ??_C@_1CA@ONEGMNAN@?$AA_?$AAs?$AAt?$AAr?$AAe?$AAa?$AAm?$AA?4?$AAv?$AAa?$AAl?$AAi?$AAd?$AA?$CI?$AA?$CJ@ 0000000140087410     libucrtd:output.obj
 0002:00013430       ??_C@_1HK@MPBCDOK@?$AA_?$AA_?$AAc?$AAr?$AAt?$AA_?$AAs?$AAt?$AAd?$AAi?$AAo?$AA_?$AAo?$AAu?$AAt@ 0000000140087430     libucrtd:output.obj
 0002:000134b0       ??_C@_1BEC@NDOOKIMC@?$AA_?$AA_?$AAc?$AAr?$AAt?$AA_?$AAs?$AAt?$AAd?$AAi?$AAo?$AA_?$AAo?$AAu?$AAt@ 00000001400874b0     libucrtd:output.obj
 0002:00013600       ??_C@_1EK@PNGFDECN@?$AA?$CI?$AA?$CC?$AA?8?$AAn?$AA?8?$AA?5?$AAf?$AAo?$AAr?$AAm?$AAa?$AAt?$AA?5?$AAs?$AAp@ 0000000140087600     libucrtd:output.obj
 0002:00013650       ??_C@_1EO@GHKFGFKL@?$AA?$CI?$AA?$CC?$AAI?$AAn?$AAv?$AAa?$AAl?$AAi?$AAd?$AA?5?$AAi?$AAn?$AAt?$AAe?$AAg@ 0000000140087650     libucrtd:output.obj
 0002:000136a0       ??_C@_1BDG@KOLEFKPF@?$AA_?$AA_?$AAc?$AAr?$AAt?$AA_?$AAs?$AAt?$AAd?$AAi?$AAo?$AA_?$AAo?$AAu?$AAt@ 00000001400876a0     libucrtd:output.obj
 0002:000137e0       ??_C@_1BMA@IHIBOLMD@?$AA_?$AA_?$AAc?$AAr?$AAt?$AA_?$AAs?$AAt?$AAd?$AAi?$AAo?$AA_?$AAo?$AAu?$AAt@ 00000001400877e0     libucrtd:output.obj
 0002:000139a0       ??_C@_1BMA@PGOJAHFP@?$AA_?$AA_?$AAc?$AAr?$AAt?$AA_?$AAs?$AAt?$AAd?$AAi?$AAo?$AA_?$AAo?$AAu?$AAt@ 00000001400879a0     libucrtd:output.obj
 0002:00013b60       ??_C@_1O@CEDCILHN@?$AA?$CI?$AAn?$AAu?$AAl?$AAl?$AA?$CJ@ 0000000140087b60     libucrtd:output.obj
 0002:00013b70       ??_C@_06OJHGLDPL@?$CInull?$CJ@ 0000000140087b70     libucrtd:output.obj
 0002:00013b78       ??_C@_1CK@LGDCECDH@?$AA_?$AAf?$AAo?$AAr?$AAm?$AAa?$AAt?$AA_?$AAc?$AAh?$AAa?$AAr?$AA?5?$AA?$CB?$AA?$DN@ 0000000140087b78     libucrtd:output.obj
 0002:00013bb0       ??_C@_1BMM@MBMBCJIF@?$AA_?$AA_?$AAc?$AAr?$AAt?$AA_?$AAs?$AAt?$AAd?$AAi?$AAo?$AA_?$AAo?$AAu?$AAt@ 0000000140087bb0     libucrtd:output.obj
 0002:00013d80       ??_C@_1BMM@KANDEEGK@?$AA_?$AA_?$AAc?$AAr?$AAt?$AA_?$AAs?$AAt?$AAd?$AAi?$AAo?$AA_?$AAo?$AAu?$AAt@ 0000000140087d80     libucrtd:output.obj
 0002:00013f50       ??_C@_0DI@KIFBHMNO@minkernel?2crts?2ucrt?2inc?2corecrt@ 0000000140087f50     libucrtd:output.obj
 0002:00013f90       ??_C@_1BMK@JGIBNIA@?$AA_?$AA_?$AAc?$AAr?$AAt?$AA_?$AAs?$AAt?$AAd?$AAi?$AAo?$AA_?$AAo?$AAu?$AAt@ 0000000140087f90     libucrtd:output.obj
 0002:00014160       ??_C@_1BLC@INKIGOCN@?$AA_?$AA_?$AAc?$AAr?$AAt?$AA_?$AAs?$AAt?$AAd?$AAi?$AAo?$AA_?$AAo?$AAu?$AAt@ 0000000140088160     libucrtd:output.obj
 0002:00014320       ??_C@_1BNK@KHNJGCCP@?$AA_?$AA_?$AAc?$AAr?$AAt?$AA_?$AAs?$AAt?$AAd?$AAi?$AAo?$AA_?$AAo?$AAu?$AAt@ 0000000140088320     libucrtd:output.obj
 0002:00014500       ??_C@_1BNO@OHFFMOOJ@?$AA_?$AA_?$AAc?$AAr?$AAt?$AA_?$AAs?$AAt?$AAd?$AAi?$AAo?$AA_?$AAo?$AAu?$AAt@ 0000000140088500     libucrtd:output.obj
 0002:000146e0       ??_C@_1BMC@FAGJFBLI@?$AA_?$AA_?$AAc?$AAr?$AAt?$AA_?$AAs?$AAt?$AAd?$AAi?$AAo?$AA_?$AAo?$AAu?$AAt@ 00000001400886e0     libucrtd:output.obj
 0002:000148b0       ??_C@_1BMG@CGPDIFDK@?$AA_?$AA_?$AAc?$AAr?$AAt?$AA_?$AAs?$AAt?$AAd?$AAi?$AAo?$AA_?$AAo?$AAu?$AAt@ 00000001400888b0     libucrtd:output.obj
 0002:00014a80       ??_C@_1BNC@OHPDPPJK@?$AA_?$AA_?$AAc?$AAr?$AAt?$AA_?$AAs?$AAt?$AAd?$AAi?$AAo?$AA_?$AAo?$AAu?$AAt@ 0000000140088a80     libucrtd:output.obj
 0002:00014c60       ??_C@_1BLK@FOLFMPJH@?$AA_?$AA_?$AAc?$AAr?$AAt?$AA_?$AAs?$AAt?$AAd?$AAi?$AAo?$AA_?$AAo?$AAu?$AAt@ 0000000140088c60     libucrtd:output.obj
 0002:00014e20       ??_C@_1BNO@NAODCKFA@?$AA_?$AA_?$AAc?$AAr?$AAt?$AA_?$AAs?$AAt?$AAd?$AAi?$AAo?$AA_?$AAo?$AAu?$AAt@ 0000000140088e20     libucrtd:output.obj
 0002:00015000       ??_C@_1BMG@BBEFGBID@?$AA_?$AA_?$AAc?$AAr?$AAt?$AA_?$AAs?$AAt?$AAd?$AAi?$AAo?$AA_?$AAo?$AAu?$AAt@ 0000000140089000     libucrtd:output.obj
 0002:000151d0       ??_C@_1BNC@JPKLPOHO@?$AA_?$AA_?$AAc?$AAr?$AAt?$AA_?$AAs?$AAt?$AAd?$AAi?$AAo?$AA_?$AAo?$AAu?$AAt@ 00000001400891d0     libucrtd:output.obj
 0002:000153b0       ??_C@_1FE@LHBLIKM@?$AAA?$AAs?$AAs?$AAe?$AAr?$AAt?$AAi?$AAo?$AAn?$AA?5?$AAf?$AAa?$AAi?$AAl?$AAe@ 00000001400893b0     libucrtd:assert.obj
 0002:00015408       ??_C@_0BC@LAIDCHCH@Assertion?5failed?$CB@ 0000000140089408     libucrtd:assert.obj
 0002:00015420       ??_C@_1CE@OJBNHDMO@?$AAA?$AAs?$AAs?$AAe?$AAr?$AAt?$AAi?$AAo?$AAn?$AA?5?$AAf?$AAa?$AAi?$AAl?$AAe@ 0000000140089420     libucrtd:assert.obj
 0002:00015448       ??_C@_1BE@PHKBBGE@?$AAP?$AAr?$AAo?$AAg?$AAr?$AAa?$AAm?$AA?3?$AA?5@ 0000000140089448     libucrtd:assert.obj
 0002:00015460       ??_C@_1O@HEMHKNDC@?$AAF?$AAi?$AAl?$AAe?$AA?3?$AA?5@ 0000000140089460     libucrtd:assert.obj
 0002:00015470       ??_C@_1O@KCAFKHJE@?$AAL?$AAi?$AAn?$AAe?$AA?3?$AA?5@ 0000000140089470     libucrtd:assert.obj
 0002:00015480       ??_C@_1OA@EGMLFBHJ@?$AAF?$AAo?$AAr?$AA?5?$AAi?$AAn?$AAf?$AAo?$AAr?$AAm?$AAa?$AAt?$AAi?$AAo?$AAn@ 0000000140089480     libucrtd:assert.obj
 0002:00015560       ??_C@_1HK@POCJMFGK@?$AA?$CI?$AAP?$AAr?$AAe?$AAs?$AAs?$AA?5?$AAR?$AAe?$AAt?$AAr?$AAy?$AA?5?$AAt?$AAo@ 0000000140089560     libucrtd:assert.obj
 0002:000155dc       ??_C@_01EEMJAFIK@?6@       00000001400895dc     libucrtd:assert.obj
 0002:000155e0       ??_C@_13LBAGMAIH@?$AA?6@   00000001400895e0     libucrtd:assert.obj
 0002:000155f0       ??_C@_1GE@PMLOPPED@?$AAm?$AAi?$AAn?$AAk?$AAe?$AAr?$AAn?$AAe?$AAl?$AA?2?$AAc?$AAr?$AAt?$AAs?$AA?2@ 00000001400895f0     libucrtd:assert.obj
 0002:00015660       ??_C@_1FE@LPBNNEBB@?$AAc?$AAo?$AAm?$AAm?$AAo?$AAn?$AA_?$AAa?$AAs?$AAs?$AAe?$AAr?$AAt?$AA_?$AAt@ 0000000140089660     libucrtd:assert.obj
 0002:000156c0       ??_C@_1KC@PIMENJIN@?$AAt?$AAr?$AAa?$AAi?$AAt?$AAs?$AA?3?$AA?3?$AAt?$AAc?$AAs?$AAc?$AAp?$AAy?$AA_@ 00000001400896c0     libucrtd:assert.obj
 0002:00015770       ??_C@_1KM@HGCBPADM@?$AAt?$AAr?$AAa?$AAi?$AAt?$AAs?$AA?3?$AA?3?$AAt?$AAc?$AAs?$AAc?$AAa?$AAt?$AA_@ 0000000140089770     libucrtd:assert.obj
 0002:00015820       ??_C@_1KK@KDENILFB@?$AAt?$AAr?$AAa?$AAi?$AAt?$AAs?$AA?3?$AA?3?$AAt?$AAc?$AAs?$AAc?$AAa?$AAt?$AA_@ 0000000140089820     libucrtd:assert.obj
 0002:000158d0       ??_C@_1BCM@OLNPCNDL@?$AAm?$AAe?$AAm?$AAc?$AAp?$AAy?$AA_?$AAs?$AA?$CI?$AA?5?$AAp?$AAc?$AAh?$AAP?$AAr@ 00000001400898d0     libucrtd:assert.obj
 0002:00015a00       ??_C@_1HM@LGKHMJCC@?$AAt?$AAr?$AAa?$AAi?$AAt?$AAs?$AA?3?$AA?3?$AAt?$AAc?$AAs?$AAc?$AAa?$AAt?$AA_@ 0000000140089a00     libucrtd:assert.obj
 0002:00015a80       ??_C@_1JO@KJEGDHLC@?$AAt?$AAr?$AAa?$AAi?$AAt?$AAs?$AA?3?$AA?3?$AAt?$AAc?$AAs?$AAc?$AAa?$AAt?$AA_@ 0000000140089a80     libucrtd:assert.obj
 0002:00015b20       ??_C@_1KE@NJCNOBGA@?$AAt?$AAr?$AAa?$AAi?$AAt?$AAs?$AA?3?$AA?3?$AAt?$AAc?$AAs?$AAc?$AAa?$AAt?$AA_@ 0000000140089b20     libucrtd:assert.obj
 0002:00015bd0       ??_C@_1LC@HKLLCKBM@?$AAt?$AAr?$AAa?$AAi?$AAt?$AAs?$AA?3?$AA?3?$AAt?$AAc?$AAs?$AAn?$AAc?$AAa?$AAt@ 0000000140089bd0     libucrtd:assert.obj
 0002:00015c90       ??_C@_1KI@JBNHIIKF@?$AAt?$AAr?$AAa?$AAi?$AAt?$AAs?$AA?3?$AA?3?$AAt?$AAc?$AAs?$AAc?$AAa?$AAt?$AA_@ 0000000140089c90     libucrtd:assert.obj
 0002:00015d40       ??_C@_1IK@KKBPPOFO@?$AAt?$AAr?$AAa?$AAi?$AAt?$AAs?$AA?3?$AA?3?$AAt?$AAc?$AAs?$AAc?$AAa?$AAt?$AA_@ 0000000140089d40     libucrtd:assert.obj
 0002:00015dd0       ??_C@_1LO@BFIEBOKI@?$AAt?$AAr?$AAa?$AAi?$AAt?$AAs?$AA?3?$AA?3?$AAt?$AAc?$AAs?$AAn?$AAc?$AAa?$AAt@ 0000000140089dd0     libucrtd:assert.obj
 0002:00015e90       ??_C@_1KE@OEANDPDB@?$AAt?$AAr?$AAa?$AAi?$AAt?$AAs?$AA?3?$AA?3?$AAt?$AAc?$AAs?$AAn?$AAc?$AAa?$AAt@ 0000000140089e90     libucrtd:assert.obj
 0002:00015f40       ??_C@_1LG@LMABGFBP@?$AAt?$AAr?$AAa?$AAi?$AAt?$AAs?$AA?3?$AA?3?$AAt?$AAc?$AAs?$AAc?$AAa?$AAt?$AA_@ 0000000140089f40     libucrtd:assert.obj
 0002:00016000       ??_C@_1IA@JPAKIPAA@?$AAt?$AAr?$AAa?$AAi?$AAt?$AAs?$AA?3?$AA?3?$AAt?$AAc?$AAs?$AAc?$AAa?$AAt?$AA_@ 000000014008a000     libucrtd:assert.obj
 0002:00016080       ??_C@_1KE@PADDJOL@?$AAt?$AAr?$AAa?$AAi?$AAt?$AAs?$AA?3?$AA?3?$AAt?$AAc?$AAs?$AAc?$AAa?$AAt?$AA_@ 000000014008a080     libucrtd:assert.obj
 0002:00016130       ??_C@_1BAK@NPHNFBPH@?$AAt?$AAr?$AAa?$AAi?$AAt?$AAs?$AA?3?$AA?3?$AAi?$AAt?$AAo?$AAt?$AA_?$AAs?$AA?$CI@ 000000014008a130     libucrtd:assert.obj
 0002:00016240       ??_C@_1LA@JOKMAPHG@?$AAt?$AAr?$AAa?$AAi?$AAt?$AAs?$AA?3?$AA?3?$AAt?$AAc?$AAs?$AAc?$AAa?$AAt?$AA_@ 000000014008a240     libucrtd:assert.obj
 0002:000162f0       ??_C@_1LA@IFFOJJCK@?$AAt?$AAr?$AAa?$AAi?$AAt?$AAs?$AA?3?$AA?3?$AAt?$AAc?$AAs?$AAn?$AAc?$AAa?$AAt@ 000000014008a2f0     libucrtd:assert.obj
 0002:000163a0       ??_C@_1KG@MFCBNPOK@?$AAt?$AAr?$AAa?$AAi?$AAt?$AAs?$AA?3?$AA?3?$AAt?$AAc?$AAs?$AAc?$AAa?$AAt?$AA_@ 000000014008a3a0     libucrtd:assert.obj
 0002:00016450       ??_C@_1IC@EDHOAOJ@?$AAt?$AAr?$AAa?$AAi?$AAt?$AAs?$AA?3?$AA?3?$AAt?$AAc?$AAs?$AAc?$AAa?$AAt?$AA_@ 000000014008a450     libucrtd:assert.obj
 0002:000164e0       ??_C@_1KE@NALOKOIG@?$AAt?$AAr?$AAa?$AAi?$AAt?$AAs?$AA?3?$AA?3?$AAt?$AAc?$AAs?$AAc?$AAa?$AAt?$AA_@ 000000014008a4e0     libucrtd:assert.obj
 0002:00016590       ??_C@_1KE@GGOFBC@?$AAt?$AAr?$AAa?$AAi?$AAt?$AAs?$AA?3?$AA?3?$AAt?$AAc?$AAs?$AAc?$AAa?$AAt?$AA_@ 000000014008a590     libucrtd:assert.obj
 0002:00016640       ??_C@_1GI@BNKDKMPA@?$AAm?$AAi?$AAn?$AAk?$AAe?$AAr?$AAn?$AAe?$AAl?$AA?2?$AAc?$AAr?$AAt?$AAs?$AA?2@ 000000014008a640     libucrtd:setlocale.obj
 0002:000166a8       ??_C@_1CA@DEKPAMPG@?$AAc?$AAa?$AAl?$AAl?$AA_?$AAw?$AAs?$AAe?$AAt?$AAl?$AAo?$AAc?$AAa?$AAl?$AAe@ 000000014008a6a8     libucrtd:setlocale.obj
 0002:000166d0       ??_C@_1HC@ODOEFNJK@?$AAm?$AAb?$AAs?$AAt?$AAo?$AAw?$AAc?$AAs?$AA_?$AAs?$AA?$CI?$AA?$CG?$AAs?$AAi?$AAz@ 000000014008a6d0     libucrtd:setlocale.obj
 0002:00016748       ??_C@_0DE@PCFEELDP@minkernel?2crts?2ucrt?2src?2appcrt?2@ 000000014008a748     libucrtd:setlocale.obj
 0002:00016780       ??_C@_1JE@MHNHEPNK@?$AAm?$AAb?$AAs?$AAt?$AAo?$AAw?$AAc?$AAs?$AA_?$AAs?$AA?$CI?$AAn?$AAu?$AAl?$AAl@ 000000014008a780     libucrtd:setlocale.obj
 0002:00016820       ??_C@_1IE@HOKOLPME@?$AAs?$AAe?$AAt?$AAl?$AAo?$AAc?$AAa?$AAl?$AAe?$AA?3?$AA?3?$AA?$DM?$AAl?$AAa?$AAm@ 000000014008a820     libucrtd:setlocale.obj
 0002:000168b0       ??_C@_1HC@PEEAAELA@?$AA_?$AAw?$AAc?$AAs?$AAt?$AAo?$AAm?$AAb?$AAs?$AA_?$AAs?$AA_?$AAl?$AA?$CI?$AA?$CG@ 000000014008a8b0     libucrtd:setlocale.obj
 0002:00016930       ??_C@_1JG@HLMJFODK@?$AA_?$AAw?$AAc?$AAs?$AAt?$AAo?$AAm?$AAb?$AAs?$AA_?$AAs?$AA_?$AAl?$AA?$CI?$AAn@ 000000014008a930     libucrtd:setlocale.obj
 0002:000169d0       ??_C@_1BKK@KDHKGOLM@?$AA?$CI?$AAp?$AAt?$AAl?$AAo?$AAc?$AAi?$AA?9?$AA?$DO?$AAl?$AAc?$AA_?$AAc?$AAa?$AAt@ 000000014008a9d0     libucrtd:setlocale.obj
 0002:00016b80       ??_C@_1GC@MIDGGPKO@?$AAm?$AAi?$AAn?$AAk?$AAe?$AAr?$AAn?$AAe?$AAl?$AA?2?$AAc?$AAr?$AAt?$AAs?$AA?2@ 000000014008ab80     libucrtd:wcsdup.obj
 0002:00016be8       ??_C@_1BI@JDKFAFNF@?$AA_?$AAw?$AAc?$AAs?$AAd?$AAu?$AAp?$AA_?$AAd?$AAb?$AAg@ 000000014008abe8     libucrtd:wcsdup.obj
 0002:00016c00       ??_C@_1FG@LKKABMLN@?$AAw?$AAc?$AAs?$AAc?$AAp?$AAy?$AA_?$AAs?$AA?$CI?$AAm?$AAe?$AAm?$AAo?$AAr?$AAy@ 000000014008ac00     libucrtd:wcsdup.obj
 0002:00016c60       __newctype                 000000014008ac60     libucrtd:ctype.obj
 0002:00016f60       __newclmap                 000000014008af60     libucrtd:ctype.obj
 0002:000170e0       __newcumap                 000000014008b0e0     libucrtd:ctype.obj
 0002:00017260       _wctype                    000000014008b260     libucrtd:ctype.obj
 0002:00017468       ??_C@_0DE@PKCHMIOF@minkernel?2crts?2ucrt?2src?2appcrt?2@ 000000014008b468     libucrtd:initctype.obj
 0002:000174a0       ??_C@_1GI@DPHPBMAL@?$AAm?$AAi?$AAn?$AAk?$AAe?$AAr?$AAn?$AAe?$AAl?$AA?2?$AAc?$AAr?$AAt?$AAs?$AA?2@ 000000014008b4a0     libucrtd:initctype.obj
 0002:00017508       ??_C@_1DG@NMBGBDM@?$AAp?$AAl?$AAo?$AAc?$AAi?$AA?9?$AA?$DO?$AAc?$AAt?$AAy?$AAp?$AAe?$AA1?$AA_?$AAr@ 000000014008b508     libucrtd:initctype.obj
 0002:000176a8       ??_C@_1CE@JMFACANE@?$AAr?$AAe?$AAs?$AAu?$AAl?$AAt?$AA?5?$AA?$CB?$AA?$DN?$AA?5?$AAn?$AAu?$AAl?$AAl?$AAp@ 000000014008b6a8     libucrtd:errno.obj
 0002:000176d0       ??_C@_1CK@LLOEFJJG@?$AAf?$AAi?$AAl?$AAe?$AA_?$AAn?$AAa?$AAm?$AAe?$AA?5?$AA?$CB?$AA?$DN?$AA?5?$AAn?$AAu@ 000000014008b6d0     libucrtd:fopen.obj
 0002:00017700       ??_C@_1FO@JKHHBFCN@?$AAm?$AAi?$AAn?$AAk?$AAe?$AAr?$AAn?$AAe?$AAl?$AA?2?$AAc?$AAr?$AAt?$AAs?$AA?2@ 000000014008b700     libucrtd:fopen.obj
 0002:00017760       ??_C@_1BM@HBDCPLIA@?$AAc?$AAo?$AAm?$AAm?$AAo?$AAn?$AA_?$AAf?$AAs?$AAo?$AAp?$AAe?$AAn@ 000000014008b760     libucrtd:fopen.obj
 0002:00017780       ??_C@_1CA@HJKPLBCC@?$AAm?$AAo?$AAd?$AAe?$AA?5?$AA?$CB?$AA?$DN?$AA?5?$AAn?$AAu?$AAl?$AAl?$AAp?$AAt?$AAr@ 000000014008b780     libucrtd:fopen.obj
 0002:000177a0       ??_C@_1BG@HEFEIBLN@?$AA?$CK?$AAm?$AAo?$AAd?$AAe?$AA?5?$AA?$CB?$AA?$DN?$AA?5?$AA0@ 000000014008b7a0     libucrtd:fopen.obj
 0002:00019470       ?large_power_data@?1??multiply_by_power_of_ten@__crt_strtox@@YA_NAEAUbig_integer@2@I@Z@4QBIB 000000014008d470     libucrtd:strtod.obj
 0002:00019d80       ?large_power_indices@?1??multiply_by_power_of_ten@__crt_strtox@@YA_NAEAUbig_integer@2@I@Z@4QBUunpack_index@?1??12@YA_N0I@Z@B 000000014008dd80     libucrtd:strtod.obj
 0002:00019e18       ?small_powers_of_ten@?1??multiply_by_power_of_ten@__crt_strtox@@YA_NAEAUbig_integer@2@I@Z@4QBIB 000000014008de18     libucrtd:strtod.obj
 0002:00019e40       ??_C@_1DI@GICAMMFM@?$AA?$CI?$AA?$CC?$AAD?$AAi?$AAv?$AAi?$AAs?$AAi?$AAo?$AAn?$AA?5?$AAb?$AAy?$AA?5?$AAz@ 000000014008de40     libucrtd:strtod.obj
 0002:00019e80       ??_C@_1GO@BFGDDONN@?$AAm?$AAi?$AAn?$AAk?$AAe?$AAr?$AAn?$AAe?$AAl?$AA?2?$AAc?$AAr?$AAt?$AAs?$AA?2@ 000000014008de80     libucrtd:strtod.obj
 0002:00019ef0       ??_C@_1GE@DPGDJKLM@?$AAm?$AAi?$AAn?$AAk?$AAe?$AAr?$AAn?$AAe?$AAl?$AA?2?$AAc?$AAr?$AAt?$AAs?$AA?2@ 000000014008def0     libucrtd:strtod.obj
 0002:00019f58       ??_C@_1CE@BLLJFLOH@?$AAs?$AAt?$AAr?$AAi?$AAn?$AAg?$AA?5?$AA?$CB?$AA?$DN?$AA?5?$AAn?$AAu?$AAl?$AAl?$AAp@ 000000014008df58     libucrtd:strtod.obj
 0002:00019f80       ??_C@_1CM@GJENOOEJ@?$AAc?$AA?5?$AA?$DN?$AA?$DN?$AA?5?$AA?8?$AA?2?$AA0?$AA?8?$AA?5?$AA?$HM?$AA?$HM?$AA?5?$AA?$CK?$AA_@ 000000014008df80     libucrtd:strtod.obj
 0002:00019fb0       ??_C@_1HA@CONLANFI@?$AA_?$AA_?$AAc?$AAr?$AAt?$AA_?$AAs?$AAt?$AAr?$AAt?$AAo?$AAx?$AA?3?$AA?3?$AAc@ 000000014008dfb0     libucrtd:strtod.obj
 0002:0001a020       ??_C@_1BM@PNEBBBDO@?$AA_?$AAp?$AA?5?$AA?$CB?$AA?$DN?$AA?5?$AAn?$AAu?$AAl?$AAl?$AAp?$AAt?$AAr@ 000000014008e020     libucrtd:strtod.obj
 0002:0001a040       ??_C@_1HG@FCDBLOEG@?$AA_?$AA_?$AAc?$AAr?$AAt?$AA_?$AAs?$AAt?$AAr?$AAt?$AAo?$AAx?$AA?3?$AA?3?$AAc@ 000000014008e040     libucrtd:strtod.obj
 0002:0001a0c0       ??_C@_1GK@MNHIDABG@?$AA_?$AA_?$AAc?$AAr?$AAt?$AA_?$AAs?$AAt?$AAr?$AAt?$AAo?$AAx?$AA?3?$AA?3?$AAc@ 000000014008e0c0     libucrtd:strtod.obj
 0002:0001a130       ??_C@_1HA@MKKIHBHP@?$AA_?$AA_?$AAc?$AAr?$AAt?$AA_?$AAs?$AAt?$AAr?$AAt?$AAo?$AAx?$AA?3?$AA?3?$AAc@ 000000014008e130     libucrtd:strtod.obj
 0002:0001a1a0       ??_C@_1DA@LLLMNMKI@?$AAa?$AAb?$AAo?$AAr?$AAt?$AA?$CI?$AA?$CJ?$AA?5?$AAh?$AAa?$AAs?$AA?5?$AAb?$AAe?$AAe@ 000000014008e1a0     libucrtd:abort.obj
 0002:0001a220       ??_C@_0DI@DNFGFCIK@minkernel?2crts?2ucrt?2inc?2corecrt@ 000000014008e220     libucrtd:strftime.obj
 0002:0001a260       __acrt_exception_action_table 000000014008e260     libucrtd:exception_filter.obj
 0002:0001a320       __acrt_signal_action_table_count 000000014008e320     libucrtd:exception_filter.obj
 0002:0001a328       __acrt_signal_action_first_fpe_index 000000014008e328     libucrtd:exception_filter.obj
 0002:0001a330       __acrt_signal_action_fpe_count 000000014008e330     libucrtd:exception_filter.obj
 0002:0001a340       ??_C@_1IC@DCNEKBE@?$AAm?$AAi?$AAn?$AAk?$AAe?$AAr?$AAn?$AAe?$AAl?$AA?2?$AAc?$AAr?$AAt?$AAs?$AA?2@ 000000014008e340     libucrtd:report_runtime_error.obj
 0002:0001a3c8       ??_C@_1DI@BLFJHKKP@?$AA_?$AA_?$AAa?$AAc?$AAr?$AAt?$AA_?$AAr?$AAe?$AAp?$AAo?$AAr?$AAt?$AA_?$AAr@ 000000014008e3c8     libucrtd:report_runtime_error.obj
 0002:0001a400       ??_C@_1LE@MHPGJGKE@?$AAw?$AAc?$AAs?$AAc?$AAp?$AAy?$AA_?$AAs?$AA?$CI?$AAo?$AAu?$AAt?$AAm?$AAs?$AAg@ 000000014008e400     libucrtd:report_runtime_error.obj
 0002:0001a4b8       ??_C@_1DE@JNGNBFGO@?$AAR?$AAu?$AAn?$AAt?$AAi?$AAm?$AAe?$AA?5?$AAE?$AAr?$AAr?$AAo?$AAr?$AA?$CB?$AA?6@ 000000014008e4b8     libucrtd:report_runtime_error.obj
 0002:0001a4f0       ??_C@_1HK@FJJNAABO@?$AAw?$AAc?$AAs?$AAc?$AAp?$AAy?$AA_?$AAs?$AA?$CI?$AAp?$AAr?$AAo?$AAg?$AAn?$AAa@ 000000014008e4f0     libucrtd:report_runtime_error.obj
 0002:0001a570       ??_C@_1HI@FLHKGEBE@?$AAw?$AAc?$AAs?$AAn?$AAc?$AAp?$AAy?$AA_?$AAs?$AA?$CI?$AAp?$AAc?$AAh?$AA?0?$AA?5@ 000000014008e570     libucrtd:report_runtime_error.obj
 0002:0001a5f0       ??_C@_1IG@MNNKBLBI@?$AAw?$AAc?$AAs?$AAc?$AAa?$AAt?$AA_?$AAs?$AA?$CI?$AAo?$AAu?$AAt?$AAm?$AAs?$AAg@ 000000014008e5f0     libucrtd:report_runtime_error.obj
 0002:0001a680       ??_C@_1IG@DFBBBDAN@?$AAw?$AAc?$AAs?$AAc?$AAa?$AAt?$AA_?$AAs?$AA?$CI?$AAo?$AAu?$AAt?$AAm?$AAs?$AAg@ 000000014008e680     libucrtd:report_runtime_error.obj
 0002:0001a708       ??_C@_0DI@KNDIGDEP@minkernel?2crts?2ucrt?2src?2appcrt?2@ 000000014008e708     libucrtd:argv_parsing.obj
 0002:0001a740       ??_C@_1JO@PGBIJBAM@?$AAm?$AAo?$AAd?$AAe?$AA?5?$AA?$DN?$AA?$DN?$AA?5?$AA_?$AAc?$AAr?$AAt?$AA_?$AAa?$AAr@ 000000014008e740     libucrtd:argv_parsing.obj
 0002:0001a7e0       ??_C@_1HA@JMLCANEE@?$AAm?$AAi?$AAn?$AAk?$AAe?$AAr?$AAn?$AAe?$AAl?$AA?2?$AAc?$AAr?$AAt?$AAs?$AA?2@ 000000014008e7e0     libucrtd:argv_parsing.obj
 0002:0001a850       ??_C@_1CM@LHOJELIC@?$AAc?$AAo?$AAm?$AAm?$AAo?$AAn?$AA_?$AAc?$AAo?$AAn?$AAf?$AAi?$AAg?$AAu?$AAr@ 000000014008e850     libucrtd:argv_parsing.obj
 0002:0001a880       ??_C@_0EG@LEHKHOEH@minkernel?2crts?2ucrt?2src?2desktop@ 000000014008e880     libucrtd:environment_initialization.obj
 0002:0001a8d0       ??_C@_1IM@IMOFFPLG@?$AAm?$AAi?$AAn?$AAk?$AAe?$AAr?$AAn?$AAe?$AAl?$AA?2?$AAc?$AAr?$AAt?$AAs?$AA?2@ 000000014008e8d0     libucrtd:environment_initialization.obj
 0002:0001a960       ??_C@_1CG@MNNNBNAK@?$AAc?$AAr?$AAe?$AAa?$AAt?$AAe?$AA_?$AAe?$AAn?$AAv?$AAi?$AAr?$AAo?$AAn?$AAm@ 000000014008e960     libucrtd:environment_initialization.obj
 0002:0001a990       ??_C@_1HI@OOPIFFGA@?$AAt?$AAr?$AAa?$AAi?$AAt?$AAs?$AA?3?$AA?3?$AAt?$AAc?$AAs?$AAc?$AAp?$AAy?$AA_@ 000000014008e990     libucrtd:environment_initialization.obj
 0002:0001aa10       ??_C@_1GC@CIJNGKLD@?$AAm?$AAi?$AAn?$AAk?$AAe?$AAr?$AAn?$AAe?$AAl?$AA?2?$AAc?$AAr?$AAt?$AAs?$AA?2@ 000000014008ea10     libucrtd:setmode.obj
 0002:0001aa80       ??_C@_1FO@LPCLHKGE@?$AA?$CI?$AAf?$AAh?$AA?5?$AA?$DO?$AA?$DN?$AA?5?$AA0?$AA?5?$AA?$CG?$AA?$CG?$AA?5?$AA?$CI?$AAu?$AAn@ 000000014008ea80     libucrtd:setmode.obj
 0002:0001aae0       ??_C@_1CM@OKGMMMDH@?$AA?$CI?$AA_?$AAo?$AAs?$AAf?$AAi?$AAl?$AAe?$AA?$CI?$AAf?$AAh?$AA?$CJ?$AA?5?$AA?$CG?$AA?5@ 000000014008eae0     libucrtd:setmode.obj
 0002:0001ab10       ??_C@_1JE@ECKHFIFP@?$AA?$CI?$AA?$CC?$AAI?$AAn?$AAv?$AAa?$AAl?$AAi?$AAd?$AA?5?$AAf?$AAi?$AAl?$AAe?$AA?5@ 000000014008eb10     libucrtd:setmode.obj
 0002:0001abb0       ??_C@_1HC@GNDCDMJL@?$AAm?$AAo?$AAd?$AAe?$AA?5?$AA?$DN?$AA?$DN?$AA?5?$AA_?$AAO?$AA_?$AAT?$AAE?$AAX?$AAT@ 000000014008ebb0     libucrtd:setmode.obj
 0002:0001ac28       ??_C@_1BG@IEEHLOCL@?$AA_?$AAs?$AAe?$AAt?$AA_?$AAf?$AAm?$AAo?$AAd?$AAe@ 000000014008ec28     libucrtd:setmode.obj
 0002:0001ac40       ??_C@_1CC@ODGEBJBO@?$AAp?$AAM?$AAo?$AAd?$AAe?$AA?5?$AA?$CB?$AA?$DN?$AA?5?$AAn?$AAu?$AAl?$AAl?$AAp?$AAt@ 000000014008ec40     libucrtd:setmode.obj
 0002:0001ac68       ??_C@_1BG@CKGMPOFH@?$AA_?$AAg?$AAe?$AAt?$AA_?$AAf?$AAm?$AAo?$AAd?$AAe@ 000000014008ec68     libucrtd:setmode.obj
 0002:0001ad00       __lc_category              000000014008ed00     libucrtd:wsetlocale.obj
 0002:0001ad90       ??_C@_1O@GIFLHMA@?$AAL?$AAC?$AA_?$AAA?$AAL?$AAL@ 000000014008ed90     libucrtd:wsetlocale.obj
 0002:0001ada0       ??_C@_1BG@PPOMIBNJ@?$AAL?$AAC?$AA_?$AAC?$AAO?$AAL?$AAL?$AAA?$AAT?$AAE@ 000000014008eda0     libucrtd:wsetlocale.obj
 0002:0001adb8       ??_C@_1BC@FFJGAPJM@?$AAL?$AAC?$AA_?$AAC?$AAT?$AAY?$AAP?$AAE@ 000000014008edb8     libucrtd:wsetlocale.obj
 0002:0001add0       ??_C@_1BI@PCKFNJFB@?$AAL?$AAC?$AA_?$AAM?$AAO?$AAN?$AAE?$AAT?$AAA?$AAR?$AAY@ 000000014008edd0     libucrtd:wsetlocale.obj
 0002:0001ade8       ??_C@_1BG@ENIEDKID@?$AAL?$AAC?$AA_?$AAN?$AAU?$AAM?$AAE?$AAR?$AAI?$AAC@ 000000014008ede8     libucrtd:wsetlocale.obj
 0002:0001ae00       ??_C@_1BA@HAAOMIIG@?$AAL?$AAC?$AA_?$AAT?$AAI?$AAM?$AAE@ 000000014008ee00     libucrtd:wsetlocale.obj
 0002:0001ae10       ??_C@_1GA@LDEGDKD@?$AA?$CI?$AA?$CC?$AAI?$AAn?$AAv?$AAa?$AAl?$AAi?$AAd?$AA?5?$AAp?$AAa?$AAr?$AAa?$AAm@ 000000014008ee10     libucrtd:wsetlocale.obj
 0002:0001ae70       ??_C@_1GK@DPKNLBIE@?$AAm?$AAi?$AAn?$AAk?$AAe?$AAr?$AAn?$AAe?$AAl?$AA?2?$AAc?$AAr?$AAt?$AAs?$AA?2@ 000000014008ee70     libucrtd:wsetlocale.obj
 0002:0001aee0       ??_C@_1CI@FGIONOJM@?$AA_?$AAc?$AAo?$AAn?$AAf?$AAi?$AAg?$AAt?$AAh?$AAr?$AAe?$AAa?$AAd?$AAl?$AAo@ 000000014008eee0     libucrtd:wsetlocale.obj
 0002:0001af08       ??_C@_0DF@MKMHJGEJ@minkernel?2crts?2ucrt?2src?2appcrt?2@ 000000014008ef08     libucrtd:wsetlocale.obj
 0002:0001af40       ??_C@_1FG@OHLFEKMC@?$AAL?$AAC?$AA_?$AAM?$AAI?$AAN?$AA?5?$AA?$DM?$AA?$DN?$AA?5?$AA_?$AAc?$AAa?$AAt?$AAe@ 000000014008ef40     libucrtd:wsetlocale.obj
 0002:0001af98       ??_C@_1BI@KJNPAEHL@?$AA_?$AAw?$AAs?$AAe?$AAt?$AAl?$AAo?$AAc?$AAa?$AAl?$AAe@ 000000014008ef98     libucrtd:wsetlocale.obj
 0002:0001afb0       ??_C@_15NBPDDFIP@?$AA?$DN?$AA?$DL@ 000000014008efb0     libucrtd:wsetlocale.obj
 0002:0001afb8       ??_C@_13PJJBFPED@?$AA?$DL@ 000000014008efb8     libucrtd:wsetlocale.obj
 0002:0001afc0       ??_C@_1CG@DKJCBBPP@?$AA_?$AAw?$AAs?$AAe?$AAt?$AAl?$AAo?$AAc?$AAa?$AAl?$AAe?$AA_?$AAn?$AAo?$AAl@ 000000014008efc0     libucrtd:wsetlocale.obj
 0002:0001aff0       ??_C@_1IG@NGDCPCDE@?$AAw?$AAc?$AAs?$AAn?$AAc?$AAp?$AAy?$AA_?$AAs?$AA?$CI?$AAl?$AAc?$AAt?$AAe?$AAm@ 000000014008eff0     libucrtd:wsetlocale.obj
 0002:0001b078       ??_C@_1CI@ODOPEMNJ@?$AA_?$AAw?$AAs?$AAe?$AAt?$AAl?$AAo?$AAc?$AAa?$AAl?$AAe?$AA_?$AAs?$AAe?$AAt@ 000000014008f078     libucrtd:wsetlocale.obj
 0002:0001b0a0       ??_C@_1EM@MHOCNIAA@?$AAw?$AAc?$AAs?$AAc?$AAp?$AAy?$AA_?$AAs?$AA?$CI?$AAp?$AAc?$AAh?$AA_?$AAc?$AAa@ 000000014008f0a0     libucrtd:wsetlocale.obj
 0002:0001b0ec       ??_C@_13NMPKAAJP@?$AA?$DN@ 000000014008f0ec     libucrtd:wsetlocale.obj
 0002:0001b0f0       ??_C@_1CI@LKOPFFBD@?$AA_?$AAw?$AAs?$AAe?$AAt?$AAl?$AAo?$AAc?$AAa?$AAl?$AAe?$AA_?$AAg?$AAe?$AAt@ 000000014008f0f0     libucrtd:wsetlocale.obj
 0002:0001b118       ??_C@_1DC@HMLJMODP@?$AAw?$AAc?$AAs?$AAc?$AAa?$AAt?$AA_?$AAs?$AA?$CI?$AAp?$AAc?$AAh?$AA?0?$AA?5?$AAc@ 000000014008f118     libucrtd:wsetlocale.obj
 0002:0001b150       ??_C@_1CK@ENLABMHL@?$AAp?$AAa?$AAr?$AAs?$AAe?$AA_?$AAb?$AAc?$AAp?$AA4?$AA7?$AA_?$AAl?$AAa?$AAn@ 000000014008f150     libucrtd:wsetlocale.obj
 0002:0001b180       ??_C@_1NM@HLCCHHMI@?$AAw?$AAc?$AAs?$AAn?$AAc?$AAp?$AAy?$AA_?$AAs?$AA?$CI?$AAn?$AAa?$AAm?$AAe?$AAs@ 000000014008f180     libucrtd:wsetlocale.obj
 0002:0001b260       ??_C@_1OE@CBMMNIKI@?$AAw?$AAc?$AAs?$AAn?$AAc?$AAp?$AAy?$AA_?$AAs?$AA?$CI?$AAn?$AAa?$AAm?$AAe?$AAs@ 000000014008f260     libucrtd:wsetlocale.obj
 0002:0001b348       ??_C@_1CG@EJAKMGFL@?$AAp?$AAa?$AAr?$AAs?$AAe?$AA_?$AAb?$AAc?$AAp?$AA4?$AA7?$AA_?$AAs?$AAc?$AAr@ 000000014008f348     libucrtd:wsetlocale.obj
 0002:0001b370       ??_C@_1LM@BMOGFEFE@?$AAw?$AAc?$AAs?$AAn?$AAc?$AAa?$AAt?$AA_?$AAs?$AA?$CI?$AAn?$AAa?$AAm?$AAe?$AAs@ 000000014008f370     libucrtd:wsetlocale.obj
 0002:0001b430       ??_C@_1OE@EBFAEEFC@?$AAw?$AAc?$AAs?$AAn?$AAc?$AAa?$AAt?$AA_?$AAs?$AA?$CI?$AAn?$AAa?$AAm?$AAe?$AAs@ 000000014008f430     libucrtd:wsetlocale.obj
 0002:0001b518       ??_C@_1CG@DHJLMPNE@?$AAp?$AAa?$AAr?$AAs?$AAe?$AA_?$AAb?$AAc?$AAp?$AA4?$AA7?$AA_?$AAr?$AAe?$AAg@ 000000014008f518     libucrtd:wsetlocale.obj
 0002:0001b540       ??_C@_1NI@HCNCOMAB@?$AAw?$AAc?$AAs?$AAn?$AAc?$AAp?$AAy?$AA_?$AAs?$AA?$CI?$AAn?$AAa?$AAm?$AAe?$AAs@ 000000014008f540     libucrtd:wsetlocale.obj
 0002:0001b618       ??_C@_1CM@BFJANLBJ@?$AAp?$AAa?$AAr?$AAs?$AAe?$AA_?$AAb?$AAc?$AAp?$AA4?$AA7?$AA_?$AAc?$AAo?$AAd@ 000000014008f618     libucrtd:wsetlocale.obj
 0002:0001b650       ??_C@_1NM@EHBAOOJF@?$AAw?$AAc?$AAs?$AAn?$AAc?$AAp?$AAy?$AA_?$AAs?$AA?$CI?$AAn?$AAa?$AAm?$AAe?$AAs@ 000000014008f650     libucrtd:wsetlocale.obj
 0002:0001b730       ??_C@_17EFJLDFDO@?$AA?9?$AA_?$AA?4@ 000000014008f730     libucrtd:wsetlocale.obj
 0002:0001b740       ??_C@_1IC@GOFECMPC@?$AA_?$AAe?$AAx?$AAp?$AAa?$AAn?$AAd?$AAl?$AAo?$AAc?$AAa?$AAl?$AAe?$AA_?$AAl@ 000000014008f740     libucrtd:wsetlocale.obj
 0002:0001b7d0       ??_C@_1BCI@NFIGLKLE@?$AAw?$AAc?$AAs?$AAn?$AAc?$AAp?$AAy?$AA_?$AAs?$AA?$CI?$AAl?$AAo?$AAc?$AAa?$AAl@ 000000014008f7d0     libucrtd:wsetlocale.obj
 0002:0001b900       ??_C@_1IE@NLIFNJDL@?$AA_?$AAe?$AAx?$AAp?$AAa?$AAn?$AAd?$AAl?$AAo?$AAc?$AAa?$AAl?$AAe?$AA_?$AAl@ 000000014008f900     libucrtd:wsetlocale.obj
 0002:0001b990       ??_C@_1BDA@BKILNJJG@?$AAw?$AAc?$AAs?$AAn?$AAc?$AAp?$AAy?$AA_?$AAs?$AA?$CI?$AA_?$AAp?$AAs?$AAe?$AAt@ 000000014008f990     libucrtd:wsetlocale.obj
 0002:0001bac0       ??_C@_1GI@FBIHHKPD@?$AA_?$AAe?$AAx?$AAp?$AAa?$AAn?$AAd?$AAl?$AAo?$AAc?$AAa?$AAl?$AAe?$AA_?$AAl@ 000000014008fac0     libucrtd:wsetlocale.obj
 0002:0001bb30       ??_C@_1BCM@CLIFPJEI@?$AAw?$AAc?$AAs?$AAn?$AAc?$AAp?$AAy?$AA_?$AAs?$AA?$CI?$AA_?$AAp?$AAs?$AAe?$AAt@ 000000014008fb30     libucrtd:wsetlocale.obj
 0002:0001bc60       ??_C@_1JE@NMNMNJCJ@?$AA_?$AAe?$AAx?$AAp?$AAa?$AAn?$AAd?$AAl?$AAo?$AAc?$AAa?$AAl?$AAe?$AA_?$AAl@ 000000014008fc60     libucrtd:wsetlocale.obj
 0002:0001bd00       ??_C@_1LM@FAJKEGBG@?$AAw?$AAc?$AAs?$AAn?$AAc?$AAp?$AAy?$AA_?$AAs?$AA?$CI?$AA_?$AAl?$AAo?$AAc?$AAa@ 000000014008fd00     libucrtd:wsetlocale.obj
 0002:0001bdc0       ??_C@_1BM@OIIBLEFG@?$AA_?$AAe?$AAx?$AAp?$AAa?$AAn?$AAd?$AAl?$AAo?$AAc?$AAa?$AAl?$AAe@ 000000014008fdc0     libucrtd:wsetlocale.obj
